
pressure_regulator.elf:     file format elf32-littlearm

Sections:
Idx Name          Size      VMA       LMA       File off  Algn
  0 .isr_vector   000001e4  08000000  08000000  00010000  2**0
                  CONTENTS, ALLOC, LOAD, READONLY, DATA
  1 .text         000053c4  080001f0  080001f0  000101f0  2**4
                  CONTENTS, ALLOC, LOAD, READONLY, CODE
  2 .rodata       000002ec  080055b4  080055b4  000155b4  2**2
                  CONTENTS, ALLOC, LOAD, READONLY, DATA
  3 .ARM          00000008  080058a0  080058a0  000158a0  2**2
                  CONTENTS, ALLOC, LOAD, READONLY, DATA
  4 .init_array   00000004  080058a8  080058a8  000158a8  2**2
                  CONTENTS, ALLOC, LOAD, DATA
  5 .fini_array   00000004  080058ac  080058ac  000158ac  2**2
                  CONTENTS, ALLOC, LOAD, DATA
  6 .data         000001e0  20000000  080058b0  00020000  2**2
                  CONTENTS, ALLOC, LOAD, DATA
  7 .bss          000051e4  200001e0  08005a90  000201e0  2**3
                  ALLOC
  8 ._user_heap_stack 00000600  200053c4  08005a90  000253c4  2**0
                  ALLOC
  9 .ARM.attributes 00000029  00000000  00000000  000201e0  2**0
                  CONTENTS, READONLY
 10 .debug_info   00022b70  00000000  00000000  00020209  2**0
                  CONTENTS, READONLY, DEBUGGING
 11 .debug_abbrev 00004f4b  00000000  00000000  00042d79  2**0
                  CONTENTS, READONLY, DEBUGGING
 12 .debug_loc    00008735  00000000  00000000  00047cc4  2**0
                  CONTENTS, READONLY, DEBUGGING
 13 .debug_aranges 00000e20  00000000  00000000  00050400  2**3
                  CONTENTS, READONLY, DEBUGGING
 14 .debug_ranges 00001258  00000000  00000000  00051220  2**3
                  CONTENTS, READONLY, DEBUGGING
 15 .debug_line   000099a3  00000000  00000000  00052478  2**0
                  CONTENTS, READONLY, DEBUGGING
 16 .debug_str    00005249  00000000  00000000  0005be1b  2**0
                  CONTENTS, READONLY, DEBUGGING
 17 .comment      0000007c  00000000  00000000  00061064  2**0
                  CONTENTS, READONLY
 18 .debug_frame  00002eb8  00000000  00000000  000610e0  2**2
                  CONTENTS, READONLY, DEBUGGING

Disassembly of section .text:

080001f0 <__do_global_dtors_aux>:
 80001f0:	b510      	push	{r4, lr}
 80001f2:	4c05      	ldr	r4, [pc, #20]	; (8000208 <__do_global_dtors_aux+0x18>)
 80001f4:	7823      	ldrb	r3, [r4, #0]
 80001f6:	b933      	cbnz	r3, 8000206 <__do_global_dtors_aux+0x16>
 80001f8:	4b04      	ldr	r3, [pc, #16]	; (800020c <__do_global_dtors_aux+0x1c>)
 80001fa:	b113      	cbz	r3, 8000202 <__do_global_dtors_aux+0x12>
 80001fc:	4804      	ldr	r0, [pc, #16]	; (8000210 <__do_global_dtors_aux+0x20>)
 80001fe:	f3af 8000 	nop.w
 8000202:	2301      	movs	r3, #1
 8000204:	7023      	strb	r3, [r4, #0]
 8000206:	bd10      	pop	{r4, pc}
 8000208:	200001e0 	.word	0x200001e0
 800020c:	00000000 	.word	0x00000000
 8000210:	0800559c 	.word	0x0800559c

08000214 <frame_dummy>:
 8000214:	b508      	push	{r3, lr}
 8000216:	4b03      	ldr	r3, [pc, #12]	; (8000224 <frame_dummy+0x10>)
 8000218:	b11b      	cbz	r3, 8000222 <frame_dummy+0xe>
 800021a:	4903      	ldr	r1, [pc, #12]	; (8000228 <frame_dummy+0x14>)
 800021c:	4803      	ldr	r0, [pc, #12]	; (800022c <frame_dummy+0x18>)
 800021e:	f3af 8000 	nop.w
 8000222:	bd08      	pop	{r3, pc}
 8000224:	00000000 	.word	0x00000000
 8000228:	200001e4 	.word	0x200001e4
 800022c:	0800559c 	.word	0x0800559c

08000230 <strlen>:
 8000230:	4603      	mov	r3, r0
 8000232:	f813 2b01 	ldrb.w	r2, [r3], #1
 8000236:	2a00      	cmp	r2, #0
 8000238:	d1fb      	bne.n	8000232 <strlen+0x2>
 800023a:	1a18      	subs	r0, r3, r0
 800023c:	3801      	subs	r0, #1
 800023e:	4770      	bx	lr

08000240 <__aeabi_llsr>:
 8000240:	40d0      	lsrs	r0, r2
 8000242:	1c0b      	adds	r3, r1, #0
 8000244:	40d1      	lsrs	r1, r2
 8000246:	469c      	mov	ip, r3
 8000248:	3a20      	subs	r2, #32
 800024a:	40d3      	lsrs	r3, r2
 800024c:	4318      	orrs	r0, r3
 800024e:	4252      	negs	r2, r2
 8000250:	4663      	mov	r3, ip
 8000252:	4093      	lsls	r3, r2
 8000254:	4318      	orrs	r0, r3
 8000256:	4770      	bx	lr

08000258 <__aeabi_uldivmod>:
 8000258:	b953      	cbnz	r3, 8000270 <__aeabi_uldivmod+0x18>
 800025a:	b94a      	cbnz	r2, 8000270 <__aeabi_uldivmod+0x18>
 800025c:	2900      	cmp	r1, #0
 800025e:	bf08      	it	eq
 8000260:	2800      	cmpeq	r0, #0
 8000262:	bf1c      	itt	ne
 8000264:	f04f 31ff 	movne.w	r1, #4294967295
 8000268:	f04f 30ff 	movne.w	r0, #4294967295
 800026c:	f000 b97a 	b.w	8000564 <__aeabi_idiv0>
 8000270:	f1ad 0c08 	sub.w	ip, sp, #8
 8000274:	e96d ce04 	strd	ip, lr, [sp, #-16]!
 8000278:	f000 f806 	bl	8000288 <__udivmoddi4>
 800027c:	f8dd e004 	ldr.w	lr, [sp, #4]
 8000280:	e9dd 2302 	ldrd	r2, r3, [sp, #8]
 8000284:	b004      	add	sp, #16
 8000286:	4770      	bx	lr

08000288 <__udivmoddi4>:
 8000288:	e92d 47f0 	stmdb	sp!, {r4, r5, r6, r7, r8, r9, sl, lr}
 800028c:	468c      	mov	ip, r1
 800028e:	460e      	mov	r6, r1
 8000290:	4604      	mov	r4, r0
 8000292:	9d08      	ldr	r5, [sp, #32]
 8000294:	2b00      	cmp	r3, #0
 8000296:	d150      	bne.n	800033a <__udivmoddi4+0xb2>
 8000298:	428a      	cmp	r2, r1
 800029a:	4617      	mov	r7, r2
 800029c:	d96c      	bls.n	8000378 <__udivmoddi4+0xf0>
 800029e:	fab2 fe82 	clz	lr, r2
 80002a2:	f1be 0f00 	cmp.w	lr, #0
 80002a6:	d00b      	beq.n	80002c0 <__udivmoddi4+0x38>
 80002a8:	f1ce 0c20 	rsb	ip, lr, #32
 80002ac:	fa01 f60e 	lsl.w	r6, r1, lr
 80002b0:	fa20 fc0c 	lsr.w	ip, r0, ip
 80002b4:	fa02 f70e 	lsl.w	r7, r2, lr
 80002b8:	ea4c 0c06 	orr.w	ip, ip, r6
 80002bc:	fa00 f40e 	lsl.w	r4, r0, lr
 80002c0:	0c3a      	lsrs	r2, r7, #16
 80002c2:	fbbc f9f2 	udiv	r9, ip, r2
 80002c6:	b2bb      	uxth	r3, r7
 80002c8:	fb02 cc19 	mls	ip, r2, r9, ip
 80002cc:	fb09 fa03 	mul.w	sl, r9, r3
 80002d0:	ea4f 4814 	mov.w	r8, r4, lsr #16
 80002d4:	ea48 460c 	orr.w	r6, r8, ip, lsl #16
 80002d8:	45b2      	cmp	sl, r6
 80002da:	d90a      	bls.n	80002f2 <__udivmoddi4+0x6a>
 80002dc:	19f6      	adds	r6, r6, r7
 80002de:	f109 31ff 	add.w	r1, r9, #4294967295
 80002e2:	f080 8125 	bcs.w	8000530 <__udivmoddi4+0x2a8>
 80002e6:	45b2      	cmp	sl, r6
 80002e8:	f240 8122 	bls.w	8000530 <__udivmoddi4+0x2a8>
 80002ec:	f1a9 0902 	sub.w	r9, r9, #2
 80002f0:	443e      	add	r6, r7
 80002f2:	eba6 060a 	sub.w	r6, r6, sl
 80002f6:	fbb6 f0f2 	udiv	r0, r6, r2
 80002fa:	fb02 6610 	mls	r6, r2, r0, r6
 80002fe:	fb00 f303 	mul.w	r3, r0, r3
 8000302:	b2a4      	uxth	r4, r4
 8000304:	ea44 4406 	orr.w	r4, r4, r6, lsl #16
 8000308:	42a3      	cmp	r3, r4
 800030a:	d909      	bls.n	8000320 <__udivmoddi4+0x98>
 800030c:	19e4      	adds	r4, r4, r7
 800030e:	f100 32ff 	add.w	r2, r0, #4294967295
 8000312:	f080 810b 	bcs.w	800052c <__udivmoddi4+0x2a4>
 8000316:	42a3      	cmp	r3, r4
 8000318:	f240 8108 	bls.w	800052c <__udivmoddi4+0x2a4>
 800031c:	3802      	subs	r0, #2
 800031e:	443c      	add	r4, r7
 8000320:	2100      	movs	r1, #0
 8000322:	1ae4      	subs	r4, r4, r3
 8000324:	ea40 4009 	orr.w	r0, r0, r9, lsl #16
 8000328:	2d00      	cmp	r5, #0
 800032a:	d062      	beq.n	80003f2 <__udivmoddi4+0x16a>
 800032c:	2300      	movs	r3, #0
 800032e:	fa24 f40e 	lsr.w	r4, r4, lr
 8000332:	602c      	str	r4, [r5, #0]
 8000334:	606b      	str	r3, [r5, #4]
 8000336:	e8bd 87f0 	ldmia.w	sp!, {r4, r5, r6, r7, r8, r9, sl, pc}
 800033a:	428b      	cmp	r3, r1
 800033c:	d907      	bls.n	800034e <__udivmoddi4+0xc6>
 800033e:	2d00      	cmp	r5, #0
 8000340:	d055      	beq.n	80003ee <__udivmoddi4+0x166>
 8000342:	2100      	movs	r1, #0
 8000344:	e885 0041 	stmia.w	r5, {r0, r6}
 8000348:	4608      	mov	r0, r1
 800034a:	e8bd 87f0 	ldmia.w	sp!, {r4, r5, r6, r7, r8, r9, sl, pc}
 800034e:	fab3 f183 	clz	r1, r3
 8000352:	2900      	cmp	r1, #0
 8000354:	f040 808f 	bne.w	8000476 <__udivmoddi4+0x1ee>
 8000358:	42b3      	cmp	r3, r6
 800035a:	d302      	bcc.n	8000362 <__udivmoddi4+0xda>
 800035c:	4282      	cmp	r2, r0
 800035e:	f200 80fc 	bhi.w	800055a <__udivmoddi4+0x2d2>
 8000362:	1a84      	subs	r4, r0, r2
 8000364:	eb66 0603 	sbc.w	r6, r6, r3
 8000368:	2001      	movs	r0, #1
 800036a:	46b4      	mov	ip, r6
 800036c:	2d00      	cmp	r5, #0
 800036e:	d040      	beq.n	80003f2 <__udivmoddi4+0x16a>
 8000370:	e885 1010 	stmia.w	r5, {r4, ip}
 8000374:	e8bd 87f0 	ldmia.w	sp!, {r4, r5, r6, r7, r8, r9, sl, pc}
 8000378:	b912      	cbnz	r2, 8000380 <__udivmoddi4+0xf8>
 800037a:	2701      	movs	r7, #1
 800037c:	fbb7 f7f2 	udiv	r7, r7, r2
 8000380:	fab7 fe87 	clz	lr, r7
 8000384:	f1be 0f00 	cmp.w	lr, #0
 8000388:	d135      	bne.n	80003f6 <__udivmoddi4+0x16e>
 800038a:	2101      	movs	r1, #1
 800038c:	1bf6      	subs	r6, r6, r7
 800038e:	ea4f 4c17 	mov.w	ip, r7, lsr #16
 8000392:	fa1f f887 	uxth.w	r8, r7
 8000396:	fbb6 f2fc 	udiv	r2, r6, ip
 800039a:	fb0c 6612 	mls	r6, ip, r2, r6
 800039e:	fb08 f002 	mul.w	r0, r8, r2
 80003a2:	0c23      	lsrs	r3, r4, #16
 80003a4:	ea43 4606 	orr.w	r6, r3, r6, lsl #16
 80003a8:	42b0      	cmp	r0, r6
 80003aa:	d907      	bls.n	80003bc <__udivmoddi4+0x134>
 80003ac:	19f6      	adds	r6, r6, r7
 80003ae:	f102 33ff 	add.w	r3, r2, #4294967295
 80003b2:	d202      	bcs.n	80003ba <__udivmoddi4+0x132>
 80003b4:	42b0      	cmp	r0, r6
 80003b6:	f200 80d2 	bhi.w	800055e <__udivmoddi4+0x2d6>
 80003ba:	461a      	mov	r2, r3
 80003bc:	1a36      	subs	r6, r6, r0
 80003be:	fbb6 f0fc 	udiv	r0, r6, ip
 80003c2:	fb0c 6610 	mls	r6, ip, r0, r6
 80003c6:	fb08 f800 	mul.w	r8, r8, r0
 80003ca:	b2a3      	uxth	r3, r4
 80003cc:	ea43 4406 	orr.w	r4, r3, r6, lsl #16
 80003d0:	45a0      	cmp	r8, r4
 80003d2:	d907      	bls.n	80003e4 <__udivmoddi4+0x15c>
 80003d4:	19e4      	adds	r4, r4, r7
 80003d6:	f100 33ff 	add.w	r3, r0, #4294967295
 80003da:	d202      	bcs.n	80003e2 <__udivmoddi4+0x15a>
 80003dc:	45a0      	cmp	r8, r4
 80003de:	f200 80b9 	bhi.w	8000554 <__udivmoddi4+0x2cc>
 80003e2:	4618      	mov	r0, r3
 80003e4:	eba4 0408 	sub.w	r4, r4, r8
 80003e8:	ea40 4002 	orr.w	r0, r0, r2, lsl #16
 80003ec:	e79c      	b.n	8000328 <__udivmoddi4+0xa0>
 80003ee:	4629      	mov	r1, r5
 80003f0:	4628      	mov	r0, r5
 80003f2:	e8bd 87f0 	ldmia.w	sp!, {r4, r5, r6, r7, r8, r9, sl, pc}
 80003f6:	fa07 f70e 	lsl.w	r7, r7, lr
 80003fa:	f1ce 0320 	rsb	r3, lr, #32
 80003fe:	fa26 f203 	lsr.w	r2, r6, r3
 8000402:	ea4f 4c17 	mov.w	ip, r7, lsr #16
 8000406:	fbb2 f1fc 	udiv	r1, r2, ip
 800040a:	fa1f f887 	uxth.w	r8, r7
 800040e:	fb0c 2211 	mls	r2, ip, r1, r2
 8000412:	fa06 f60e 	lsl.w	r6, r6, lr
 8000416:	fa20 f303 	lsr.w	r3, r0, r3
 800041a:	fb01 f908 	mul.w	r9, r1, r8
 800041e:	4333      	orrs	r3, r6
 8000420:	0c1e      	lsrs	r6, r3, #16
 8000422:	ea46 4602 	orr.w	r6, r6, r2, lsl #16
 8000426:	45b1      	cmp	r9, r6
 8000428:	fa00 f40e 	lsl.w	r4, r0, lr
 800042c:	d909      	bls.n	8000442 <__udivmoddi4+0x1ba>
 800042e:	19f6      	adds	r6, r6, r7
 8000430:	f101 32ff 	add.w	r2, r1, #4294967295
 8000434:	f080 808c 	bcs.w	8000550 <__udivmoddi4+0x2c8>
 8000438:	45b1      	cmp	r9, r6
 800043a:	f240 8089 	bls.w	8000550 <__udivmoddi4+0x2c8>
 800043e:	3902      	subs	r1, #2
 8000440:	443e      	add	r6, r7
 8000442:	eba6 0609 	sub.w	r6, r6, r9
 8000446:	fbb6 f0fc 	udiv	r0, r6, ip
 800044a:	fb0c 6210 	mls	r2, ip, r0, r6
 800044e:	fb00 f908 	mul.w	r9, r0, r8
 8000452:	b29e      	uxth	r6, r3
 8000454:	ea46 4602 	orr.w	r6, r6, r2, lsl #16
 8000458:	45b1      	cmp	r9, r6
 800045a:	d907      	bls.n	800046c <__udivmoddi4+0x1e4>
 800045c:	19f6      	adds	r6, r6, r7
 800045e:	f100 33ff 	add.w	r3, r0, #4294967295
 8000462:	d271      	bcs.n	8000548 <__udivmoddi4+0x2c0>
 8000464:	45b1      	cmp	r9, r6
 8000466:	d96f      	bls.n	8000548 <__udivmoddi4+0x2c0>
 8000468:	3802      	subs	r0, #2
 800046a:	443e      	add	r6, r7
 800046c:	eba6 0609 	sub.w	r6, r6, r9
 8000470:	ea40 4101 	orr.w	r1, r0, r1, lsl #16
 8000474:	e78f      	b.n	8000396 <__udivmoddi4+0x10e>
 8000476:	f1c1 0720 	rsb	r7, r1, #32
 800047a:	fa22 f807 	lsr.w	r8, r2, r7
 800047e:	408b      	lsls	r3, r1
 8000480:	ea48 0303 	orr.w	r3, r8, r3
 8000484:	fa26 f407 	lsr.w	r4, r6, r7
 8000488:	ea4f 4e13 	mov.w	lr, r3, lsr #16
 800048c:	fbb4 f9fe 	udiv	r9, r4, lr
 8000490:	fa1f fc83 	uxth.w	ip, r3
 8000494:	fb0e 4419 	mls	r4, lr, r9, r4
 8000498:	408e      	lsls	r6, r1
 800049a:	fa20 f807 	lsr.w	r8, r0, r7
 800049e:	fb09 fa0c 	mul.w	sl, r9, ip
 80004a2:	ea48 0806 	orr.w	r8, r8, r6
 80004a6:	ea4f 4618 	mov.w	r6, r8, lsr #16
 80004aa:	ea46 4404 	orr.w	r4, r6, r4, lsl #16
 80004ae:	45a2      	cmp	sl, r4
 80004b0:	fa02 f201 	lsl.w	r2, r2, r1
 80004b4:	fa00 f601 	lsl.w	r6, r0, r1
 80004b8:	d908      	bls.n	80004cc <__udivmoddi4+0x244>
 80004ba:	18e4      	adds	r4, r4, r3
 80004bc:	f109 30ff 	add.w	r0, r9, #4294967295
 80004c0:	d244      	bcs.n	800054c <__udivmoddi4+0x2c4>
 80004c2:	45a2      	cmp	sl, r4
 80004c4:	d942      	bls.n	800054c <__udivmoddi4+0x2c4>
 80004c6:	f1a9 0902 	sub.w	r9, r9, #2
 80004ca:	441c      	add	r4, r3
 80004cc:	eba4 040a 	sub.w	r4, r4, sl
 80004d0:	fbb4 f0fe 	udiv	r0, r4, lr
 80004d4:	fb0e 4410 	mls	r4, lr, r0, r4
 80004d8:	fb00 fc0c 	mul.w	ip, r0, ip
 80004dc:	fa1f f888 	uxth.w	r8, r8
 80004e0:	ea48 4404 	orr.w	r4, r8, r4, lsl #16
 80004e4:	45a4      	cmp	ip, r4
 80004e6:	d907      	bls.n	80004f8 <__udivmoddi4+0x270>
 80004e8:	18e4      	adds	r4, r4, r3
 80004ea:	f100 3eff 	add.w	lr, r0, #4294967295
 80004ee:	d229      	bcs.n	8000544 <__udivmoddi4+0x2bc>
 80004f0:	45a4      	cmp	ip, r4
 80004f2:	d927      	bls.n	8000544 <__udivmoddi4+0x2bc>
 80004f4:	3802      	subs	r0, #2
 80004f6:	441c      	add	r4, r3
 80004f8:	ea40 4009 	orr.w	r0, r0, r9, lsl #16
 80004fc:	fba0 8902 	umull	r8, r9, r0, r2
 8000500:	eba4 0c0c 	sub.w	ip, r4, ip
 8000504:	45cc      	cmp	ip, r9
 8000506:	46c2      	mov	sl, r8
 8000508:	46ce      	mov	lr, r9
 800050a:	d315      	bcc.n	8000538 <__udivmoddi4+0x2b0>
 800050c:	d012      	beq.n	8000534 <__udivmoddi4+0x2ac>
 800050e:	b155      	cbz	r5, 8000526 <__udivmoddi4+0x29e>
 8000510:	ebb6 030a 	subs.w	r3, r6, sl
 8000514:	eb6c 060e 	sbc.w	r6, ip, lr
 8000518:	fa06 f707 	lsl.w	r7, r6, r7
 800051c:	40cb      	lsrs	r3, r1
 800051e:	431f      	orrs	r7, r3
 8000520:	40ce      	lsrs	r6, r1
 8000522:	602f      	str	r7, [r5, #0]
 8000524:	606e      	str	r6, [r5, #4]
 8000526:	2100      	movs	r1, #0
 8000528:	e8bd 87f0 	ldmia.w	sp!, {r4, r5, r6, r7, r8, r9, sl, pc}
 800052c:	4610      	mov	r0, r2
 800052e:	e6f7      	b.n	8000320 <__udivmoddi4+0x98>
 8000530:	4689      	mov	r9, r1
 8000532:	e6de      	b.n	80002f2 <__udivmoddi4+0x6a>
 8000534:	4546      	cmp	r6, r8
 8000536:	d2ea      	bcs.n	800050e <__udivmoddi4+0x286>
 8000538:	ebb8 0a02 	subs.w	sl, r8, r2
 800053c:	eb69 0e03 	sbc.w	lr, r9, r3
 8000540:	3801      	subs	r0, #1
 8000542:	e7e4      	b.n	800050e <__udivmoddi4+0x286>
 8000544:	4670      	mov	r0, lr
 8000546:	e7d7      	b.n	80004f8 <__udivmoddi4+0x270>
 8000548:	4618      	mov	r0, r3
 800054a:	e78f      	b.n	800046c <__udivmoddi4+0x1e4>
 800054c:	4681      	mov	r9, r0
 800054e:	e7bd      	b.n	80004cc <__udivmoddi4+0x244>
 8000550:	4611      	mov	r1, r2
 8000552:	e776      	b.n	8000442 <__udivmoddi4+0x1ba>
 8000554:	3802      	subs	r0, #2
 8000556:	443c      	add	r4, r7
 8000558:	e744      	b.n	80003e4 <__udivmoddi4+0x15c>
 800055a:	4608      	mov	r0, r1
 800055c:	e706      	b.n	800036c <__udivmoddi4+0xe4>
 800055e:	3a02      	subs	r2, #2
 8000560:	443e      	add	r6, r7
 8000562:	e72b      	b.n	80003bc <__udivmoddi4+0x134>

08000564 <__aeabi_idiv0>:
 8000564:	4770      	bx	lr
 8000566:	bf00      	nop

08000568 <HAL_InitTick>:
  *       implementation  in user file.
  * @param TickPriority Tick interrupt priority.
  * @retval HAL status
  */
__weak HAL_StatusTypeDef HAL_InitTick(uint32_t TickPriority)
{
 8000568:	b538      	push	{r3, r4, r5, lr}
  /* Configure the SysTick to have interrupt in 1ms time basis*/
  if (HAL_SYSTICK_Config(SystemCoreClock / (1000U / uwTickFreq)) > 0U)
 800056a:	4b0e      	ldr	r3, [pc, #56]	; (80005a4 <HAL_InitTick+0x3c>)
{
 800056c:	4605      	mov	r5, r0
  if (HAL_SYSTICK_Config(SystemCoreClock / (1000U / uwTickFreq)) > 0U)
 800056e:	7818      	ldrb	r0, [r3, #0]
 8000570:	f44f 737a 	mov.w	r3, #1000	; 0x3e8
 8000574:	fbb3 f3f0 	udiv	r3, r3, r0
 8000578:	4a0b      	ldr	r2, [pc, #44]	; (80005a8 <HAL_InitTick+0x40>)
 800057a:	6810      	ldr	r0, [r2, #0]
 800057c:	fbb0 f0f3 	udiv	r0, r0, r3
 8000580:	f000 fb44 	bl	8000c0c <HAL_SYSTICK_Config>
 8000584:	4604      	mov	r4, r0
 8000586:	b958      	cbnz	r0, 80005a0 <HAL_InitTick+0x38>
  {
    return HAL_ERROR;
  }

  /* Configure the SysTick IRQ priority */
  if (TickPriority < (1UL << __NVIC_PRIO_BITS))
 8000588:	2d0f      	cmp	r5, #15
 800058a:	d809      	bhi.n	80005a0 <HAL_InitTick+0x38>
  {
    HAL_NVIC_SetPriority(SysTick_IRQn, TickPriority, 0U);
 800058c:	4602      	mov	r2, r0
 800058e:	4629      	mov	r1, r5
 8000590:	f04f 30ff 	mov.w	r0, #4294967295
 8000594:	f000 fafa 	bl	8000b8c <HAL_NVIC_SetPriority>
    uwTickPrio = TickPriority;
 8000598:	4b04      	ldr	r3, [pc, #16]	; (80005ac <HAL_InitTick+0x44>)
 800059a:	4620      	mov	r0, r4
 800059c:	601d      	str	r5, [r3, #0]
 800059e:	bd38      	pop	{r3, r4, r5, pc}
    return HAL_ERROR;
 80005a0:	2001      	movs	r0, #1
    return HAL_ERROR;
  }

  /* Return function status */
  return HAL_OK;
}
 80005a2:	bd38      	pop	{r3, r4, r5, pc}
 80005a4:	20000000 	.word	0x20000000
 80005a8:	2000000c 	.word	0x2000000c
 80005ac:	20000004 	.word	0x20000004

080005b0 <HAL_Init>:
  __HAL_FLASH_PREFETCH_BUFFER_ENABLE();
 80005b0:	4a07      	ldr	r2, [pc, #28]	; (80005d0 <HAL_Init+0x20>)
{
 80005b2:	b508      	push	{r3, lr}
  __HAL_FLASH_PREFETCH_BUFFER_ENABLE();
 80005b4:	6813      	ldr	r3, [r2, #0]
  HAL_NVIC_SetPriorityGrouping(NVIC_PRIORITYGROUP_4);
 80005b6:	2003      	movs	r0, #3
  __HAL_FLASH_PREFETCH_BUFFER_ENABLE();
 80005b8:	f043 0310 	orr.w	r3, r3, #16
 80005bc:	6013      	str	r3, [r2, #0]
  HAL_NVIC_SetPriorityGrouping(NVIC_PRIORITYGROUP_4);
 80005be:	f000 fad3 	bl	8000b68 <HAL_NVIC_SetPriorityGrouping>
  HAL_InitTick(TICK_INT_PRIORITY);
 80005c2:	200f      	movs	r0, #15
 80005c4:	f7ff ffd0 	bl	8000568 <HAL_InitTick>
  HAL_MspInit();
 80005c8:	f003 fc80 	bl	8003ecc <HAL_MspInit>
}
 80005cc:	2000      	movs	r0, #0
 80005ce:	bd08      	pop	{r3, pc}
 80005d0:	40022000 	.word	0x40022000

080005d4 <HAL_IncTick>:
  *      implementations in user file.
  * @retval None
  */
__weak void HAL_IncTick(void)
{
  uwTick += uwTickFreq;
 80005d4:	4a03      	ldr	r2, [pc, #12]	; (80005e4 <HAL_IncTick+0x10>)
 80005d6:	4b04      	ldr	r3, [pc, #16]	; (80005e8 <HAL_IncTick+0x14>)
 80005d8:	6811      	ldr	r1, [r2, #0]
 80005da:	781b      	ldrb	r3, [r3, #0]
 80005dc:	440b      	add	r3, r1
 80005de:	6013      	str	r3, [r2, #0]
 80005e0:	4770      	bx	lr
 80005e2:	bf00      	nop
 80005e4:	20005240 	.word	0x20005240
 80005e8:	20000000 	.word	0x20000000

080005ec <HAL_GetTick>:
  *       implementations in user file.
  * @retval tick value
  */
__weak uint32_t HAL_GetTick(void)
{
  return uwTick;
 80005ec:	4b01      	ldr	r3, [pc, #4]	; (80005f4 <HAL_GetTick+0x8>)
 80005ee:	6818      	ldr	r0, [r3, #0]
}
 80005f0:	4770      	bx	lr
 80005f2:	bf00      	nop
 80005f4:	20005240 	.word	0x20005240

080005f8 <HAL_GetUID>:
  * @param UID pointer to 3 words array.
  * @retval Device identifier
  */
void HAL_GetUID(uint32_t *UID)
{
  UID[0] = (uint32_t)(READ_REG(*((uint32_t *)UID_BASE)));
 80005f8:	4b04      	ldr	r3, [pc, #16]	; (800060c <HAL_GetUID+0x14>)
 80005fa:	681b      	ldr	r3, [r3, #0]
 80005fc:	6003      	str	r3, [r0, #0]
  UID[1] = (uint32_t)(READ_REG(*((uint32_t *)(UID_BASE + 4U))));
 80005fe:	4b04      	ldr	r3, [pc, #16]	; (8000610 <HAL_GetUID+0x18>)
 8000600:	681b      	ldr	r3, [r3, #0]
 8000602:	6043      	str	r3, [r0, #4]
  UID[2] = (uint32_t)(READ_REG(*((uint32_t *)(UID_BASE + 8U))));
 8000604:	4b03      	ldr	r3, [pc, #12]	; (8000614 <HAL_GetUID+0x1c>)
 8000606:	681b      	ldr	r3, [r3, #0]
 8000608:	6083      	str	r3, [r0, #8]
 800060a:	4770      	bx	lr
 800060c:	1ffff7e8 	.word	0x1ffff7e8
 8000610:	1ffff7ec 	.word	0x1ffff7ec
 8000614:	1ffff7f0 	.word	0x1ffff7f0

08000618 <HAL_ADC_ConvCpltCallback>:
 8000618:	4770      	bx	lr

0800061a <HAL_ADC_LevelOutOfWindowCallback>:
 800061a:	4770      	bx	lr

0800061c <HAL_ADC_IRQHandler>:
  assert_param(IS_FUNCTIONAL_STATE(hadc->Init.ContinuousConvMode));
  assert_param(IS_ADC_REGULAR_NB_CONV(hadc->Init.NbrOfConversion));
  
  
  /* ========== Check End of Conversion flag for regular group ========== */
  if(__HAL_ADC_GET_IT_SOURCE(hadc, ADC_IT_EOC))
 800061c:	6803      	ldr	r3, [r0, #0]
{
 800061e:	b510      	push	{r4, lr}
  if(__HAL_ADC_GET_IT_SOURCE(hadc, ADC_IT_EOC))
 8000620:	685a      	ldr	r2, [r3, #4]
{
 8000622:	4604      	mov	r4, r0
  if(__HAL_ADC_GET_IT_SOURCE(hadc, ADC_IT_EOC))
 8000624:	0690      	lsls	r0, r2, #26
 8000626:	d527      	bpl.n	8000678 <HAL_ADC_IRQHandler+0x5c>
  {
    if(__HAL_ADC_GET_FLAG(hadc, ADC_FLAG_EOC) )
 8000628:	681a      	ldr	r2, [r3, #0]
 800062a:	0791      	lsls	r1, r2, #30
 800062c:	d524      	bpl.n	8000678 <HAL_ADC_IRQHandler+0x5c>
    {
      /* Update state machine on conversion status if not in error state */
      if (HAL_IS_BIT_CLR(hadc->State, HAL_ADC_STATE_ERROR_INTERNAL))
 800062e:	6aa2      	ldr	r2, [r4, #40]	; 0x28
 8000630:	06d2      	lsls	r2, r2, #27
      {
        /* Set ADC state */
        SET_BIT(hadc->State, HAL_ADC_STATE_REG_EOC); 
 8000632:	bf5e      	ittt	pl
 8000634:	6aa2      	ldrpl	r2, [r4, #40]	; 0x28
 8000636:	f442 7200 	orrpl.w	r2, r2, #512	; 0x200
 800063a:	62a2      	strpl	r2, [r4, #40]	; 0x28
      /* Determine whether any further conversion upcoming on group regular   */
      /* by external trigger, continuous mode or scan sequence on going.      */
      /* Note: On STM32F1 devices, in case of sequencer enabled               */
      /*       (several ranks selected), end of conversion flag is raised     */
      /*       at the end of the sequence.                                    */
      if(ADC_IS_SOFTWARE_START_REGULAR(hadc)        && 
 800063c:	689a      	ldr	r2, [r3, #8]
 800063e:	f402 2260 	and.w	r2, r2, #917504	; 0xe0000
 8000642:	f5b2 2f60 	cmp.w	r2, #917504	; 0xe0000
 8000646:	d110      	bne.n	800066a <HAL_ADC_IRQHandler+0x4e>
 8000648:	68e2      	ldr	r2, [r4, #12]
 800064a:	b972      	cbnz	r2, 800066a <HAL_ADC_IRQHandler+0x4e>
         (hadc->Init.ContinuousConvMode == DISABLE)   )
      {
        /* Disable ADC end of conversion interrupt on group regular */
        __HAL_ADC_DISABLE_IT(hadc, ADC_IT_EOC);
 800064c:	685a      	ldr	r2, [r3, #4]
 800064e:	f022 0220 	bic.w	r2, r2, #32
 8000652:	605a      	str	r2, [r3, #4]
        
        /* Set ADC state */
        CLEAR_BIT(hadc->State, HAL_ADC_STATE_REG_BUSY);   
 8000654:	6aa3      	ldr	r3, [r4, #40]	; 0x28
 8000656:	f423 7380 	bic.w	r3, r3, #256	; 0x100
 800065a:	62a3      	str	r3, [r4, #40]	; 0x28
        
        if (HAL_IS_BIT_CLR(hadc->State, HAL_ADC_STATE_INJ_BUSY))
 800065c:	6aa3      	ldr	r3, [r4, #40]	; 0x28
 800065e:	04db      	lsls	r3, r3, #19
        {
          SET_BIT(hadc->State, HAL_ADC_STATE_READY);
 8000660:	bf5e      	ittt	pl
 8000662:	6aa3      	ldrpl	r3, [r4, #40]	; 0x28
 8000664:	f043 0301 	orrpl.w	r3, r3, #1
 8000668:	62a3      	strpl	r3, [r4, #40]	; 0x28
        }
      }

      /* Conversion complete callback */
      HAL_ADC_ConvCpltCallback(hadc);
 800066a:	4620      	mov	r0, r4
 800066c:	f7ff ffd4 	bl	8000618 <HAL_ADC_ConvCpltCallback>
      
      /* Clear regular group conversion flag */
      __HAL_ADC_CLEAR_FLAG(hadc, ADC_FLAG_STRT | ADC_FLAG_EOC);
 8000670:	f06f 0212 	mvn.w	r2, #18
 8000674:	6823      	ldr	r3, [r4, #0]
 8000676:	601a      	str	r2, [r3, #0]
    }
  }
  
  /* ========== Check End of Conversion flag for injected group ========== */
  if(__HAL_ADC_GET_IT_SOURCE(hadc, ADC_IT_JEOC))
 8000678:	6823      	ldr	r3, [r4, #0]
 800067a:	685a      	ldr	r2, [r3, #4]
 800067c:	0610      	lsls	r0, r2, #24
 800067e:	d530      	bpl.n	80006e2 <HAL_ADC_IRQHandler+0xc6>
  {
    if(__HAL_ADC_GET_FLAG(hadc, ADC_FLAG_JEOC))
 8000680:	681a      	ldr	r2, [r3, #0]
 8000682:	0751      	lsls	r1, r2, #29
 8000684:	d52d      	bpl.n	80006e2 <HAL_ADC_IRQHandler+0xc6>
    {
      /* Update state machine on conversion status if not in error state */
      if (HAL_IS_BIT_CLR(hadc->State, HAL_ADC_STATE_ERROR_INTERNAL))
 8000686:	6aa2      	ldr	r2, [r4, #40]	; 0x28
 8000688:	06d2      	lsls	r2, r2, #27
      {
        /* Set ADC state */
        SET_BIT(hadc->State, HAL_ADC_STATE_INJ_EOC);
 800068a:	bf5e      	ittt	pl
 800068c:	6aa2      	ldrpl	r2, [r4, #40]	; 0x28
 800068e:	f442 5200 	orrpl.w	r2, r2, #8192	; 0x2000
 8000692:	62a2      	strpl	r2, [r4, #40]	; 0x28
      /* conversion from group regular (same conditions as group regular      */
      /* interruption disabling above).                                       */
      /* Note: On STM32F1 devices, in case of sequencer enabled               */
      /*       (several ranks selected), end of conversion flag is raised     */
      /*       at the end of the sequence.                                    */
      if(ADC_IS_SOFTWARE_START_INJECTED(hadc)                     || 
 8000694:	689a      	ldr	r2, [r3, #8]
 8000696:	f402 42e0 	and.w	r2, r2, #28672	; 0x7000
 800069a:	f5b2 4fe0 	cmp.w	r2, #28672	; 0x7000
 800069e:	d00a      	beq.n	80006b6 <HAL_ADC_IRQHandler+0x9a>
         (HAL_IS_BIT_CLR(hadc->Instance->CR1, ADC_CR1_JAUTO) &&     
 80006a0:	685a      	ldr	r2, [r3, #4]
      if(ADC_IS_SOFTWARE_START_INJECTED(hadc)                     || 
 80006a2:	0550      	lsls	r0, r2, #21
 80006a4:	d416      	bmi.n	80006d4 <HAL_ADC_IRQHandler+0xb8>
         (ADC_IS_SOFTWARE_START_REGULAR(hadc)        &&
 80006a6:	689a      	ldr	r2, [r3, #8]
 80006a8:	f402 2260 	and.w	r2, r2, #917504	; 0xe0000
         (HAL_IS_BIT_CLR(hadc->Instance->CR1, ADC_CR1_JAUTO) &&     
 80006ac:	f5b2 2f60 	cmp.w	r2, #917504	; 0xe0000
 80006b0:	d110      	bne.n	80006d4 <HAL_ADC_IRQHandler+0xb8>
         (ADC_IS_SOFTWARE_START_REGULAR(hadc)        &&
 80006b2:	68e2      	ldr	r2, [r4, #12]
 80006b4:	b972      	cbnz	r2, 80006d4 <HAL_ADC_IRQHandler+0xb8>
          (hadc->Init.ContinuousConvMode == DISABLE)   )        )   )
      {
        /* Disable ADC end of conversion interrupt on group injected */
        __HAL_ADC_DISABLE_IT(hadc, ADC_IT_JEOC);
 80006b6:	685a      	ldr	r2, [r3, #4]
 80006b8:	f022 0280 	bic.w	r2, r2, #128	; 0x80
 80006bc:	605a      	str	r2, [r3, #4]
        
        /* Set ADC state */
        CLEAR_BIT(hadc->State, HAL_ADC_STATE_INJ_BUSY);   
 80006be:	6aa3      	ldr	r3, [r4, #40]	; 0x28
 80006c0:	f423 5380 	bic.w	r3, r3, #4096	; 0x1000
 80006c4:	62a3      	str	r3, [r4, #40]	; 0x28

        if (HAL_IS_BIT_CLR(hadc->State, HAL_ADC_STATE_REG_BUSY))
 80006c6:	6aa3      	ldr	r3, [r4, #40]	; 0x28
 80006c8:	05d9      	lsls	r1, r3, #23
        { 
          SET_BIT(hadc->State, HAL_ADC_STATE_READY);
 80006ca:	bf5e      	ittt	pl
 80006cc:	6aa3      	ldrpl	r3, [r4, #40]	; 0x28
 80006ce:	f043 0301 	orrpl.w	r3, r3, #1
 80006d2:	62a3      	strpl	r3, [r4, #40]	; 0x28
        }
      }

      /* Conversion complete callback */ 
      HAL_ADCEx_InjectedConvCpltCallback(hadc);
 80006d4:	4620      	mov	r0, r4
 80006d6:	f003 fa39 	bl	8003b4c <HAL_ADCEx_InjectedConvCpltCallback>
      
      /* Clear injected group conversion flag */
      __HAL_ADC_CLEAR_FLAG(hadc, (ADC_FLAG_JSTRT | ADC_FLAG_JEOC));
 80006da:	f06f 020c 	mvn.w	r2, #12
 80006de:	6823      	ldr	r3, [r4, #0]
 80006e0:	601a      	str	r2, [r3, #0]
    }
  }
   
  /* ========== Check Analog watchdog flags ========== */
  if(__HAL_ADC_GET_IT_SOURCE(hadc, ADC_IT_AWD))
 80006e2:	6823      	ldr	r3, [r4, #0]
 80006e4:	685a      	ldr	r2, [r3, #4]
 80006e6:	0652      	lsls	r2, r2, #25
 80006e8:	d50d      	bpl.n	8000706 <HAL_ADC_IRQHandler+0xea>
  {
    if(__HAL_ADC_GET_FLAG(hadc, ADC_FLAG_AWD))
 80006ea:	681b      	ldr	r3, [r3, #0]
 80006ec:	07db      	lsls	r3, r3, #31
 80006ee:	d50a      	bpl.n	8000706 <HAL_ADC_IRQHandler+0xea>
    {
      /* Set ADC state */
      SET_BIT(hadc->State, HAL_ADC_STATE_AWD1);
 80006f0:	6aa3      	ldr	r3, [r4, #40]	; 0x28
      
      /* Level out of window callback */ 
      HAL_ADC_LevelOutOfWindowCallback(hadc);
 80006f2:	4620      	mov	r0, r4
      SET_BIT(hadc->State, HAL_ADC_STATE_AWD1);
 80006f4:	f443 3380 	orr.w	r3, r3, #65536	; 0x10000
 80006f8:	62a3      	str	r3, [r4, #40]	; 0x28
      HAL_ADC_LevelOutOfWindowCallback(hadc);
 80006fa:	f7ff ff8e 	bl	800061a <HAL_ADC_LevelOutOfWindowCallback>
      
      /* Clear the ADC analog watchdog flag */
      __HAL_ADC_CLEAR_FLAG(hadc, ADC_FLAG_AWD);
 80006fe:	f06f 0201 	mvn.w	r2, #1
 8000702:	6823      	ldr	r3, [r4, #0]
 8000704:	601a      	str	r2, [r3, #0]
 8000706:	bd10      	pop	{r4, pc}

08000708 <ADC_Enable>:
  * @retval HAL status.
  */
HAL_StatusTypeDef ADC_Enable(ADC_HandleTypeDef* hadc)
{
  uint32_t tickstart = 0U;
  __IO uint32_t wait_loop_index = 0U;
 8000708:	2300      	movs	r3, #0
{
 800070a:	b573      	push	{r0, r1, r4, r5, r6, lr}
  __IO uint32_t wait_loop_index = 0U;
 800070c:	9301      	str	r3, [sp, #4]
  
  /* ADC enable and wait for ADC ready (in case of ADC is disabled or         */
  /* enabling phase not yet completed: flag ADC ready not yet set).           */
  /* Timeout implemented to not be stuck if ADC cannot be enabled (possible   */
  /* causes: ADC clock not running, ...).                                     */
  if (ADC_IS_ENABLE(hadc) == RESET)
 800070e:	6803      	ldr	r3, [r0, #0]
{
 8000710:	4604      	mov	r4, r0
  if (ADC_IS_ENABLE(hadc) == RESET)
 8000712:	689a      	ldr	r2, [r3, #8]
 8000714:	07d2      	lsls	r2, r2, #31
 8000716:	d502      	bpl.n	800071e <ADC_Enable+0x16>
      }
    }
  }
   
  /* Return HAL status */
  return HAL_OK;
 8000718:	2000      	movs	r0, #0
}
 800071a:	b002      	add	sp, #8
 800071c:	bd70      	pop	{r4, r5, r6, pc}
    __HAL_ADC_ENABLE(hadc);
 800071e:	689a      	ldr	r2, [r3, #8]
 8000720:	f042 0201 	orr.w	r2, r2, #1
 8000724:	609a      	str	r2, [r3, #8]
    wait_loop_index = (ADC_STAB_DELAY_US * (SystemCoreClock / 1000000U));
 8000726:	4b12      	ldr	r3, [pc, #72]	; (8000770 <ADC_Enable+0x68>)
 8000728:	4a12      	ldr	r2, [pc, #72]	; (8000774 <ADC_Enable+0x6c>)
 800072a:	681b      	ldr	r3, [r3, #0]
 800072c:	fbb3 f3f2 	udiv	r3, r3, r2
      wait_loop_index--;
 8000730:	9301      	str	r3, [sp, #4]
    while(wait_loop_index != 0U)
 8000732:	9b01      	ldr	r3, [sp, #4]
 8000734:	b9c3      	cbnz	r3, 8000768 <ADC_Enable+0x60>
    tickstart = HAL_GetTick();
 8000736:	f7ff ff59 	bl	80005ec <HAL_GetTick>
 800073a:	4606      	mov	r6, r0
    while(ADC_IS_ENABLE(hadc) == RESET)
 800073c:	6823      	ldr	r3, [r4, #0]
 800073e:	689d      	ldr	r5, [r3, #8]
 8000740:	f015 0501 	ands.w	r5, r5, #1
 8000744:	d1e8      	bne.n	8000718 <ADC_Enable+0x10>
      if((HAL_GetTick() - tickstart) > ADC_ENABLE_TIMEOUT)
 8000746:	f7ff ff51 	bl	80005ec <HAL_GetTick>
 800074a:	1b80      	subs	r0, r0, r6
 800074c:	2802      	cmp	r0, #2
 800074e:	d9f5      	bls.n	800073c <ADC_Enable+0x34>
        SET_BIT(hadc->State, HAL_ADC_STATE_ERROR_INTERNAL);
 8000750:	6aa3      	ldr	r3, [r4, #40]	; 0x28
        __HAL_UNLOCK(hadc);
 8000752:	f884 5024 	strb.w	r5, [r4, #36]	; 0x24
        SET_BIT(hadc->State, HAL_ADC_STATE_ERROR_INTERNAL);
 8000756:	f043 0310 	orr.w	r3, r3, #16
 800075a:	62a3      	str	r3, [r4, #40]	; 0x28
        SET_BIT(hadc->ErrorCode, HAL_ADC_ERROR_INTERNAL);
 800075c:	6ae3      	ldr	r3, [r4, #44]	; 0x2c
        __HAL_UNLOCK(hadc);
 800075e:	2001      	movs	r0, #1
        SET_BIT(hadc->ErrorCode, HAL_ADC_ERROR_INTERNAL);
 8000760:	f043 0301 	orr.w	r3, r3, #1
 8000764:	62e3      	str	r3, [r4, #44]	; 0x2c
 8000766:	e7d8      	b.n	800071a <ADC_Enable+0x12>
      wait_loop_index--;
 8000768:	9b01      	ldr	r3, [sp, #4]
 800076a:	3b01      	subs	r3, #1
 800076c:	e7e0      	b.n	8000730 <ADC_Enable+0x28>
 800076e:	bf00      	nop
 8000770:	2000000c 	.word	0x2000000c
 8000774:	000f4240 	.word	0x000f4240

08000778 <ADC_ConversionStop_Disable>:
  *         stopped to disable the ADC.
  * @param  hadc: ADC handle
  * @retval HAL status.
  */
HAL_StatusTypeDef ADC_ConversionStop_Disable(ADC_HandleTypeDef* hadc)
{
 8000778:	b538      	push	{r3, r4, r5, lr}
  uint32_t tickstart = 0U;
  
  /* Verification if ADC is not already disabled */
  if (ADC_IS_ENABLE(hadc) != RESET)
 800077a:	6803      	ldr	r3, [r0, #0]
{
 800077c:	4604      	mov	r4, r0
  if (ADC_IS_ENABLE(hadc) != RESET)
 800077e:	689a      	ldr	r2, [r3, #8]
 8000780:	07d2      	lsls	r2, r2, #31
 8000782:	d401      	bmi.n	8000788 <ADC_ConversionStop_Disable+0x10>
      }
    }
  }
  
  /* Return HAL status */
  return HAL_OK;
 8000784:	2000      	movs	r0, #0
 8000786:	bd38      	pop	{r3, r4, r5, pc}
    __HAL_ADC_DISABLE(hadc);
 8000788:	689a      	ldr	r2, [r3, #8]
 800078a:	f022 0201 	bic.w	r2, r2, #1
 800078e:	609a      	str	r2, [r3, #8]
    tickstart = HAL_GetTick();
 8000790:	f7ff ff2c 	bl	80005ec <HAL_GetTick>
 8000794:	4605      	mov	r5, r0
    while(ADC_IS_ENABLE(hadc) != RESET)
 8000796:	6823      	ldr	r3, [r4, #0]
 8000798:	689b      	ldr	r3, [r3, #8]
 800079a:	07db      	lsls	r3, r3, #31
 800079c:	d5f2      	bpl.n	8000784 <ADC_ConversionStop_Disable+0xc>
      if((HAL_GetTick() - tickstart) > ADC_DISABLE_TIMEOUT)
 800079e:	f7ff ff25 	bl	80005ec <HAL_GetTick>
 80007a2:	1b40      	subs	r0, r0, r5
 80007a4:	2802      	cmp	r0, #2
 80007a6:	d9f6      	bls.n	8000796 <ADC_ConversionStop_Disable+0x1e>
        SET_BIT(hadc->State, HAL_ADC_STATE_ERROR_INTERNAL);
 80007a8:	6aa3      	ldr	r3, [r4, #40]	; 0x28
        SET_BIT(hadc->ErrorCode, HAL_ADC_ERROR_INTERNAL);
 80007aa:	2001      	movs	r0, #1
        SET_BIT(hadc->State, HAL_ADC_STATE_ERROR_INTERNAL);
 80007ac:	f043 0310 	orr.w	r3, r3, #16
 80007b0:	62a3      	str	r3, [r4, #40]	; 0x28
        SET_BIT(hadc->ErrorCode, HAL_ADC_ERROR_INTERNAL);
 80007b2:	6ae3      	ldr	r3, [r4, #44]	; 0x2c
 80007b4:	f043 0301 	orr.w	r3, r3, #1
 80007b8:	62e3      	str	r3, [r4, #44]	; 0x2c
 80007ba:	bd38      	pop	{r3, r4, r5, pc}

080007bc <HAL_ADC_Init>:
{
 80007bc:	b570      	push	{r4, r5, r6, lr}
  if(hadc == NULL)
 80007be:	4604      	mov	r4, r0
 80007c0:	2800      	cmp	r0, #0
 80007c2:	d071      	beq.n	80008a8 <HAL_ADC_Init+0xec>
  if (hadc->State == HAL_ADC_STATE_RESET)
 80007c4:	6a83      	ldr	r3, [r0, #40]	; 0x28
 80007c6:	b923      	cbnz	r3, 80007d2 <HAL_ADC_Init+0x16>
    ADC_CLEAR_ERRORCODE(hadc);
 80007c8:	62c3      	str	r3, [r0, #44]	; 0x2c
    hadc->Lock = HAL_UNLOCKED;
 80007ca:	f880 3024 	strb.w	r3, [r0, #36]	; 0x24
    HAL_ADC_MspInit(hadc);
 80007ce:	f003 fba5 	bl	8003f1c <HAL_ADC_MspInit>
  tmp_hal_status = ADC_ConversionStop_Disable(hadc);
 80007d2:	4620      	mov	r0, r4
 80007d4:	f7ff ffd0 	bl	8000778 <ADC_ConversionStop_Disable>
  if (HAL_IS_BIT_CLR(hadc->State, HAL_ADC_STATE_ERROR_INTERNAL) &&
 80007d8:	6aa3      	ldr	r3, [r4, #40]	; 0x28
 80007da:	f013 0f10 	tst.w	r3, #16
    ADC_STATE_CLR_SET(hadc->State,
 80007de:	6aa3      	ldr	r3, [r4, #40]	; 0x28
  if (HAL_IS_BIT_CLR(hadc->State, HAL_ADC_STATE_ERROR_INTERNAL) &&
 80007e0:	d164      	bne.n	80008ac <HAL_ADC_Init+0xf0>
 80007e2:	2800      	cmp	r0, #0
 80007e4:	d162      	bne.n	80008ac <HAL_ADC_Init+0xf0>
    tmp_cr2 |= (hadc->Init.DataAlign                               |
 80007e6:	69e1      	ldr	r1, [r4, #28]
    ADC_STATE_CLR_SET(hadc->State,
 80007e8:	f423 5388 	bic.w	r3, r3, #4352	; 0x1100
    tmp_cr2 |= (hadc->Init.DataAlign                               |
 80007ec:	6862      	ldr	r2, [r4, #4]
    ADC_STATE_CLR_SET(hadc->State,
 80007ee:	f023 0302 	bic.w	r3, r3, #2
 80007f2:	f043 0302 	orr.w	r3, r3, #2
    tmp_cr2 |= (hadc->Init.DataAlign                               |
 80007f6:	430a      	orrs	r2, r1
    tmp_cr1 |= (ADC_CR1_SCAN_SET(hadc->Init.ScanConvMode));
 80007f8:	68a1      	ldr	r1, [r4, #8]
    ADC_STATE_CLR_SET(hadc->State,
 80007fa:	62a3      	str	r3, [r4, #40]	; 0x28
                ADC_CR2_CONTINUOUS(hadc->Init.ContinuousConvMode)   );
 80007fc:	68e3      	ldr	r3, [r4, #12]
    tmp_cr1 |= (ADC_CR1_SCAN_SET(hadc->Init.ScanConvMode));
 80007fe:	f5b1 7f80 	cmp.w	r1, #256	; 0x100
                ADC_CFGR_EXTSEL(hadc, hadc->Init.ExternalTrigConv) |
 8000802:	ea42 0243 	orr.w	r2, r2, r3, lsl #1
    tmp_cr1 |= (ADC_CR1_SCAN_SET(hadc->Init.ScanConvMode));
 8000806:	d038      	beq.n	800087a <HAL_ADC_Init+0xbe>
 8000808:	2901      	cmp	r1, #1
 800080a:	bf14      	ite	ne
 800080c:	4606      	movne	r6, r0
 800080e:	f44f 7680 	moveq.w	r6, #256	; 0x100
    if (hadc->Init.DiscontinuousConvMode == ENABLE)
 8000812:	6965      	ldr	r5, [r4, #20]
 8000814:	2d01      	cmp	r5, #1
 8000816:	d107      	bne.n	8000828 <HAL_ADC_Init+0x6c>
      if (hadc->Init.ContinuousConvMode == DISABLE)
 8000818:	2b00      	cmp	r3, #0
 800081a:	d130      	bne.n	800087e <HAL_ADC_Init+0xc2>
        SET_BIT(tmp_cr1, ADC_CR1_DISCEN                                            |
 800081c:	69a3      	ldr	r3, [r4, #24]
 800081e:	3b01      	subs	r3, #1
 8000820:	ea46 3543 	orr.w	r5, r6, r3, lsl #13
 8000824:	f445 6600 	orr.w	r6, r5, #2048	; 0x800
      MODIFY_REG(hadc->Instance->CR1,
 8000828:	6823      	ldr	r3, [r4, #0]
    if (ADC_CR1_SCAN_SET(hadc->Init.ScanConvMode) == ADC_SCAN_ENABLE)
 800082a:	f5b1 7f80 	cmp.w	r1, #256	; 0x100
      MODIFY_REG(hadc->Instance->CR1,
 800082e:	685d      	ldr	r5, [r3, #4]
 8000830:	f425 4569 	bic.w	r5, r5, #59648	; 0xe900
 8000834:	ea45 0506 	orr.w	r5, r5, r6
 8000838:	605d      	str	r5, [r3, #4]
      MODIFY_REG(hadc->Instance->CR2,
 800083a:	689e      	ldr	r6, [r3, #8]
 800083c:	4d1d      	ldr	r5, [pc, #116]	; (80008b4 <HAL_ADC_Init+0xf8>)
 800083e:	ea05 0506 	and.w	r5, r5, r6
 8000842:	ea45 0502 	orr.w	r5, r5, r2
 8000846:	609d      	str	r5, [r3, #8]
    if (ADC_CR1_SCAN_SET(hadc->Init.ScanConvMode) == ADC_SCAN_ENABLE)
 8000848:	d001      	beq.n	800084e <HAL_ADC_Init+0x92>
 800084a:	2901      	cmp	r1, #1
 800084c:	d120      	bne.n	8000890 <HAL_ADC_Init+0xd4>
      tmp_sqr1 = ADC_SQR1_L_SHIFT(hadc->Init.NbrOfConversion);
 800084e:	6921      	ldr	r1, [r4, #16]
 8000850:	3901      	subs	r1, #1
 8000852:	0509      	lsls	r1, r1, #20
    MODIFY_REG(hadc->Instance->SQR1,
 8000854:	6add      	ldr	r5, [r3, #44]	; 0x2c
 8000856:	f425 0570 	bic.w	r5, r5, #15728640	; 0xf00000
 800085a:	4329      	orrs	r1, r5
 800085c:	62d9      	str	r1, [r3, #44]	; 0x2c
    if (READ_BIT(hadc->Instance->CR2, ~(ADC_CR2_ADON | ADC_CR2_DMA |
 800085e:	6899      	ldr	r1, [r3, #8]
 8000860:	4b15      	ldr	r3, [pc, #84]	; (80008b8 <HAL_ADC_Init+0xfc>)
 8000862:	400b      	ands	r3, r1
 8000864:	429a      	cmp	r2, r3
 8000866:	d115      	bne.n	8000894 <HAL_ADC_Init+0xd8>
      ADC_CLEAR_ERRORCODE(hadc);
 8000868:	2300      	movs	r3, #0
 800086a:	62e3      	str	r3, [r4, #44]	; 0x2c
      ADC_STATE_CLR_SET(hadc->State,
 800086c:	6aa3      	ldr	r3, [r4, #40]	; 0x28
 800086e:	f023 0303 	bic.w	r3, r3, #3
 8000872:	f043 0301 	orr.w	r3, r3, #1
 8000876:	62a3      	str	r3, [r4, #40]	; 0x28
 8000878:	bd70      	pop	{r4, r5, r6, pc}
    tmp_cr1 |= (ADC_CR1_SCAN_SET(hadc->Init.ScanConvMode));
 800087a:	460e      	mov	r6, r1
 800087c:	e7c9      	b.n	8000812 <HAL_ADC_Init+0x56>
        SET_BIT(hadc->State, HAL_ADC_STATE_ERROR_CONFIG);
 800087e:	6aa3      	ldr	r3, [r4, #40]	; 0x28
 8000880:	f043 0320 	orr.w	r3, r3, #32
 8000884:	62a3      	str	r3, [r4, #40]	; 0x28
        SET_BIT(hadc->ErrorCode, HAL_ADC_ERROR_INTERNAL);
 8000886:	6ae3      	ldr	r3, [r4, #44]	; 0x2c
 8000888:	f043 0301 	orr.w	r3, r3, #1
 800088c:	62e3      	str	r3, [r4, #44]	; 0x2c
 800088e:	e7cb      	b.n	8000828 <HAL_ADC_Init+0x6c>
  uint32_t tmp_sqr1 = 0U;
 8000890:	2100      	movs	r1, #0
 8000892:	e7df      	b.n	8000854 <HAL_ADC_Init+0x98>
      ADC_STATE_CLR_SET(hadc->State,
 8000894:	6aa3      	ldr	r3, [r4, #40]	; 0x28
 8000896:	f023 0312 	bic.w	r3, r3, #18
 800089a:	f043 0310 	orr.w	r3, r3, #16
 800089e:	62a3      	str	r3, [r4, #40]	; 0x28
      SET_BIT(hadc->ErrorCode, HAL_ADC_ERROR_INTERNAL);
 80008a0:	6ae3      	ldr	r3, [r4, #44]	; 0x2c
 80008a2:	f043 0301 	orr.w	r3, r3, #1
 80008a6:	62e3      	str	r3, [r4, #44]	; 0x2c
    return HAL_ERROR;
 80008a8:	2001      	movs	r0, #1
}
 80008aa:	bd70      	pop	{r4, r5, r6, pc}
    SET_BIT(hadc->State, HAL_ADC_STATE_ERROR_INTERNAL);
 80008ac:	f043 0310 	orr.w	r3, r3, #16
 80008b0:	62a3      	str	r3, [r4, #40]	; 0x28
 80008b2:	e7f9      	b.n	80008a8 <HAL_ADC_Init+0xec>
 80008b4:	ffe1f7fd 	.word	0xffe1f7fd
 80008b8:	ff1f0efe 	.word	0xff1f0efe

080008bc <HAL_ADCEx_InjectedStart_IT>:
  
  /* Check the parameters */
  assert_param(IS_ADC_ALL_INSTANCE(hadc->Instance));
  
  /* Process locked */
  __HAL_LOCK(hadc);
 80008bc:	f890 3024 	ldrb.w	r3, [r0, #36]	; 0x24
{
 80008c0:	b510      	push	{r4, lr}
  __HAL_LOCK(hadc);
 80008c2:	2b01      	cmp	r3, #1
{
 80008c4:	4604      	mov	r4, r0
  __HAL_LOCK(hadc);
 80008c6:	d04e      	beq.n	8000966 <HAL_ADCEx_InjectedStart_IT+0xaa>
 80008c8:	2301      	movs	r3, #1
 80008ca:	f880 3024 	strb.w	r3, [r0, #36]	; 0x24
    
  /* Enable the ADC peripheral */
  tmp_hal_status = ADC_Enable(hadc);
 80008ce:	f7ff ff1b 	bl	8000708 <ADC_Enable>
  
  /* Start conversion if ADC is effectively enabled */
  if (tmp_hal_status == HAL_OK)
 80008d2:	2800      	cmp	r0, #0
 80008d4:	d143      	bne.n	800095e <HAL_ADCEx_InjectedStart_IT+0xa2>
  {
    /* Set ADC state                                                          */
    /* - Clear state bitfield related to injected group conversion results    */
    /* - Set state bitfield related to injected operation                     */
    ADC_STATE_CLR_SET(hadc->State,
 80008d6:	6aa3      	ldr	r3, [r4, #40]	; 0x28
                      HAL_ADC_STATE_READY | HAL_ADC_STATE_INJ_EOC,
                      HAL_ADC_STATE_INJ_BUSY);
    
    /* Case of independent mode or multimode (for devices with several ADCs): */
    /* Set multimode state.                                                   */
    if (ADC_NONMULTIMODE_OR_MULTIMODEMASTER(hadc))
 80008d8:	4a24      	ldr	r2, [pc, #144]	; (800096c <HAL_ADCEx_InjectedStart_IT+0xb0>)
    ADC_STATE_CLR_SET(hadc->State,
 80008da:	f423 5340 	bic.w	r3, r3, #12288	; 0x3000
 80008de:	f023 0301 	bic.w	r3, r3, #1
 80008e2:	f443 5380 	orr.w	r3, r3, #4096	; 0x1000
 80008e6:	62a3      	str	r3, [r4, #40]	; 0x28
    if (ADC_NONMULTIMODE_OR_MULTIMODEMASTER(hadc))
 80008e8:	6823      	ldr	r3, [r4, #0]
 80008ea:	4293      	cmp	r3, r2
 80008ec:	d105      	bne.n	80008fa <HAL_ADCEx_InjectedStart_IT+0x3e>
 80008ee:	f5a2 6280 	sub.w	r2, r2, #1024	; 0x400
 80008f2:	6852      	ldr	r2, [r2, #4]
 80008f4:	f412 2f70 	tst.w	r2, #983040	; 0xf0000
 80008f8:	d129      	bne.n	800094e <HAL_ADCEx_InjectedStart_IT+0x92>
    {
      CLEAR_BIT(hadc->State, HAL_ADC_STATE_MULTIMODE_SLAVE);
 80008fa:	6aa2      	ldr	r2, [r4, #40]	; 0x28
 80008fc:	f422 1280 	bic.w	r2, r2, #1048576	; 0x100000
    }
    else
    {
      SET_BIT(hadc->State, HAL_ADC_STATE_MULTIMODE_SLAVE);
 8000900:	62a2      	str	r2, [r4, #40]	; 0x28
    
    /* Check if a regular conversion is ongoing */
    /* Note: On this device, there is no ADC error code fields related to     */
    /*       conversions on group injected only. In case of conversion on     */
    /*       going on group regular, no error code is reset.                  */
    if (HAL_IS_BIT_CLR(hadc->State, HAL_ADC_STATE_REG_BUSY))
 8000902:	6aa2      	ldr	r2, [r4, #40]	; 0x28
 8000904:	f412 7280 	ands.w	r2, r2, #256	; 0x100
    {
      /* Reset ADC all error code fields */
      ADC_CLEAR_ERRORCODE(hadc);
 8000908:	bf08      	it	eq
 800090a:	62e2      	streq	r2, [r4, #44]	; 0x2c
    }
    
    /* Process unlocked */
    /* Unlock before starting ADC conversions: in case of potential           */
    /* interruption, to let the process to ADC IRQ Handler.                   */
    __HAL_UNLOCK(hadc);
 800090c:	2200      	movs	r2, #0
 800090e:	f884 2024 	strb.w	r2, [r4, #36]	; 0x24
    
    /* Clear injected group conversion flag */
    /* (To ensure of no unknown state from potential previous ADC operations) */
    __HAL_ADC_CLEAR_FLAG(hadc, ADC_FLAG_JEOC);
 8000912:	f06f 0204 	mvn.w	r2, #4
 8000916:	601a      	str	r2, [r3, #0]
    
    /* Enable end of conversion interrupt for injected channels */
    __HAL_ADC_ENABLE_IT(hadc, ADC_IT_JEOC);
 8000918:	685a      	ldr	r2, [r3, #4]
 800091a:	f042 0280 	orr.w	r2, r2, #128	; 0x80
 800091e:	605a      	str	r2, [r3, #4]
    /* and if automatic injected conversion is disabled.                      */
    /* If external trigger has been selected, conversion will start at next   */
    /* trigger event.                                                         */
    /* If automatic injected conversion is enabled, conversion will start     */
    /* after next regular group conversion.                                   */
    if (HAL_IS_BIT_CLR(hadc->Instance->CR1, ADC_CR1_JAUTO))
 8000920:	685a      	ldr	r2, [r3, #4]
 8000922:	0552      	lsls	r2, r2, #21
 8000924:	d420      	bmi.n	8000968 <HAL_ADCEx_InjectedStart_IT+0xac>
    {
      if (ADC_IS_SOFTWARE_START_INJECTED(hadc)     &&
 8000926:	689a      	ldr	r2, [r3, #8]
 8000928:	f402 42e0 	and.w	r2, r2, #28672	; 0x7000
 800092c:	f5b2 4fe0 	cmp.w	r2, #28672	; 0x7000
 8000930:	d111      	bne.n	8000956 <HAL_ADCEx_InjectedStart_IT+0x9a>
 8000932:	4a0e      	ldr	r2, [pc, #56]	; (800096c <HAL_ADCEx_InjectedStart_IT+0xb0>)
 8000934:	4293      	cmp	r3, r2
 8000936:	d105      	bne.n	8000944 <HAL_ADCEx_InjectedStart_IT+0x88>
          ADC_NONMULTIMODE_OR_MULTIMODEMASTER(hadc)  )
 8000938:	f5a2 6280 	sub.w	r2, r2, #1024	; 0x400
 800093c:	6852      	ldr	r2, [r2, #4]
      if (ADC_IS_SOFTWARE_START_INJECTED(hadc)     &&
 800093e:	f412 2f70 	tst.w	r2, #983040	; 0xf0000
 8000942:	d108      	bne.n	8000956 <HAL_ADCEx_InjectedStart_IT+0x9a>
      {
        /* Start ADC conversion on injected group with SW start */
        SET_BIT(hadc->Instance->CR2, (ADC_CR2_JSWSTART | ADC_CR2_JEXTTRIG));
 8000944:	689a      	ldr	r2, [r3, #8]
 8000946:	f442 1202 	orr.w	r2, r2, #2129920	; 0x208000
      }
      else
      {
        /* Start ADC conversion on injected group with external trigger */
        SET_BIT(hadc->Instance->CR2, ADC_CR2_JEXTTRIG);
 800094a:	609a      	str	r2, [r3, #8]
 800094c:	bd10      	pop	{r4, pc}
      SET_BIT(hadc->State, HAL_ADC_STATE_MULTIMODE_SLAVE);
 800094e:	6aa2      	ldr	r2, [r4, #40]	; 0x28
 8000950:	f442 1280 	orr.w	r2, r2, #1048576	; 0x100000
 8000954:	e7d4      	b.n	8000900 <HAL_ADCEx_InjectedStart_IT+0x44>
        SET_BIT(hadc->Instance->CR2, ADC_CR2_JEXTTRIG);
 8000956:	689a      	ldr	r2, [r3, #8]
 8000958:	f442 4200 	orr.w	r2, r2, #32768	; 0x8000
 800095c:	e7f5      	b.n	800094a <HAL_ADCEx_InjectedStart_IT+0x8e>
    }
  }
  else
  {
    /* Process unlocked */
    __HAL_UNLOCK(hadc);
 800095e:	2300      	movs	r3, #0
 8000960:	f884 3024 	strb.w	r3, [r4, #36]	; 0x24
 8000964:	bd10      	pop	{r4, pc}
  __HAL_LOCK(hadc);
 8000966:	2002      	movs	r0, #2
  }
  
  /* Return function status */
  return tmp_hal_status;
}
 8000968:	bd10      	pop	{r4, pc}
 800096a:	bf00      	nop
 800096c:	40012800 	.word	0x40012800

08000970 <HAL_ADCEx_InjectedGetValue>:
  /* Check the parameters */
  assert_param(IS_ADC_ALL_INSTANCE(hadc->Instance));
  assert_param(IS_ADC_INJECTED_RANK(InjectedRank));
  
  /* Get ADC converted value */ 
  switch(InjectedRank)
 8000970:	2903      	cmp	r1, #3
 8000972:	6803      	ldr	r3, [r0, #0]
 8000974:	d007      	beq.n	8000986 <HAL_ADCEx_InjectedGetValue+0x16>
 8000976:	2904      	cmp	r1, #4
 8000978:	d003      	beq.n	8000982 <HAL_ADCEx_InjectedGetValue+0x12>
 800097a:	2902      	cmp	r1, #2
 800097c:	d105      	bne.n	800098a <HAL_ADCEx_InjectedGetValue+0x1a>
      break;
    case ADC_INJECTED_RANK_3: 
      tmp_jdr = hadc->Instance->JDR3;
      break;
    case ADC_INJECTED_RANK_2: 
      tmp_jdr = hadc->Instance->JDR2;
 800097e:	6c18      	ldr	r0, [r3, #64]	; 0x40
      break;
 8000980:	4770      	bx	lr
      tmp_jdr = hadc->Instance->JDR4;
 8000982:	6c98      	ldr	r0, [r3, #72]	; 0x48
      break;
 8000984:	4770      	bx	lr
      tmp_jdr = hadc->Instance->JDR3;
 8000986:	6c58      	ldr	r0, [r3, #68]	; 0x44
      break;
 8000988:	4770      	bx	lr
    case ADC_INJECTED_RANK_1:
    default:
      tmp_jdr = hadc->Instance->JDR1;
 800098a:	6bd8      	ldr	r0, [r3, #60]	; 0x3c
      break;
  }
  
  /* Return ADC converted value */ 
  return tmp_jdr;
}
 800098c:	4770      	bx	lr
	...

08000990 <HAL_ADCEx_InjectedConfigChannel>:
  * @param  sConfigInjected: Structure of ADC injected group and ADC channel for
  *         injected group.
  * @retval None
  */
HAL_StatusTypeDef HAL_ADCEx_InjectedConfigChannel(ADC_HandleTypeDef* hadc, ADC_InjectionConfTypeDef* sConfigInjected)
{
 8000990:	b5f7      	push	{r0, r1, r2, r4, r5, r6, r7, lr}
 8000992:	4602      	mov	r2, r0
  HAL_StatusTypeDef tmp_hal_status = HAL_OK;
  __IO uint32_t wait_loop_index = 0U;
 8000994:	2000      	movs	r0, #0
    assert_param(IS_ADC_INJECTED_NB_CONV(sConfigInjected->InjectedNbrOfConversion));
    assert_param(IS_FUNCTIONAL_STATE(sConfigInjected->InjectedDiscontinuousConvMode));
  }
  
  /* Process locked */
  __HAL_LOCK(hadc);
 8000996:	f892 3024 	ldrb.w	r3, [r2, #36]	; 0x24
  __IO uint32_t wait_loop_index = 0U;
 800099a:	9001      	str	r0, [sp, #4]
  __HAL_LOCK(hadc);
 800099c:	2b01      	cmp	r3, #1
 800099e:	f000 80d8 	beq.w	8000b52 <HAL_ADCEx_InjectedConfigChannel+0x1c2>
 80009a2:	2701      	movs	r7, #1
  if(hadc->Init.ScanConvMode != ADC_SCAN_DISABLE)
 80009a4:	f8d2 e008 	ldr.w	lr, [r2, #8]
  __HAL_LOCK(hadc);
 80009a8:	f882 7024 	strb.w	r7, [r2, #36]	; 0x24
 80009ac:	684e      	ldr	r6, [r1, #4]
 80009ae:	6813      	ldr	r3, [r2, #0]
 80009b0:	680d      	ldr	r5, [r1, #0]
  /*   Note: Scan mode is present by hardware on this device and, if          */
  /*   disabled, discards automatically nb of conversions. Anyway, nb of      */
  /*   conversions is forced to 0x00 for alignment over all STM32 devices.    */
  /* - if scan mode is enabled, injected channels sequence length is set to   */
  /*   parameter "InjectedNbrOfConversion".                                   */
  if (hadc->Init.ScanConvMode == ADC_SCAN_DISABLE)
 80009b2:	f1be 0f00 	cmp.w	lr, #0
 80009b6:	d17b      	bne.n	8000ab0 <HAL_ADCEx_InjectedConfigChannel+0x120>
  {
    if (sConfigInjected->InjectedRank == ADC_INJECTED_RANK_1)
 80009b8:	42be      	cmp	r6, r7
 80009ba:	d173      	bne.n	8000aa4 <HAL_ADCEx_InjectedConfigChannel+0x114>
  HAL_StatusTypeDef tmp_hal_status = HAL_OK;
 80009bc:	4670      	mov	r0, lr
    {
      /* Clear the old SQx bits for all injected ranks */
      MODIFY_REG(hadc->Instance->JSQR                             ,
 80009be:	6b9c      	ldr	r4, [r3, #56]	; 0x38
 80009c0:	0da4      	lsrs	r4, r4, #22
 80009c2:	05a4      	lsls	r4, r4, #22
 80009c4:	ea44 34c5 	orr.w	r4, r4, r5, lsl #15
 80009c8:	639c      	str	r4, [r3, #56]	; 0x38
  /* Parameters update not conditioned to ADC state:                          */
  /*  - Automatic injected conversion                                         */
  /*  - Injected discontinuous mode                                           */
  /* Note: In case of ADC already enabled, caution to not launch an unwanted  */
  /*       conversion while modifying register CR2 by writing 1 to bit ADON.  */
  if (ADC_IS_ENABLE(hadc) == RESET)
 80009ca:	689c      	ldr	r4, [r3, #8]
 80009cc:	07e4      	lsls	r4, r4, #31
 80009ce:	d407      	bmi.n	80009e0 <HAL_ADCEx_InjectedConfigChannel+0x50>
  {    
    MODIFY_REG(hadc->Instance->CR2                                           ,
 80009d0:	689c      	ldr	r4, [r3, #8]
 80009d2:	69cf      	ldr	r7, [r1, #28]
 80009d4:	f424 44e0 	bic.w	r4, r4, #28672	; 0x7000
 80009d8:	f024 0401 	bic.w	r4, r4, #1
 80009dc:	433c      	orrs	r4, r7
 80009de:	609c      	str	r4, [r3, #8]
  /*  - Automatic injected conversion                                         */
  /*  - Injected discontinuous mode                                           */
  
    /* Automatic injected conversion can be enabled if injected group         */
    /* external triggers are disabled.                                        */
    if (sConfigInjected->AutoInjectedConv == ENABLE)
 80009e0:	698c      	ldr	r4, [r1, #24]
 80009e2:	2c01      	cmp	r4, #1
 80009e4:	d10d      	bne.n	8000a02 <HAL_ADCEx_InjectedConfigChannel+0x72>
    {
      if (sConfigInjected->ExternalTrigInjecConv == ADC_INJECTED_SOFTWARE_START)
 80009e6:	69cf      	ldr	r7, [r1, #28]
 80009e8:	f5b7 4fe0 	cmp.w	r7, #28672	; 0x7000
        SET_BIT(hadc->Instance->CR1, ADC_CR1_JAUTO);
      }
      else
      {
        /* Update ADC state machine to error */
        SET_BIT(hadc->State, HAL_ADC_STATE_ERROR_CONFIG);
 80009ec:	bf17      	itett	ne
 80009ee:	6a90      	ldrne	r0, [r2, #40]	; 0x28
        SET_BIT(hadc->Instance->CR1, ADC_CR1_JAUTO);
 80009f0:	685f      	ldreq	r7, [r3, #4]
        SET_BIT(hadc->State, HAL_ADC_STATE_ERROR_CONFIG);
 80009f2:	f040 0020 	orrne.w	r0, r0, #32
 80009f6:	6290      	strne	r0, [r2, #40]	; 0x28
        
        tmp_hal_status = HAL_ERROR;
 80009f8:	bf12      	itee	ne
 80009fa:	4620      	movne	r0, r4
        SET_BIT(hadc->Instance->CR1, ADC_CR1_JAUTO);
 80009fc:	f447 6780 	orreq.w	r7, r7, #1024	; 0x400
 8000a00:	605f      	streq	r7, [r3, #4]
      }
    }
    
    /* Injected discontinuous can be enabled only if auto-injected mode is    */
    /* disabled.                                                              */  
    if (sConfigInjected->InjectedDiscontinuousConvMode == ENABLE)
 8000a02:	694f      	ldr	r7, [r1, #20]
 8000a04:	2f01      	cmp	r7, #1
 8000a06:	d105      	bne.n	8000a14 <HAL_ADCEx_InjectedConfigChannel+0x84>
    {
      if (sConfigInjected->AutoInjectedConv == DISABLE)
 8000a08:	2c00      	cmp	r4, #0
 8000a0a:	d174      	bne.n	8000af6 <HAL_ADCEx_InjectedConfigChannel+0x166>
      {
        SET_BIT(hadc->Instance->CR1, ADC_CR1_JDISCEN);
 8000a0c:	685c      	ldr	r4, [r3, #4]
 8000a0e:	f444 5480 	orr.w	r4, r4, #4096	; 0x1000
 8000a12:	605c      	str	r4, [r3, #4]
    }


  /* InjectedChannel sampling time configuration */
  /* For channels 10 to 17 */
  if (sConfigInjected->InjectedChannel >= ADC_CHANNEL_10)
 8000a14:	2d09      	cmp	r5, #9
 8000a16:	ea4f 0445 	mov.w	r4, r5, lsl #1
 8000a1a:	f8d1 e008 	ldr.w	lr, [r1, #8]
 8000a1e:	d970      	bls.n	8000b02 <HAL_ADCEx_InjectedConfigChannel+0x172>
  {
    MODIFY_REG(hadc->Instance->SMPR1                                                             ,
 8000a20:	f04f 0c07 	mov.w	ip, #7
 8000a24:	442c      	add	r4, r5
 8000a26:	68df      	ldr	r7, [r3, #12]
 8000a28:	3c1e      	subs	r4, #30
 8000a2a:	fa0c fc04 	lsl.w	ip, ip, r4
 8000a2e:	ea27 070c 	bic.w	r7, r7, ip
 8000a32:	fa0e f404 	lsl.w	r4, lr, r4
 8000a36:	433c      	orrs	r4, r7
 8000a38:	60dc      	str	r4, [r3, #12]
               ADC_SMPR2(sConfigInjected->InjectedSamplingTime, sConfigInjected->InjectedChannel) );
  }
  
  /* If ADC1 InjectedChannel_16 or InjectedChannel_17 is selected, enable Temperature sensor  */
  /* and VREFINT measurement path.                                            */
  if ((sConfigInjected->InjectedChannel == ADC_CHANNEL_TEMPSENSOR) ||
 8000a3a:	f1a5 0410 	sub.w	r4, r5, #16
 8000a3e:	2c01      	cmp	r4, #1
      (sConfigInjected->InjectedChannel == ADC_CHANNEL_VREFINT)      )
  {
    SET_BIT(hadc->Instance->CR2, ADC_CR2_TSVREFE);
 8000a40:	bf98      	it	ls
 8000a42:	689f      	ldrls	r7, [r3, #8]
 8000a44:	f8df e11c 	ldr.w	lr, [pc, #284]	; 8000b64 <HAL_ADCEx_InjectedConfigChannel+0x1d4>
 8000a48:	bf9c      	itt	ls
 8000a4a:	f447 0700 	orrls.w	r7, r7, #8388608	; 0x800000
 8000a4e:	609f      	strls	r7, [r3, #8]
  }
  
  
  /* Configure the offset: offset enable/disable, InjectedChannel, offset value */
  switch(sConfigInjected->InjectedRank)
 8000a50:	2e02      	cmp	r6, #2
 8000a52:	68cf      	ldr	r7, [r1, #12]
 8000a54:	d062      	beq.n	8000b1c <HAL_ADCEx_InjectedConfigChannel+0x18c>
 8000a56:	2e03      	cmp	r6, #3
 8000a58:	d066      	beq.n	8000b28 <HAL_ADCEx_InjectedConfigChannel+0x198>
 8000a5a:	2e01      	cmp	r6, #1
 8000a5c:	d16a      	bne.n	8000b34 <HAL_ADCEx_InjectedConfigChannel+0x1a4>
  {
    case 1:
      /* Set injected channel 1 offset */
      MODIFY_REG(hadc->Instance->JOFR1,
 8000a5e:	6959      	ldr	r1, [r3, #20]
 8000a60:	ea01 010e 	and.w	r1, r1, lr
 8000a64:	4339      	orrs	r1, r7
 8000a66:	6159      	str	r1, [r3, #20]
      break;
  }
  
  /* If ADC1 Channel_16 or Channel_17 is selected, enable Temperature sensor  */
  /* and VREFINT measurement path.                                            */
  if ((sConfigInjected->InjectedChannel == ADC_CHANNEL_TEMPSENSOR) ||
 8000a68:	2c01      	cmp	r4, #1
 8000a6a:	d816      	bhi.n	8000a9a <HAL_ADCEx_InjectedConfigChannel+0x10a>
      (sConfigInjected->InjectedChannel == ADC_CHANNEL_VREFINT)      )
  {
    /* For STM32F1 devices with several ADC: Only ADC1 can access internal    */
    /* measurement channels (VrefInt/TempSensor). If these channels are       */
    /* intended to be set on other ADC instances, an error is reported.       */
    if (hadc->Instance == ADC1)
 8000a6c:	493a      	ldr	r1, [pc, #232]	; (8000b58 <HAL_ADCEx_InjectedConfigChannel+0x1c8>)
 8000a6e:	428b      	cmp	r3, r1
 8000a70:	d169      	bne.n	8000b46 <HAL_ADCEx_InjectedConfigChannel+0x1b6>
    {
      if (READ_BIT(hadc->Instance->CR2, ADC_CR2_TSVREFE) == RESET)
 8000a72:	6899      	ldr	r1, [r3, #8]
 8000a74:	0209      	lsls	r1, r1, #8
 8000a76:	d410      	bmi.n	8000a9a <HAL_ADCEx_InjectedConfigChannel+0x10a>
      {
        SET_BIT(hadc->Instance->CR2, ADC_CR2_TSVREFE);
 8000a78:	6899      	ldr	r1, [r3, #8]
        
        if ((sConfigInjected->InjectedChannel == ADC_CHANNEL_TEMPSENSOR))
 8000a7a:	2d10      	cmp	r5, #16
        SET_BIT(hadc->Instance->CR2, ADC_CR2_TSVREFE);
 8000a7c:	f441 0100 	orr.w	r1, r1, #8388608	; 0x800000
 8000a80:	6099      	str	r1, [r3, #8]
        if ((sConfigInjected->InjectedChannel == ADC_CHANNEL_TEMPSENSOR))
 8000a82:	d10a      	bne.n	8000a9a <HAL_ADCEx_InjectedConfigChannel+0x10a>
        {
          /* Delay for temperature sensor stabilization time */
          /* Compute number of CPU cycles to wait for */
          wait_loop_index = (ADC_TEMPSENSOR_DELAY_US * (SystemCoreClock / 1000000U));
 8000a84:	4b35      	ldr	r3, [pc, #212]	; (8000b5c <HAL_ADCEx_InjectedConfigChannel+0x1cc>)
 8000a86:	4936      	ldr	r1, [pc, #216]	; (8000b60 <HAL_ADCEx_InjectedConfigChannel+0x1d0>)
 8000a88:	681b      	ldr	r3, [r3, #0]
 8000a8a:	fbb3 f1f1 	udiv	r1, r3, r1
 8000a8e:	230a      	movs	r3, #10
 8000a90:	434b      	muls	r3, r1
          while(wait_loop_index != 0U)
          {
            wait_loop_index--;
 8000a92:	9301      	str	r3, [sp, #4]
          while(wait_loop_index != 0U)
 8000a94:	9b01      	ldr	r3, [sp, #4]
 8000a96:	2b00      	cmp	r3, #0
 8000a98:	d152      	bne.n	8000b40 <HAL_ADCEx_InjectedConfigChannel+0x1b0>
      tmp_hal_status = HAL_ERROR;
    }
  }
  
  /* Process unlocked */
  __HAL_UNLOCK(hadc);
 8000a9a:	2300      	movs	r3, #0
 8000a9c:	f882 3024 	strb.w	r3, [r2, #36]	; 0x24
  
  /* Return function status */
  return tmp_hal_status;
}
 8000aa0:	b003      	add	sp, #12
 8000aa2:	bdf0      	pop	{r4, r5, r6, r7, pc}
      SET_BIT(hadc->State, HAL_ADC_STATE_ERROR_CONFIG);
 8000aa4:	6a94      	ldr	r4, [r2, #40]	; 0x28
      tmp_hal_status = HAL_ERROR;
 8000aa6:	4638      	mov	r0, r7
      SET_BIT(hadc->State, HAL_ADC_STATE_ERROR_CONFIG);
 8000aa8:	f044 0420 	orr.w	r4, r4, #32
 8000aac:	6294      	str	r4, [r2, #40]	; 0x28
 8000aae:	e78c      	b.n	80009ca <HAL_ADCEx_InjectedConfigChannel+0x3a>
    if (sConfigInjected->InjectedRank <= sConfigInjected->InjectedNbrOfConversion)
 8000ab0:	690f      	ldr	r7, [r1, #16]
      MODIFY_REG(hadc->Instance->JSQR                                         ,
 8000ab2:	f8d3 e038 	ldr.w	lr, [r3, #56]	; 0x38
 8000ab6:	1bf4      	subs	r4, r6, r7
 8000ab8:	eb04 0484 	add.w	r4, r4, r4, lsl #2
    if (sConfigInjected->InjectedRank <= sConfigInjected->InjectedNbrOfConversion)
 8000abc:	42be      	cmp	r6, r7
      MODIFY_REG(hadc->Instance->JSQR                                         ,
 8000abe:	f104 040f 	add.w	r4, r4, #15
    if (sConfigInjected->InjectedRank <= sConfigInjected->InjectedNbrOfConversion)
 8000ac2:	d810      	bhi.n	8000ae6 <HAL_ADCEx_InjectedConfigChannel+0x156>
      MODIFY_REG(hadc->Instance->JSQR                                         ,
 8000ac4:	f107 3cff 	add.w	ip, r7, #4294967295
 8000ac8:	fa05 f704 	lsl.w	r7, r5, r4
 8000acc:	ea47 570c 	orr.w	r7, r7, ip, lsl #20
 8000ad0:	f04f 0c1f 	mov.w	ip, #31
 8000ad4:	fa0c f404 	lsl.w	r4, ip, r4
 8000ad8:	f444 1440 	orr.w	r4, r4, #3145728	; 0x300000
 8000adc:	ea2e 0404 	bic.w	r4, lr, r4
 8000ae0:	433c      	orrs	r4, r7
      MODIFY_REG(hadc->Instance->JSQR                                       ,
 8000ae2:	639c      	str	r4, [r3, #56]	; 0x38
 8000ae4:	e771      	b.n	80009ca <HAL_ADCEx_InjectedConfigChannel+0x3a>
 8000ae6:	271f      	movs	r7, #31
 8000ae8:	fa07 f404 	lsl.w	r4, r7, r4
 8000aec:	f444 1440 	orr.w	r4, r4, #3145728	; 0x300000
 8000af0:	ea2e 0404 	bic.w	r4, lr, r4
 8000af4:	e7f5      	b.n	8000ae2 <HAL_ADCEx_InjectedConfigChannel+0x152>
        SET_BIT(hadc->State, HAL_ADC_STATE_ERROR_CONFIG);
 8000af6:	6a90      	ldr	r0, [r2, #40]	; 0x28
 8000af8:	f040 0020 	orr.w	r0, r0, #32
 8000afc:	6290      	str	r0, [r2, #40]	; 0x28
        tmp_hal_status = HAL_ERROR;
 8000afe:	4638      	mov	r0, r7
 8000b00:	e788      	b.n	8000a14 <HAL_ADCEx_InjectedConfigChannel+0x84>
    MODIFY_REG(hadc->Instance->SMPR2                                                             ,
 8000b02:	f04f 0c07 	mov.w	ip, #7
 8000b06:	691f      	ldr	r7, [r3, #16]
 8000b08:	442c      	add	r4, r5
 8000b0a:	fa0c fc04 	lsl.w	ip, ip, r4
 8000b0e:	ea27 070c 	bic.w	r7, r7, ip
 8000b12:	fa0e f404 	lsl.w	r4, lr, r4
 8000b16:	433c      	orrs	r4, r7
 8000b18:	611c      	str	r4, [r3, #16]
 8000b1a:	e78e      	b.n	8000a3a <HAL_ADCEx_InjectedConfigChannel+0xaa>
      MODIFY_REG(hadc->Instance->JOFR2,
 8000b1c:	6999      	ldr	r1, [r3, #24]
 8000b1e:	ea01 010e 	and.w	r1, r1, lr
 8000b22:	4339      	orrs	r1, r7
 8000b24:	6199      	str	r1, [r3, #24]
      break;
 8000b26:	e79f      	b.n	8000a68 <HAL_ADCEx_InjectedConfigChannel+0xd8>
      MODIFY_REG(hadc->Instance->JOFR3,
 8000b28:	69d9      	ldr	r1, [r3, #28]
 8000b2a:	ea01 010e 	and.w	r1, r1, lr
 8000b2e:	4339      	orrs	r1, r7
 8000b30:	61d9      	str	r1, [r3, #28]
      break;
 8000b32:	e799      	b.n	8000a68 <HAL_ADCEx_InjectedConfigChannel+0xd8>
      MODIFY_REG(hadc->Instance->JOFR4,
 8000b34:	6a19      	ldr	r1, [r3, #32]
 8000b36:	ea01 010e 	and.w	r1, r1, lr
 8000b3a:	4339      	orrs	r1, r7
 8000b3c:	6219      	str	r1, [r3, #32]
      break;
 8000b3e:	e793      	b.n	8000a68 <HAL_ADCEx_InjectedConfigChannel+0xd8>
            wait_loop_index--;
 8000b40:	9b01      	ldr	r3, [sp, #4]
 8000b42:	3b01      	subs	r3, #1
 8000b44:	e7a5      	b.n	8000a92 <HAL_ADCEx_InjectedConfigChannel+0x102>
      SET_BIT(hadc->State, HAL_ADC_STATE_ERROR_CONFIG);
 8000b46:	6a93      	ldr	r3, [r2, #40]	; 0x28
      tmp_hal_status = HAL_ERROR;
 8000b48:	2001      	movs	r0, #1
      SET_BIT(hadc->State, HAL_ADC_STATE_ERROR_CONFIG);
 8000b4a:	f043 0320 	orr.w	r3, r3, #32
 8000b4e:	6293      	str	r3, [r2, #40]	; 0x28
 8000b50:	e7a3      	b.n	8000a9a <HAL_ADCEx_InjectedConfigChannel+0x10a>
  __HAL_LOCK(hadc);
 8000b52:	2002      	movs	r0, #2
 8000b54:	e7a4      	b.n	8000aa0 <HAL_ADCEx_InjectedConfigChannel+0x110>
 8000b56:	bf00      	nop
 8000b58:	40012400 	.word	0x40012400
 8000b5c:	2000000c 	.word	0x2000000c
 8000b60:	000f4240 	.word	0x000f4240
 8000b64:	fffff000 	.word	0xfffff000

08000b68 <HAL_NVIC_SetPriorityGrouping>:
__STATIC_INLINE void NVIC_SetPriorityGrouping(uint32_t PriorityGroup)
{
  uint32_t reg_value;
  uint32_t PriorityGroupTmp = (PriorityGroup & (uint32_t)0x07UL);             /* only values 0..7 are used          */

  reg_value  =  SCB->AIRCR;                                                   /* read old register configuration    */
 8000b68:	4a07      	ldr	r2, [pc, #28]	; (8000b88 <HAL_NVIC_SetPriorityGrouping+0x20>)
  reg_value &= ~((uint32_t)(SCB_AIRCR_VECTKEY_Msk | SCB_AIRCR_PRIGROUP_Msk)); /* clear bits to change               */
  reg_value  =  (reg_value                                   |
                ((uint32_t)0x5FAUL << SCB_AIRCR_VECTKEY_Pos) |
                (PriorityGroupTmp << 8U)                      );              /* Insert write key and priorty group */
 8000b6a:	0200      	lsls	r0, r0, #8
  reg_value  =  SCB->AIRCR;                                                   /* read old register configuration    */
 8000b6c:	68d3      	ldr	r3, [r2, #12]
                (PriorityGroupTmp << 8U)                      );              /* Insert write key and priorty group */
 8000b6e:	f400 60e0 	and.w	r0, r0, #1792	; 0x700
  reg_value &= ~((uint32_t)(SCB_AIRCR_VECTKEY_Msk | SCB_AIRCR_PRIGROUP_Msk)); /* clear bits to change               */
 8000b72:	f423 63e0 	bic.w	r3, r3, #1792	; 0x700
 8000b76:	041b      	lsls	r3, r3, #16
 8000b78:	0c1b      	lsrs	r3, r3, #16
 8000b7a:	f043 63bf 	orr.w	r3, r3, #100139008	; 0x5f80000
 8000b7e:	f443 3300 	orr.w	r3, r3, #131072	; 0x20000
  reg_value  =  (reg_value                                   |
 8000b82:	4303      	orrs	r3, r0
  SCB->AIRCR =  reg_value;
 8000b84:	60d3      	str	r3, [r2, #12]
 8000b86:	4770      	bx	lr
 8000b88:	e000ed00 	.word	0xe000ed00

08000b8c <HAL_NVIC_SetPriority>:
  \details Reads the priority grouping field from the NVIC Interrupt Controller.
  \return                Priority grouping field (SCB->AIRCR [10:8] PRIGROUP field).
 */
__STATIC_INLINE uint32_t NVIC_GetPriorityGrouping(void)
{
  return ((uint32_t)((SCB->AIRCR & SCB_AIRCR_PRIGROUP_Msk) >> SCB_AIRCR_PRIGROUP_Pos));
 8000b8c:	4b17      	ldr	r3, [pc, #92]	; (8000bec <HAL_NVIC_SetPriority+0x60>)
  *         This parameter can be a value between 0 and 15
  *         A lower priority value indicates a higher priority.          
  * @retval None
  */
void HAL_NVIC_SetPriority(IRQn_Type IRQn, uint32_t PreemptPriority, uint32_t SubPriority)
{ 
 8000b8e:	b530      	push	{r4, r5, lr}
 8000b90:	68dc      	ldr	r4, [r3, #12]
 8000b92:	f3c4 2402 	ubfx	r4, r4, #8, #3
{
  uint32_t PriorityGroupTmp = (PriorityGroup & (uint32_t)0x07UL);   /* only values 0..7 are used          */
  uint32_t PreemptPriorityBits;
  uint32_t SubPriorityBits;

  PreemptPriorityBits = ((7UL - PriorityGroupTmp) > (uint32_t)(__NVIC_PRIO_BITS)) ? (uint32_t)(__NVIC_PRIO_BITS) : (uint32_t)(7UL - PriorityGroupTmp);
 8000b96:	f1c4 0307 	rsb	r3, r4, #7
  SubPriorityBits     = ((PriorityGroupTmp + (uint32_t)(__NVIC_PRIO_BITS)) < (uint32_t)7UL) ? (uint32_t)0UL : (uint32_t)((PriorityGroupTmp - 7UL) + (uint32_t)(__NVIC_PRIO_BITS));
 8000b9a:	1d25      	adds	r5, r4, #4
  PreemptPriorityBits = ((7UL - PriorityGroupTmp) > (uint32_t)(__NVIC_PRIO_BITS)) ? (uint32_t)(__NVIC_PRIO_BITS) : (uint32_t)(7UL - PriorityGroupTmp);
 8000b9c:	2b04      	cmp	r3, #4
 8000b9e:	bf28      	it	cs
 8000ba0:	2304      	movcs	r3, #4
  SubPriorityBits     = ((PriorityGroupTmp + (uint32_t)(__NVIC_PRIO_BITS)) < (uint32_t)7UL) ? (uint32_t)0UL : (uint32_t)((PriorityGroupTmp - 7UL) + (uint32_t)(__NVIC_PRIO_BITS));
 8000ba2:	2d06      	cmp	r5, #6

  return (
           ((PreemptPriority & (uint32_t)((1UL << (PreemptPriorityBits)) - 1UL)) << SubPriorityBits) |
 8000ba4:	f04f 0501 	mov.w	r5, #1
  SubPriorityBits     = ((PriorityGroupTmp + (uint32_t)(__NVIC_PRIO_BITS)) < (uint32_t)7UL) ? (uint32_t)0UL : (uint32_t)((PriorityGroupTmp - 7UL) + (uint32_t)(__NVIC_PRIO_BITS));
 8000ba8:	bf98      	it	ls
 8000baa:	2400      	movls	r4, #0
           ((PreemptPriority & (uint32_t)((1UL << (PreemptPriorityBits)) - 1UL)) << SubPriorityBits) |
 8000bac:	fa05 f303 	lsl.w	r3, r5, r3
 8000bb0:	f103 33ff 	add.w	r3, r3, #4294967295
  SubPriorityBits     = ((PriorityGroupTmp + (uint32_t)(__NVIC_PRIO_BITS)) < (uint32_t)7UL) ? (uint32_t)0UL : (uint32_t)((PriorityGroupTmp - 7UL) + (uint32_t)(__NVIC_PRIO_BITS));
 8000bb4:	bf88      	it	hi
 8000bb6:	3c03      	subhi	r4, #3
           ((PreemptPriority & (uint32_t)((1UL << (PreemptPriorityBits)) - 1UL)) << SubPriorityBits) |
 8000bb8:	4019      	ands	r1, r3
 8000bba:	40a1      	lsls	r1, r4
           ((SubPriority     & (uint32_t)((1UL << (SubPriorityBits    )) - 1UL)))
 8000bbc:	fa05 f404 	lsl.w	r4, r5, r4
 8000bc0:	3c01      	subs	r4, #1
 8000bc2:	4022      	ands	r2, r4
  if ((int32_t)(IRQn) < 0)
 8000bc4:	2800      	cmp	r0, #0
           ((PreemptPriority & (uint32_t)((1UL << (PreemptPriorityBits)) - 1UL)) << SubPriorityBits) |
 8000bc6:	ea42 0201 	orr.w	r2, r2, r1
 8000bca:	ea4f 1202 	mov.w	r2, r2, lsl #4
    NVIC->IP[((uint32_t)(int32_t)IRQn)]               = (uint8_t)((priority << (8U - __NVIC_PRIO_BITS)) & (uint32_t)0xFFUL);
 8000bce:	bfaf      	iteee	ge
 8000bd0:	f100 4060 	addge.w	r0, r0, #3758096384	; 0xe0000000
    SCB->SHP[(((uint32_t)(int32_t)IRQn) & 0xFUL)-4UL] = (uint8_t)((priority << (8U - __NVIC_PRIO_BITS)) & (uint32_t)0xFFUL);
 8000bd4:	4b06      	ldrlt	r3, [pc, #24]	; (8000bf0 <HAL_NVIC_SetPriority+0x64>)
 8000bd6:	f000 000f 	andlt.w	r0, r0, #15
 8000bda:	b2d2      	uxtblt	r2, r2
    NVIC->IP[((uint32_t)(int32_t)IRQn)]               = (uint8_t)((priority << (8U - __NVIC_PRIO_BITS)) & (uint32_t)0xFFUL);
 8000bdc:	bfa5      	ittet	ge
 8000bde:	b2d2      	uxtbge	r2, r2
 8000be0:	f500 4061 	addge.w	r0, r0, #57600	; 0xe100
    SCB->SHP[(((uint32_t)(int32_t)IRQn) & 0xFUL)-4UL] = (uint8_t)((priority << (8U - __NVIC_PRIO_BITS)) & (uint32_t)0xFFUL);
 8000be4:	541a      	strblt	r2, [r3, r0]
    NVIC->IP[((uint32_t)(int32_t)IRQn)]               = (uint8_t)((priority << (8U - __NVIC_PRIO_BITS)) & (uint32_t)0xFFUL);
 8000be6:	f880 2300 	strbge.w	r2, [r0, #768]	; 0x300
 8000bea:	bd30      	pop	{r4, r5, pc}
 8000bec:	e000ed00 	.word	0xe000ed00
 8000bf0:	e000ed14 	.word	0xe000ed14

08000bf4 <HAL_NVIC_EnableIRQ>:
  NVIC->ISER[(((uint32_t)(int32_t)IRQn) >> 5UL)] = (uint32_t)(1UL << (((uint32_t)(int32_t)IRQn) & 0x1FUL));
 8000bf4:	2301      	movs	r3, #1
 8000bf6:	0942      	lsrs	r2, r0, #5
 8000bf8:	f000 001f 	and.w	r0, r0, #31
 8000bfc:	fa03 f000 	lsl.w	r0, r3, r0
 8000c00:	4b01      	ldr	r3, [pc, #4]	; (8000c08 <HAL_NVIC_EnableIRQ+0x14>)
 8000c02:	f843 0022 	str.w	r0, [r3, r2, lsl #2]
 8000c06:	4770      	bx	lr
 8000c08:	e000e100 	.word	0xe000e100

08000c0c <HAL_SYSTICK_Config>:
           function <b>SysTick_Config</b> is not included. In this case, the file <b><i>device</i>.h</b>
           must contain a vendor-specific implementation of this function.
 */
__STATIC_INLINE uint32_t SysTick_Config(uint32_t ticks)
{
  if ((ticks - 1UL) > SysTick_LOAD_RELOAD_Msk)
 8000c0c:	3801      	subs	r0, #1
 8000c0e:	f1b0 7f80 	cmp.w	r0, #16777216	; 0x1000000
 8000c12:	d20a      	bcs.n	8000c2a <HAL_SYSTICK_Config+0x1e>
    SCB->SHP[(((uint32_t)(int32_t)IRQn) & 0xFUL)-4UL] = (uint8_t)((priority << (8U - __NVIC_PRIO_BITS)) & (uint32_t)0xFFUL);
 8000c14:	21f0      	movs	r1, #240	; 0xf0
  {
    return (1UL);                                                   /* Reload value impossible */
  }

  SysTick->LOAD  = (uint32_t)(ticks - 1UL);                         /* set reload register */
 8000c16:	4b06      	ldr	r3, [pc, #24]	; (8000c30 <HAL_SYSTICK_Config+0x24>)
    SCB->SHP[(((uint32_t)(int32_t)IRQn) & 0xFUL)-4UL] = (uint8_t)((priority << (8U - __NVIC_PRIO_BITS)) & (uint32_t)0xFFUL);
 8000c18:	4a06      	ldr	r2, [pc, #24]	; (8000c34 <HAL_SYSTICK_Config+0x28>)
  SysTick->LOAD  = (uint32_t)(ticks - 1UL);                         /* set reload register */
 8000c1a:	6058      	str	r0, [r3, #4]
    SCB->SHP[(((uint32_t)(int32_t)IRQn) & 0xFUL)-4UL] = (uint8_t)((priority << (8U - __NVIC_PRIO_BITS)) & (uint32_t)0xFFUL);
 8000c1c:	f882 1023 	strb.w	r1, [r2, #35]	; 0x23
  NVIC_SetPriority (SysTick_IRQn, (1UL << __NVIC_PRIO_BITS) - 1UL); /* set Priority for Systick Interrupt */
  SysTick->VAL   = 0UL;                                             /* Load the SysTick Counter Value */
 8000c20:	2000      	movs	r0, #0
  SysTick->CTRL  = SysTick_CTRL_CLKSOURCE_Msk |
 8000c22:	2207      	movs	r2, #7
  SysTick->VAL   = 0UL;                                             /* Load the SysTick Counter Value */
 8000c24:	6098      	str	r0, [r3, #8]
  SysTick->CTRL  = SysTick_CTRL_CLKSOURCE_Msk |
 8000c26:	601a      	str	r2, [r3, #0]
 8000c28:	4770      	bx	lr
    return (1UL);                                                   /* Reload value impossible */
 8000c2a:	2001      	movs	r0, #1
  *                  - 1  Function failed.
  */
uint32_t HAL_SYSTICK_Config(uint32_t TicksNumb)
{
   return SysTick_Config(TicksNumb);
}
 8000c2c:	4770      	bx	lr
 8000c2e:	bf00      	nop
 8000c30:	e000e010 	.word	0xe000e010
 8000c34:	e000ed00 	.word	0xe000ed00

08000c38 <HAL_DMA_Init>:
  * @param  hdma: Pointer to a DMA_HandleTypeDef structure that contains
  *               the configuration information for the specified DMA Channel.
  * @retval HAL status
  */
HAL_StatusTypeDef HAL_DMA_Init(DMA_HandleTypeDef *hdma)
{
 8000c38:	b510      	push	{r4, lr}
  uint32_t tmp = 0U;

  /* Check the DMA handle allocation */
  if(hdma == NULL)
 8000c3a:	2800      	cmp	r0, #0
 8000c3c:	d032      	beq.n	8000ca4 <HAL_DMA_Init+0x6c>
  assert_param(IS_DMA_MODE(hdma->Init.Mode));
  assert_param(IS_DMA_PRIORITY(hdma->Init.Priority));

#if defined (STM32F101xE) || defined (STM32F101xG) || defined (STM32F103xE) || defined (STM32F103xG) || defined (STM32F100xE) || defined (STM32F105xC) || defined (STM32F107xC)
  /* calculation of the channel index */
  if ((uint32_t)(hdma->Instance) < (uint32_t)(DMA2_Channel1))
 8000c3e:	6801      	ldr	r1, [r0, #0]
 8000c40:	4b19      	ldr	r3, [pc, #100]	; (8000ca8 <HAL_DMA_Init+0x70>)
 8000c42:	2414      	movs	r4, #20
 8000c44:	4299      	cmp	r1, r3
 8000c46:	d825      	bhi.n	8000c94 <HAL_DMA_Init+0x5c>
  {
    /* DMA1 */
    hdma->ChannelIndex = (((uint32_t)hdma->Instance - (uint32_t)DMA1_Channel1) / ((uint32_t)DMA1_Channel2 - (uint32_t)DMA1_Channel1)) << 2;
 8000c48:	4a18      	ldr	r2, [pc, #96]	; (8000cac <HAL_DMA_Init+0x74>)
    hdma->DmaBaseAddress = DMA1;
 8000c4a:	f2a3 4307 	subw	r3, r3, #1031	; 0x407
    hdma->ChannelIndex = (((uint32_t)hdma->Instance - (uint32_t)DMA1_Channel1) / ((uint32_t)DMA1_Channel2 - (uint32_t)DMA1_Channel1)) << 2;
 8000c4e:	440a      	add	r2, r1
 8000c50:	fbb2 f2f4 	udiv	r2, r2, r4
 8000c54:	0092      	lsls	r2, r2, #2
 8000c56:	6402      	str	r2, [r0, #64]	; 0x40
  tmp &= ((uint32_t)~(DMA_CCR_PL    | DMA_CCR_MSIZE  | DMA_CCR_PSIZE  | \
                      DMA_CCR_MINC  | DMA_CCR_PINC   | DMA_CCR_CIRC   | \
                      DMA_CCR_DIR));

  /* Prepare the DMA Channel configuration */
  tmp |=  hdma->Init.Direction        |
 8000c58:	6884      	ldr	r4, [r0, #8]
    hdma->DmaBaseAddress = DMA2;
 8000c5a:	63c3      	str	r3, [r0, #60]	; 0x3c
  tmp |=  hdma->Init.Direction        |
 8000c5c:	6843      	ldr	r3, [r0, #4]
  tmp = hdma->Instance->CCR;
 8000c5e:	680a      	ldr	r2, [r1, #0]
  tmp |=  hdma->Init.Direction        |
 8000c60:	4323      	orrs	r3, r4
          hdma->Init.PeriphInc           | hdma->Init.MemInc           |
 8000c62:	68c4      	ldr	r4, [r0, #12]
  tmp &= ((uint32_t)~(DMA_CCR_PL    | DMA_CCR_MSIZE  | DMA_CCR_PSIZE  | \
 8000c64:	f422 527f 	bic.w	r2, r2, #16320	; 0x3fc0
          hdma->Init.PeriphInc           | hdma->Init.MemInc           |
 8000c68:	4323      	orrs	r3, r4
 8000c6a:	6904      	ldr	r4, [r0, #16]
  tmp &= ((uint32_t)~(DMA_CCR_PL    | DMA_CCR_MSIZE  | DMA_CCR_PSIZE  | \
 8000c6c:	f022 0230 	bic.w	r2, r2, #48	; 0x30
          hdma->Init.PeriphInc           | hdma->Init.MemInc           |
 8000c70:	4323      	orrs	r3, r4
          hdma->Init.PeriphDataAlignment | hdma->Init.MemDataAlignment |
 8000c72:	6944      	ldr	r4, [r0, #20]
 8000c74:	4323      	orrs	r3, r4
 8000c76:	6984      	ldr	r4, [r0, #24]
 8000c78:	4323      	orrs	r3, r4
          hdma->Init.Mode                | hdma->Init.Priority;
 8000c7a:	69c4      	ldr	r4, [r0, #28]
 8000c7c:	4323      	orrs	r3, r4
  tmp |=  hdma->Init.Direction        |
 8000c7e:	4313      	orrs	r3, r2

  /* Write to DMA Channel CR register */
  hdma->Instance->CCR = tmp;
 8000c80:	600b      	str	r3, [r1, #0]

  /* Initialise the error code */
  hdma->ErrorCode = HAL_DMA_ERROR_NONE;

  /* Initialize the DMA state*/
  hdma->State = HAL_DMA_STATE_READY;
 8000c82:	2201      	movs	r2, #1
  hdma->ErrorCode = HAL_DMA_ERROR_NONE;
 8000c84:	2300      	movs	r3, #0
  hdma->State = HAL_DMA_STATE_READY;
 8000c86:	f880 2021 	strb.w	r2, [r0, #33]	; 0x21
  hdma->ErrorCode = HAL_DMA_ERROR_NONE;
 8000c8a:	6383      	str	r3, [r0, #56]	; 0x38
  /* Allocate lock resource and initialize it */
  hdma->Lock = HAL_UNLOCKED;
 8000c8c:	f880 3020 	strb.w	r3, [r0, #32]

  return HAL_OK;
 8000c90:	4618      	mov	r0, r3
 8000c92:	bd10      	pop	{r4, pc}
    hdma->ChannelIndex = (((uint32_t)hdma->Instance - (uint32_t)DMA2_Channel1) / ((uint32_t)DMA2_Channel2 - (uint32_t)DMA2_Channel1)) << 2;
 8000c94:	4b06      	ldr	r3, [pc, #24]	; (8000cb0 <HAL_DMA_Init+0x78>)
 8000c96:	440b      	add	r3, r1
 8000c98:	fbb3 f3f4 	udiv	r3, r3, r4
 8000c9c:	009b      	lsls	r3, r3, #2
 8000c9e:	6403      	str	r3, [r0, #64]	; 0x40
    hdma->DmaBaseAddress = DMA2;
 8000ca0:	4b04      	ldr	r3, [pc, #16]	; (8000cb4 <HAL_DMA_Init+0x7c>)
 8000ca2:	e7d9      	b.n	8000c58 <HAL_DMA_Init+0x20>
    return HAL_ERROR;
 8000ca4:	2001      	movs	r0, #1
}
 8000ca6:	bd10      	pop	{r4, pc}
 8000ca8:	40020407 	.word	0x40020407
 8000cac:	bffdfff8 	.word	0xbffdfff8
 8000cb0:	bffdfbf8 	.word	0xbffdfbf8
 8000cb4:	40020400 	.word	0x40020400

08000cb8 <HAL_DMA_Start_IT>:
  * @param  DstAddress: The destination memory Buffer address
  * @param  DataLength: The length of data to be transferred from source to destination
  * @retval HAL status
  */
HAL_StatusTypeDef HAL_DMA_Start_IT(DMA_HandleTypeDef *hdma, uint32_t SrcAddress, uint32_t DstAddress, uint32_t DataLength)
{
 8000cb8:	b5f0      	push	{r4, r5, r6, r7, lr}

  /* Check the parameters */
  assert_param(IS_DMA_BUFFER_SIZE(DataLength));

  /* Process locked */
  __HAL_LOCK(hdma);
 8000cba:	f890 4020 	ldrb.w	r4, [r0, #32]
 8000cbe:	2c01      	cmp	r4, #1
 8000cc0:	d035      	beq.n	8000d2e <HAL_DMA_Start_IT+0x76>
 8000cc2:	2401      	movs	r4, #1
  
  if(HAL_DMA_STATE_READY == hdma->State)
 8000cc4:	f890 5021 	ldrb.w	r5, [r0, #33]	; 0x21
  __HAL_LOCK(hdma);
 8000cc8:	f880 4020 	strb.w	r4, [r0, #32]
  if(HAL_DMA_STATE_READY == hdma->State)
 8000ccc:	42a5      	cmp	r5, r4
 8000cce:	f04f 0600 	mov.w	r6, #0
 8000cd2:	f04f 0402 	mov.w	r4, #2
 8000cd6:	d128      	bne.n	8000d2a <HAL_DMA_Start_IT+0x72>
  {
    /* Change DMA peripheral state */
    hdma->State = HAL_DMA_STATE_BUSY;
 8000cd8:	f880 4021 	strb.w	r4, [r0, #33]	; 0x21
    hdma->ErrorCode = HAL_DMA_ERROR_NONE;
    
    /* Disable the peripheral */
    __HAL_DMA_DISABLE(hdma);
 8000cdc:	6804      	ldr	r4, [r0, #0]
    hdma->ErrorCode = HAL_DMA_ERROR_NONE;
 8000cde:	6386      	str	r6, [r0, #56]	; 0x38
    __HAL_DMA_DISABLE(hdma);
 8000ce0:	6826      	ldr	r6, [r4, #0]
  * @retval HAL status
  */
static void DMA_SetConfig(DMA_HandleTypeDef *hdma, uint32_t SrcAddress, uint32_t DstAddress, uint32_t DataLength)
{
  /* Clear all flags */
  hdma->DmaBaseAddress->IFCR = (DMA_ISR_GIF1 << hdma->ChannelIndex);
 8000ce2:	6c07      	ldr	r7, [r0, #64]	; 0x40
    __HAL_DMA_DISABLE(hdma);
 8000ce4:	f026 0601 	bic.w	r6, r6, #1
 8000ce8:	6026      	str	r6, [r4, #0]
  hdma->DmaBaseAddress->IFCR = (DMA_ISR_GIF1 << hdma->ChannelIndex);
 8000cea:	6bc6      	ldr	r6, [r0, #60]	; 0x3c
 8000cec:	40bd      	lsls	r5, r7
 8000cee:	6075      	str	r5, [r6, #4]

  /* Configure DMA Channel data length */
  hdma->Instance->CNDTR = DataLength;
 8000cf0:	6063      	str	r3, [r4, #4]

  /* Memory to Peripheral */
  if((hdma->Init.Direction) == DMA_MEMORY_TO_PERIPH)
 8000cf2:	6843      	ldr	r3, [r0, #4]
 8000cf4:	6805      	ldr	r5, [r0, #0]
 8000cf6:	2b10      	cmp	r3, #16
    if(NULL != hdma->XferHalfCpltCallback)
 8000cf8:	6ac3      	ldr	r3, [r0, #44]	; 0x2c
  {
    /* Configure DMA Channel destination address */
    hdma->Instance->CPAR = DstAddress;
 8000cfa:	bf0b      	itete	eq
 8000cfc:	60a2      	streq	r2, [r4, #8]
  }
  /* Peripheral to Memory */
  else
  {
    /* Configure DMA Channel source address */
    hdma->Instance->CPAR = SrcAddress;
 8000cfe:	60a1      	strne	r1, [r4, #8]
    hdma->Instance->CMAR = SrcAddress;
 8000d00:	60e1      	streq	r1, [r4, #12]

    /* Configure DMA Channel destination address */
    hdma->Instance->CMAR = DstAddress;
 8000d02:	60e2      	strne	r2, [r4, #12]
    if(NULL != hdma->XferHalfCpltCallback)
 8000d04:	b14b      	cbz	r3, 8000d1a <HAL_DMA_Start_IT+0x62>
      __HAL_DMA_ENABLE_IT(hdma, (DMA_IT_TC | DMA_IT_HT | DMA_IT_TE));
 8000d06:	6823      	ldr	r3, [r4, #0]
 8000d08:	f043 030e 	orr.w	r3, r3, #14
      __HAL_DMA_ENABLE_IT(hdma, (DMA_IT_TC | DMA_IT_TE));
 8000d0c:	6023      	str	r3, [r4, #0]
    __HAL_DMA_ENABLE(hdma);
 8000d0e:	682b      	ldr	r3, [r5, #0]
  HAL_StatusTypeDef status = HAL_OK;
 8000d10:	2000      	movs	r0, #0
    __HAL_DMA_ENABLE(hdma);
 8000d12:	f043 0301 	orr.w	r3, r3, #1
 8000d16:	602b      	str	r3, [r5, #0]
 8000d18:	bdf0      	pop	{r4, r5, r6, r7, pc}
      __HAL_DMA_DISABLE_IT(hdma, DMA_IT_HT);
 8000d1a:	6823      	ldr	r3, [r4, #0]
 8000d1c:	f023 0304 	bic.w	r3, r3, #4
 8000d20:	6023      	str	r3, [r4, #0]
      __HAL_DMA_ENABLE_IT(hdma, (DMA_IT_TC | DMA_IT_TE));
 8000d22:	6823      	ldr	r3, [r4, #0]
 8000d24:	f043 030a 	orr.w	r3, r3, #10
 8000d28:	e7f0      	b.n	8000d0c <HAL_DMA_Start_IT+0x54>
    __HAL_UNLOCK(hdma); 
 8000d2a:	f880 6020 	strb.w	r6, [r0, #32]
  __HAL_LOCK(hdma);
 8000d2e:	2002      	movs	r0, #2
}
 8000d30:	bdf0      	pop	{r4, r5, r6, r7, pc}
	...

08000d34 <HAL_DMA_Abort_IT>:
  if(HAL_DMA_STATE_BUSY != hdma->State)
 8000d34:	f890 3021 	ldrb.w	r3, [r0, #33]	; 0x21
{  
 8000d38:	b510      	push	{r4, lr}
  if(HAL_DMA_STATE_BUSY != hdma->State)
 8000d3a:	2b02      	cmp	r3, #2
 8000d3c:	d003      	beq.n	8000d46 <HAL_DMA_Abort_IT+0x12>
    hdma->ErrorCode = HAL_DMA_ERROR_NO_XFER;
 8000d3e:	2304      	movs	r3, #4
 8000d40:	6383      	str	r3, [r0, #56]	; 0x38
    status = HAL_ERROR;
 8000d42:	2001      	movs	r0, #1
 8000d44:	bd10      	pop	{r4, pc}
    __HAL_DMA_DISABLE_IT(hdma, (DMA_IT_TC | DMA_IT_HT | DMA_IT_TE));
 8000d46:	6803      	ldr	r3, [r0, #0]
 8000d48:	681a      	ldr	r2, [r3, #0]
 8000d4a:	f022 020e 	bic.w	r2, r2, #14
 8000d4e:	601a      	str	r2, [r3, #0]
    __HAL_DMA_DISABLE(hdma);
 8000d50:	681a      	ldr	r2, [r3, #0]
 8000d52:	f022 0201 	bic.w	r2, r2, #1
 8000d56:	601a      	str	r2, [r3, #0]
    __HAL_DMA_CLEAR_FLAG(hdma, __HAL_DMA_GET_GI_FLAG_INDEX(hdma));
 8000d58:	4a29      	ldr	r2, [pc, #164]	; (8000e00 <HAL_DMA_Abort_IT+0xcc>)
 8000d5a:	4293      	cmp	r3, r2
 8000d5c:	d924      	bls.n	8000da8 <HAL_DMA_Abort_IT+0x74>
 8000d5e:	f502 7262 	add.w	r2, r2, #904	; 0x388
 8000d62:	4293      	cmp	r3, r2
 8000d64:	d019      	beq.n	8000d9a <HAL_DMA_Abort_IT+0x66>
 8000d66:	3214      	adds	r2, #20
 8000d68:	4293      	cmp	r3, r2
 8000d6a:	d018      	beq.n	8000d9e <HAL_DMA_Abort_IT+0x6a>
 8000d6c:	3214      	adds	r2, #20
 8000d6e:	4293      	cmp	r3, r2
 8000d70:	d017      	beq.n	8000da2 <HAL_DMA_Abort_IT+0x6e>
 8000d72:	3214      	adds	r2, #20
 8000d74:	4293      	cmp	r3, r2
 8000d76:	bf0c      	ite	eq
 8000d78:	f44f 5380 	moveq.w	r3, #4096	; 0x1000
 8000d7c:	f44f 3380 	movne.w	r3, #65536	; 0x10000
 8000d80:	4a20      	ldr	r2, [pc, #128]	; (8000e04 <HAL_DMA_Abort_IT+0xd0>)
 8000d82:	6053      	str	r3, [r2, #4]
    hdma->State = HAL_DMA_STATE_READY;
 8000d84:	2301      	movs	r3, #1
    __HAL_UNLOCK(hdma);
 8000d86:	2400      	movs	r4, #0
    hdma->State = HAL_DMA_STATE_READY;
 8000d88:	f880 3021 	strb.w	r3, [r0, #33]	; 0x21
    if(hdma->XferAbortCallback != NULL)
 8000d8c:	6b43      	ldr	r3, [r0, #52]	; 0x34
    __HAL_UNLOCK(hdma);
 8000d8e:	f880 4020 	strb.w	r4, [r0, #32]
    if(hdma->XferAbortCallback != NULL)
 8000d92:	b39b      	cbz	r3, 8000dfc <HAL_DMA_Abort_IT+0xc8>
      hdma->XferAbortCallback(hdma);
 8000d94:	4798      	blx	r3
  HAL_StatusTypeDef status = HAL_OK;
 8000d96:	4620      	mov	r0, r4
 8000d98:	bd10      	pop	{r4, pc}
    __HAL_DMA_CLEAR_FLAG(hdma, __HAL_DMA_GET_GI_FLAG_INDEX(hdma));
 8000d9a:	2301      	movs	r3, #1
 8000d9c:	e7f0      	b.n	8000d80 <HAL_DMA_Abort_IT+0x4c>
 8000d9e:	2310      	movs	r3, #16
 8000da0:	e7ee      	b.n	8000d80 <HAL_DMA_Abort_IT+0x4c>
 8000da2:	f44f 7380 	mov.w	r3, #256	; 0x100
 8000da6:	e7eb      	b.n	8000d80 <HAL_DMA_Abort_IT+0x4c>
 8000da8:	4917      	ldr	r1, [pc, #92]	; (8000e08 <HAL_DMA_Abort_IT+0xd4>)
 8000daa:	428b      	cmp	r3, r1
 8000dac:	d016      	beq.n	8000ddc <HAL_DMA_Abort_IT+0xa8>
 8000dae:	3114      	adds	r1, #20
 8000db0:	428b      	cmp	r3, r1
 8000db2:	d015      	beq.n	8000de0 <HAL_DMA_Abort_IT+0xac>
 8000db4:	3114      	adds	r1, #20
 8000db6:	428b      	cmp	r3, r1
 8000db8:	d014      	beq.n	8000de4 <HAL_DMA_Abort_IT+0xb0>
 8000dba:	3114      	adds	r1, #20
 8000dbc:	428b      	cmp	r3, r1
 8000dbe:	d014      	beq.n	8000dea <HAL_DMA_Abort_IT+0xb6>
 8000dc0:	3114      	adds	r1, #20
 8000dc2:	428b      	cmp	r3, r1
 8000dc4:	d014      	beq.n	8000df0 <HAL_DMA_Abort_IT+0xbc>
 8000dc6:	3114      	adds	r1, #20
 8000dc8:	428b      	cmp	r3, r1
 8000dca:	d014      	beq.n	8000df6 <HAL_DMA_Abort_IT+0xc2>
 8000dcc:	4293      	cmp	r3, r2
 8000dce:	bf14      	ite	ne
 8000dd0:	f44f 3380 	movne.w	r3, #65536	; 0x10000
 8000dd4:	f04f 7380 	moveq.w	r3, #16777216	; 0x1000000
 8000dd8:	4a0c      	ldr	r2, [pc, #48]	; (8000e0c <HAL_DMA_Abort_IT+0xd8>)
 8000dda:	e7d2      	b.n	8000d82 <HAL_DMA_Abort_IT+0x4e>
 8000ddc:	2301      	movs	r3, #1
 8000dde:	e7fb      	b.n	8000dd8 <HAL_DMA_Abort_IT+0xa4>
 8000de0:	2310      	movs	r3, #16
 8000de2:	e7f9      	b.n	8000dd8 <HAL_DMA_Abort_IT+0xa4>
 8000de4:	f44f 7380 	mov.w	r3, #256	; 0x100
 8000de8:	e7f6      	b.n	8000dd8 <HAL_DMA_Abort_IT+0xa4>
 8000dea:	f44f 5380 	mov.w	r3, #4096	; 0x1000
 8000dee:	e7f3      	b.n	8000dd8 <HAL_DMA_Abort_IT+0xa4>
 8000df0:	f44f 3380 	mov.w	r3, #65536	; 0x10000
 8000df4:	e7f0      	b.n	8000dd8 <HAL_DMA_Abort_IT+0xa4>
 8000df6:	f44f 1380 	mov.w	r3, #1048576	; 0x100000
 8000dfa:	e7ed      	b.n	8000dd8 <HAL_DMA_Abort_IT+0xa4>
  HAL_StatusTypeDef status = HAL_OK;
 8000dfc:	4618      	mov	r0, r3
}
 8000dfe:	bd10      	pop	{r4, pc}
 8000e00:	40020080 	.word	0x40020080
 8000e04:	40020400 	.word	0x40020400
 8000e08:	40020008 	.word	0x40020008
 8000e0c:	40020000 	.word	0x40020000

08000e10 <HAL_DMA_IRQHandler>:
{
 8000e10:	b470      	push	{r4, r5, r6}
  if (((flag_it & (DMA_FLAG_HT1 << hdma->ChannelIndex)) != RESET) && ((source_it & DMA_IT_HT) != RESET))
 8000e12:	2504      	movs	r5, #4
  uint32_t flag_it = hdma->DmaBaseAddress->ISR;
 8000e14:	6bc6      	ldr	r6, [r0, #60]	; 0x3c
  if (((flag_it & (DMA_FLAG_HT1 << hdma->ChannelIndex)) != RESET) && ((source_it & DMA_IT_HT) != RESET))
 8000e16:	6c02      	ldr	r2, [r0, #64]	; 0x40
  uint32_t flag_it = hdma->DmaBaseAddress->ISR;
 8000e18:	6834      	ldr	r4, [r6, #0]
  uint32_t source_it = hdma->Instance->CCR;
 8000e1a:	6803      	ldr	r3, [r0, #0]
  if (((flag_it & (DMA_FLAG_HT1 << hdma->ChannelIndex)) != RESET) && ((source_it & DMA_IT_HT) != RESET))
 8000e1c:	4095      	lsls	r5, r2
 8000e1e:	4225      	tst	r5, r4
  uint32_t source_it = hdma->Instance->CCR;
 8000e20:	6819      	ldr	r1, [r3, #0]
  if (((flag_it & (DMA_FLAG_HT1 << hdma->ChannelIndex)) != RESET) && ((source_it & DMA_IT_HT) != RESET))
 8000e22:	d055      	beq.n	8000ed0 <HAL_DMA_IRQHandler+0xc0>
 8000e24:	074d      	lsls	r5, r1, #29
 8000e26:	d553      	bpl.n	8000ed0 <HAL_DMA_IRQHandler+0xc0>
    if((hdma->Instance->CCR & DMA_CCR_CIRC) == 0U)
 8000e28:	681a      	ldr	r2, [r3, #0]
 8000e2a:	0696      	lsls	r6, r2, #26
      __HAL_DMA_DISABLE_IT(hdma, DMA_IT_HT);
 8000e2c:	bf5e      	ittt	pl
 8000e2e:	681a      	ldrpl	r2, [r3, #0]
 8000e30:	f022 0204 	bicpl.w	r2, r2, #4
 8000e34:	601a      	strpl	r2, [r3, #0]
    __HAL_DMA_CLEAR_FLAG(hdma, __HAL_DMA_GET_HT_FLAG_INDEX(hdma));
 8000e36:	4a60      	ldr	r2, [pc, #384]	; (8000fb8 <HAL_DMA_IRQHandler+0x1a8>)
 8000e38:	4293      	cmp	r3, r2
 8000e3a:	d91f      	bls.n	8000e7c <HAL_DMA_IRQHandler+0x6c>
 8000e3c:	f502 7262 	add.w	r2, r2, #904	; 0x388
 8000e40:	4293      	cmp	r3, r2
 8000e42:	d014      	beq.n	8000e6e <HAL_DMA_IRQHandler+0x5e>
 8000e44:	3214      	adds	r2, #20
 8000e46:	4293      	cmp	r3, r2
 8000e48:	d013      	beq.n	8000e72 <HAL_DMA_IRQHandler+0x62>
 8000e4a:	3214      	adds	r2, #20
 8000e4c:	4293      	cmp	r3, r2
 8000e4e:	d012      	beq.n	8000e76 <HAL_DMA_IRQHandler+0x66>
 8000e50:	3214      	adds	r2, #20
 8000e52:	4293      	cmp	r3, r2
 8000e54:	bf0c      	ite	eq
 8000e56:	f44f 4380 	moveq.w	r3, #16384	; 0x4000
 8000e5a:	f44f 2380 	movne.w	r3, #262144	; 0x40000
 8000e5e:	4a57      	ldr	r2, [pc, #348]	; (8000fbc <HAL_DMA_IRQHandler+0x1ac>)
 8000e60:	6053      	str	r3, [r2, #4]
    if(hdma->XferHalfCpltCallback != NULL)
 8000e62:	6ac3      	ldr	r3, [r0, #44]	; 0x2c
    if (hdma->XferErrorCallback != NULL)
 8000e64:	2b00      	cmp	r3, #0
 8000e66:	f000 80a5 	beq.w	8000fb4 <HAL_DMA_IRQHandler+0x1a4>
}
 8000e6a:	bc70      	pop	{r4, r5, r6}
      hdma->XferErrorCallback(hdma);
 8000e6c:	4718      	bx	r3
    __HAL_DMA_CLEAR_FLAG(hdma, __HAL_DMA_GET_HT_FLAG_INDEX(hdma));
 8000e6e:	2304      	movs	r3, #4
 8000e70:	e7f5      	b.n	8000e5e <HAL_DMA_IRQHandler+0x4e>
 8000e72:	2340      	movs	r3, #64	; 0x40
 8000e74:	e7f3      	b.n	8000e5e <HAL_DMA_IRQHandler+0x4e>
 8000e76:	f44f 6380 	mov.w	r3, #1024	; 0x400
 8000e7a:	e7f0      	b.n	8000e5e <HAL_DMA_IRQHandler+0x4e>
 8000e7c:	4950      	ldr	r1, [pc, #320]	; (8000fc0 <HAL_DMA_IRQHandler+0x1b0>)
 8000e7e:	428b      	cmp	r3, r1
 8000e80:	d016      	beq.n	8000eb0 <HAL_DMA_IRQHandler+0xa0>
 8000e82:	3114      	adds	r1, #20
 8000e84:	428b      	cmp	r3, r1
 8000e86:	d015      	beq.n	8000eb4 <HAL_DMA_IRQHandler+0xa4>
 8000e88:	3114      	adds	r1, #20
 8000e8a:	428b      	cmp	r3, r1
 8000e8c:	d014      	beq.n	8000eb8 <HAL_DMA_IRQHandler+0xa8>
 8000e8e:	3114      	adds	r1, #20
 8000e90:	428b      	cmp	r3, r1
 8000e92:	d014      	beq.n	8000ebe <HAL_DMA_IRQHandler+0xae>
 8000e94:	3114      	adds	r1, #20
 8000e96:	428b      	cmp	r3, r1
 8000e98:	d014      	beq.n	8000ec4 <HAL_DMA_IRQHandler+0xb4>
 8000e9a:	3114      	adds	r1, #20
 8000e9c:	428b      	cmp	r3, r1
 8000e9e:	d014      	beq.n	8000eca <HAL_DMA_IRQHandler+0xba>
 8000ea0:	4293      	cmp	r3, r2
 8000ea2:	bf14      	ite	ne
 8000ea4:	f44f 2380 	movne.w	r3, #262144	; 0x40000
 8000ea8:	f04f 6380 	moveq.w	r3, #67108864	; 0x4000000
 8000eac:	4a45      	ldr	r2, [pc, #276]	; (8000fc4 <HAL_DMA_IRQHandler+0x1b4>)
 8000eae:	e7d7      	b.n	8000e60 <HAL_DMA_IRQHandler+0x50>
 8000eb0:	2304      	movs	r3, #4
 8000eb2:	e7fb      	b.n	8000eac <HAL_DMA_IRQHandler+0x9c>
 8000eb4:	2340      	movs	r3, #64	; 0x40
 8000eb6:	e7f9      	b.n	8000eac <HAL_DMA_IRQHandler+0x9c>
 8000eb8:	f44f 6380 	mov.w	r3, #1024	; 0x400
 8000ebc:	e7f6      	b.n	8000eac <HAL_DMA_IRQHandler+0x9c>
 8000ebe:	f44f 4380 	mov.w	r3, #16384	; 0x4000
 8000ec2:	e7f3      	b.n	8000eac <HAL_DMA_IRQHandler+0x9c>
 8000ec4:	f44f 2380 	mov.w	r3, #262144	; 0x40000
 8000ec8:	e7f0      	b.n	8000eac <HAL_DMA_IRQHandler+0x9c>
 8000eca:	f44f 0380 	mov.w	r3, #4194304	; 0x400000
 8000ece:	e7ed      	b.n	8000eac <HAL_DMA_IRQHandler+0x9c>
  else if (((flag_it & (DMA_FLAG_TC1 << hdma->ChannelIndex)) != RESET) && ((source_it & DMA_IT_TC) != RESET))
 8000ed0:	2502      	movs	r5, #2
 8000ed2:	4095      	lsls	r5, r2
 8000ed4:	4225      	tst	r5, r4
 8000ed6:	d057      	beq.n	8000f88 <HAL_DMA_IRQHandler+0x178>
 8000ed8:	078d      	lsls	r5, r1, #30
 8000eda:	d555      	bpl.n	8000f88 <HAL_DMA_IRQHandler+0x178>
    if((hdma->Instance->CCR & DMA_CCR_CIRC) == 0U)
 8000edc:	681a      	ldr	r2, [r3, #0]
 8000ede:	0694      	lsls	r4, r2, #26
 8000ee0:	d406      	bmi.n	8000ef0 <HAL_DMA_IRQHandler+0xe0>
      __HAL_DMA_DISABLE_IT(hdma, DMA_IT_TE | DMA_IT_TC);  
 8000ee2:	681a      	ldr	r2, [r3, #0]
 8000ee4:	f022 020a 	bic.w	r2, r2, #10
 8000ee8:	601a      	str	r2, [r3, #0]
      hdma->State = HAL_DMA_STATE_READY;
 8000eea:	2201      	movs	r2, #1
 8000eec:	f880 2021 	strb.w	r2, [r0, #33]	; 0x21
      __HAL_DMA_CLEAR_FLAG(hdma, __HAL_DMA_GET_TC_FLAG_INDEX(hdma));
 8000ef0:	4a31      	ldr	r2, [pc, #196]	; (8000fb8 <HAL_DMA_IRQHandler+0x1a8>)
 8000ef2:	4293      	cmp	r3, r2
 8000ef4:	d91e      	bls.n	8000f34 <HAL_DMA_IRQHandler+0x124>
 8000ef6:	f502 7262 	add.w	r2, r2, #904	; 0x388
 8000efa:	4293      	cmp	r3, r2
 8000efc:	d013      	beq.n	8000f26 <HAL_DMA_IRQHandler+0x116>
 8000efe:	3214      	adds	r2, #20
 8000f00:	4293      	cmp	r3, r2
 8000f02:	d012      	beq.n	8000f2a <HAL_DMA_IRQHandler+0x11a>
 8000f04:	3214      	adds	r2, #20
 8000f06:	4293      	cmp	r3, r2
 8000f08:	d011      	beq.n	8000f2e <HAL_DMA_IRQHandler+0x11e>
 8000f0a:	3214      	adds	r2, #20
 8000f0c:	4293      	cmp	r3, r2
 8000f0e:	bf0c      	ite	eq
 8000f10:	f44f 5300 	moveq.w	r3, #8192	; 0x2000
 8000f14:	f44f 3300 	movne.w	r3, #131072	; 0x20000
 8000f18:	4a28      	ldr	r2, [pc, #160]	; (8000fbc <HAL_DMA_IRQHandler+0x1ac>)
 8000f1a:	6053      	str	r3, [r2, #4]
    __HAL_UNLOCK(hdma);
 8000f1c:	2300      	movs	r3, #0
 8000f1e:	f880 3020 	strb.w	r3, [r0, #32]
    if(hdma->XferCpltCallback != NULL)
 8000f22:	6a83      	ldr	r3, [r0, #40]	; 0x28
 8000f24:	e79e      	b.n	8000e64 <HAL_DMA_IRQHandler+0x54>
      __HAL_DMA_CLEAR_FLAG(hdma, __HAL_DMA_GET_TC_FLAG_INDEX(hdma));
 8000f26:	2302      	movs	r3, #2
 8000f28:	e7f6      	b.n	8000f18 <HAL_DMA_IRQHandler+0x108>
 8000f2a:	2320      	movs	r3, #32
 8000f2c:	e7f4      	b.n	8000f18 <HAL_DMA_IRQHandler+0x108>
 8000f2e:	f44f 7300 	mov.w	r3, #512	; 0x200
 8000f32:	e7f1      	b.n	8000f18 <HAL_DMA_IRQHandler+0x108>
 8000f34:	4922      	ldr	r1, [pc, #136]	; (8000fc0 <HAL_DMA_IRQHandler+0x1b0>)
 8000f36:	428b      	cmp	r3, r1
 8000f38:	d016      	beq.n	8000f68 <HAL_DMA_IRQHandler+0x158>
 8000f3a:	3114      	adds	r1, #20
 8000f3c:	428b      	cmp	r3, r1
 8000f3e:	d015      	beq.n	8000f6c <HAL_DMA_IRQHandler+0x15c>
 8000f40:	3114      	adds	r1, #20
 8000f42:	428b      	cmp	r3, r1
 8000f44:	d014      	beq.n	8000f70 <HAL_DMA_IRQHandler+0x160>
 8000f46:	3114      	adds	r1, #20
 8000f48:	428b      	cmp	r3, r1
 8000f4a:	d014      	beq.n	8000f76 <HAL_DMA_IRQHandler+0x166>
 8000f4c:	3114      	adds	r1, #20
 8000f4e:	428b      	cmp	r3, r1
 8000f50:	d014      	beq.n	8000f7c <HAL_DMA_IRQHandler+0x16c>
 8000f52:	3114      	adds	r1, #20
 8000f54:	428b      	cmp	r3, r1
 8000f56:	d014      	beq.n	8000f82 <HAL_DMA_IRQHandler+0x172>
 8000f58:	4293      	cmp	r3, r2
 8000f5a:	bf14      	ite	ne
 8000f5c:	f44f 3300 	movne.w	r3, #131072	; 0x20000
 8000f60:	f04f 7300 	moveq.w	r3, #33554432	; 0x2000000
 8000f64:	4a17      	ldr	r2, [pc, #92]	; (8000fc4 <HAL_DMA_IRQHandler+0x1b4>)
 8000f66:	e7d8      	b.n	8000f1a <HAL_DMA_IRQHandler+0x10a>
 8000f68:	2302      	movs	r3, #2
 8000f6a:	e7fb      	b.n	8000f64 <HAL_DMA_IRQHandler+0x154>
 8000f6c:	2320      	movs	r3, #32
 8000f6e:	e7f9      	b.n	8000f64 <HAL_DMA_IRQHandler+0x154>
 8000f70:	f44f 7300 	mov.w	r3, #512	; 0x200
 8000f74:	e7f6      	b.n	8000f64 <HAL_DMA_IRQHandler+0x154>
 8000f76:	f44f 5300 	mov.w	r3, #8192	; 0x2000
 8000f7a:	e7f3      	b.n	8000f64 <HAL_DMA_IRQHandler+0x154>
 8000f7c:	f44f 3300 	mov.w	r3, #131072	; 0x20000
 8000f80:	e7f0      	b.n	8000f64 <HAL_DMA_IRQHandler+0x154>
 8000f82:	f44f 1300 	mov.w	r3, #2097152	; 0x200000
 8000f86:	e7ed      	b.n	8000f64 <HAL_DMA_IRQHandler+0x154>
  else if (( RESET != (flag_it & (DMA_FLAG_TE1 << hdma->ChannelIndex))) && (RESET != (source_it & DMA_IT_TE)))
 8000f88:	2508      	movs	r5, #8
 8000f8a:	4095      	lsls	r5, r2
 8000f8c:	4225      	tst	r5, r4
 8000f8e:	d011      	beq.n	8000fb4 <HAL_DMA_IRQHandler+0x1a4>
 8000f90:	0709      	lsls	r1, r1, #28
 8000f92:	d50f      	bpl.n	8000fb4 <HAL_DMA_IRQHandler+0x1a4>
    __HAL_DMA_DISABLE_IT(hdma, (DMA_IT_TC | DMA_IT_HT | DMA_IT_TE));
 8000f94:	6819      	ldr	r1, [r3, #0]
 8000f96:	f021 010e 	bic.w	r1, r1, #14
 8000f9a:	6019      	str	r1, [r3, #0]
    hdma->DmaBaseAddress->IFCR = (DMA_ISR_GIF1 << hdma->ChannelIndex);
 8000f9c:	2301      	movs	r3, #1
 8000f9e:	fa03 f202 	lsl.w	r2, r3, r2
 8000fa2:	6072      	str	r2, [r6, #4]
    hdma->ErrorCode = HAL_DMA_ERROR_TE;
 8000fa4:	6383      	str	r3, [r0, #56]	; 0x38
    hdma->State = HAL_DMA_STATE_READY;
 8000fa6:	f880 3021 	strb.w	r3, [r0, #33]	; 0x21
    __HAL_UNLOCK(hdma);
 8000faa:	2300      	movs	r3, #0
 8000fac:	f880 3020 	strb.w	r3, [r0, #32]
    if (hdma->XferErrorCallback != NULL)
 8000fb0:	6b03      	ldr	r3, [r0, #48]	; 0x30
 8000fb2:	e757      	b.n	8000e64 <HAL_DMA_IRQHandler+0x54>
}
 8000fb4:	bc70      	pop	{r4, r5, r6}
 8000fb6:	4770      	bx	lr
 8000fb8:	40020080 	.word	0x40020080
 8000fbc:	40020400 	.word	0x40020400
 8000fc0:	40020008 	.word	0x40020008
 8000fc4:	40020000 	.word	0x40020000

08000fc8 <FLASH_SetErrorCode>:
  uint32_t flags = 0U;
  
#if defined(FLASH_BANK2_END)
  if(__HAL_FLASH_GET_FLAG(FLASH_FLAG_WRPERR) || __HAL_FLASH_GET_FLAG(FLASH_FLAG_WRPERR_BANK2))
#else
  if(__HAL_FLASH_GET_FLAG(FLASH_FLAG_WRPERR))
 8000fc8:	4a11      	ldr	r2, [pc, #68]	; (8001010 <FLASH_SetErrorCode+0x48>)
 8000fca:	68d3      	ldr	r3, [r2, #12]
 8000fcc:	f013 0310 	ands.w	r3, r3, #16
 8000fd0:	d005      	beq.n	8000fde <FLASH_SetErrorCode+0x16>
#endif /* FLASH_BANK2_END */
  {
    pFlash.ErrorCode |= HAL_FLASH_ERROR_WRP;
 8000fd2:	4910      	ldr	r1, [pc, #64]	; (8001014 <FLASH_SetErrorCode+0x4c>)
 8000fd4:	69cb      	ldr	r3, [r1, #28]
 8000fd6:	f043 0302 	orr.w	r3, r3, #2
 8000fda:	61cb      	str	r3, [r1, #28]
#if defined(FLASH_BANK2_END)
    flags |= FLASH_FLAG_WRPERR | FLASH_FLAG_WRPERR_BANK2;
#else
    flags |= FLASH_FLAG_WRPERR;
 8000fdc:	2310      	movs	r3, #16
#endif /* FLASH_BANK2_END */
  }
#if defined(FLASH_BANK2_END)
  if(__HAL_FLASH_GET_FLAG(FLASH_FLAG_PGERR) || __HAL_FLASH_GET_FLAG(FLASH_FLAG_PGERR_BANK2))
#else
  if(__HAL_FLASH_GET_FLAG(FLASH_FLAG_PGERR))
 8000fde:	68d2      	ldr	r2, [r2, #12]
 8000fe0:	0750      	lsls	r0, r2, #29
 8000fe2:	d506      	bpl.n	8000ff2 <FLASH_SetErrorCode+0x2a>
#endif /* FLASH_BANK2_END */
  {
    pFlash.ErrorCode |= HAL_FLASH_ERROR_PROG;
 8000fe4:	490b      	ldr	r1, [pc, #44]	; (8001014 <FLASH_SetErrorCode+0x4c>)
#if defined(FLASH_BANK2_END)
    flags |= FLASH_FLAG_PGERR | FLASH_FLAG_PGERR_BANK2;
#else
    flags |= FLASH_FLAG_PGERR;
 8000fe6:	f043 0304 	orr.w	r3, r3, #4
    pFlash.ErrorCode |= HAL_FLASH_ERROR_PROG;
 8000fea:	69ca      	ldr	r2, [r1, #28]
 8000fec:	f042 0201 	orr.w	r2, r2, #1
 8000ff0:	61ca      	str	r2, [r1, #28]
#endif /* FLASH_BANK2_END */
  }
  if(__HAL_FLASH_GET_FLAG(FLASH_FLAG_OPTVERR))
 8000ff2:	4a07      	ldr	r2, [pc, #28]	; (8001010 <FLASH_SetErrorCode+0x48>)
 8000ff4:	69d1      	ldr	r1, [r2, #28]
 8000ff6:	07c9      	lsls	r1, r1, #31
 8000ff8:	d508      	bpl.n	800100c <FLASH_SetErrorCode+0x44>
  {
    pFlash.ErrorCode |= HAL_FLASH_ERROR_OPTV;
 8000ffa:	4806      	ldr	r0, [pc, #24]	; (8001014 <FLASH_SetErrorCode+0x4c>)
 8000ffc:	69c1      	ldr	r1, [r0, #28]
 8000ffe:	f041 0104 	orr.w	r1, r1, #4
 8001002:	61c1      	str	r1, [r0, #28]
  __HAL_FLASH_CLEAR_FLAG(FLASH_FLAG_OPTVERR);
 8001004:	69d1      	ldr	r1, [r2, #28]
 8001006:	f021 0101 	bic.w	r1, r1, #1
 800100a:	61d1      	str	r1, [r2, #28]
  }

  /* Clear FLASH error pending bits */
  __HAL_FLASH_CLEAR_FLAG(flags);
 800100c:	60d3      	str	r3, [r2, #12]
 800100e:	4770      	bx	lr
 8001010:	40022000 	.word	0x40022000
 8001014:	20005248 	.word	0x20005248

08001018 <HAL_FLASH_Unlock>:
  if(READ_BIT(FLASH->CR, FLASH_CR_LOCK) != RESET)
 8001018:	4b06      	ldr	r3, [pc, #24]	; (8001034 <HAL_FLASH_Unlock+0x1c>)
 800101a:	6918      	ldr	r0, [r3, #16]
 800101c:	f010 0080 	ands.w	r0, r0, #128	; 0x80
 8001020:	d007      	beq.n	8001032 <HAL_FLASH_Unlock+0x1a>
    WRITE_REG(FLASH->KEYR, FLASH_KEY1);
 8001022:	4a05      	ldr	r2, [pc, #20]	; (8001038 <HAL_FLASH_Unlock+0x20>)
 8001024:	605a      	str	r2, [r3, #4]
    WRITE_REG(FLASH->KEYR, FLASH_KEY2);
 8001026:	f102 3288 	add.w	r2, r2, #2290649224	; 0x88888888
 800102a:	605a      	str	r2, [r3, #4]
    if(READ_BIT(FLASH->CR, FLASH_CR_LOCK) != RESET)
 800102c:	6918      	ldr	r0, [r3, #16]
  HAL_StatusTypeDef status = HAL_OK;
 800102e:	f3c0 10c0 	ubfx	r0, r0, #7, #1
}
 8001032:	4770      	bx	lr
 8001034:	40022000 	.word	0x40022000
 8001038:	45670123 	.word	0x45670123

0800103c <HAL_FLASH_Lock>:
  SET_BIT(FLASH->CR, FLASH_CR_LOCK);
 800103c:	4a03      	ldr	r2, [pc, #12]	; (800104c <HAL_FLASH_Lock+0x10>)
}
 800103e:	2000      	movs	r0, #0
  SET_BIT(FLASH->CR, FLASH_CR_LOCK);
 8001040:	6913      	ldr	r3, [r2, #16]
 8001042:	f043 0380 	orr.w	r3, r3, #128	; 0x80
 8001046:	6113      	str	r3, [r2, #16]
}
 8001048:	4770      	bx	lr
 800104a:	bf00      	nop
 800104c:	40022000 	.word	0x40022000

08001050 <FLASH_WaitForLastOperation>:
{
 8001050:	b5f8      	push	{r3, r4, r5, r6, r7, lr}
 8001052:	4606      	mov	r6, r0
  uint32_t tickstart = HAL_GetTick();
 8001054:	f7ff faca 	bl	80005ec <HAL_GetTick>
  while(__HAL_FLASH_GET_FLAG(FLASH_FLAG_BSY)) 
 8001058:	4c11      	ldr	r4, [pc, #68]	; (80010a0 <FLASH_WaitForLastOperation+0x50>)
  uint32_t tickstart = HAL_GetTick();
 800105a:	4607      	mov	r7, r0
 800105c:	4625      	mov	r5, r4
  while(__HAL_FLASH_GET_FLAG(FLASH_FLAG_BSY)) 
 800105e:	68e3      	ldr	r3, [r4, #12]
 8001060:	07d8      	lsls	r0, r3, #31
 8001062:	d412      	bmi.n	800108a <FLASH_WaitForLastOperation+0x3a>
  if (__HAL_FLASH_GET_FLAG(FLASH_FLAG_EOP))
 8001064:	68e3      	ldr	r3, [r4, #12]
 8001066:	0699      	lsls	r1, r3, #26
    __HAL_FLASH_CLEAR_FLAG(FLASH_FLAG_EOP);
 8001068:	bf44      	itt	mi
 800106a:	2320      	movmi	r3, #32
 800106c:	60e3      	strmi	r3, [r4, #12]
  if(__HAL_FLASH_GET_FLAG(FLASH_FLAG_WRPERR)  || 
 800106e:	68eb      	ldr	r3, [r5, #12]
 8001070:	06da      	lsls	r2, r3, #27
 8001072:	d406      	bmi.n	8001082 <FLASH_WaitForLastOperation+0x32>
     __HAL_FLASH_GET_FLAG(FLASH_FLAG_OPTVERR) || 
 8001074:	69eb      	ldr	r3, [r5, #28]
  if(__HAL_FLASH_GET_FLAG(FLASH_FLAG_WRPERR)  || 
 8001076:	07db      	lsls	r3, r3, #31
 8001078:	d403      	bmi.n	8001082 <FLASH_WaitForLastOperation+0x32>
     __HAL_FLASH_GET_FLAG(FLASH_FLAG_PGERR))
 800107a:	68e8      	ldr	r0, [r5, #12]
     __HAL_FLASH_GET_FLAG(FLASH_FLAG_OPTVERR) || 
 800107c:	f010 0004 	ands.w	r0, r0, #4
 8001080:	d002      	beq.n	8001088 <FLASH_WaitForLastOperation+0x38>
    FLASH_SetErrorCode();
 8001082:	f7ff ffa1 	bl	8000fc8 <FLASH_SetErrorCode>
    return HAL_ERROR;
 8001086:	2001      	movs	r0, #1
}
 8001088:	bdf8      	pop	{r3, r4, r5, r6, r7, pc}
    if (Timeout != HAL_MAX_DELAY)
 800108a:	1c73      	adds	r3, r6, #1
 800108c:	d0e7      	beq.n	800105e <FLASH_WaitForLastOperation+0xe>
      if((Timeout == 0U) || ((HAL_GetTick()-tickstart) > Timeout))
 800108e:	b90e      	cbnz	r6, 8001094 <FLASH_WaitForLastOperation+0x44>
        return HAL_TIMEOUT;
 8001090:	2003      	movs	r0, #3
 8001092:	bdf8      	pop	{r3, r4, r5, r6, r7, pc}
      if((Timeout == 0U) || ((HAL_GetTick()-tickstart) > Timeout))
 8001094:	f7ff faaa 	bl	80005ec <HAL_GetTick>
 8001098:	1bc0      	subs	r0, r0, r7
 800109a:	4286      	cmp	r6, r0
 800109c:	d2df      	bcs.n	800105e <FLASH_WaitForLastOperation+0xe>
 800109e:	e7f7      	b.n	8001090 <FLASH_WaitForLastOperation+0x40>
 80010a0:	40022000 	.word	0x40022000

080010a4 <HAL_FLASH_Program>:
{
 80010a4:	e92d 4ff8 	stmdb	sp!, {r3, r4, r5, r6, r7, r8, r9, sl, fp, lr}
  __HAL_LOCK(&pFlash);
 80010a8:	4c1f      	ldr	r4, [pc, #124]	; (8001128 <HAL_FLASH_Program+0x84>)
{
 80010aa:	4699      	mov	r9, r3
  __HAL_LOCK(&pFlash);
 80010ac:	7e23      	ldrb	r3, [r4, #24]
{
 80010ae:	4605      	mov	r5, r0
  __HAL_LOCK(&pFlash);
 80010b0:	2b01      	cmp	r3, #1
{
 80010b2:	460f      	mov	r7, r1
 80010b4:	4690      	mov	r8, r2
  __HAL_LOCK(&pFlash);
 80010b6:	d033      	beq.n	8001120 <HAL_FLASH_Program+0x7c>
 80010b8:	2301      	movs	r3, #1
    status = FLASH_WaitForLastOperation(FLASH_TIMEOUT_VALUE);
 80010ba:	f24c 3050 	movw	r0, #50000	; 0xc350
  __HAL_LOCK(&pFlash);
 80010be:	7623      	strb	r3, [r4, #24]
    status = FLASH_WaitForLastOperation(FLASH_TIMEOUT_VALUE);
 80010c0:	f7ff ffc6 	bl	8001050 <FLASH_WaitForLastOperation>
  if(status == HAL_OK)
 80010c4:	bb40      	cbnz	r0, 8001118 <HAL_FLASH_Program+0x74>
    if(TypeProgram == FLASH_TYPEPROGRAM_HALFWORD)
 80010c6:	2d01      	cmp	r5, #1
 80010c8:	d003      	beq.n	80010d2 <HAL_FLASH_Program+0x2e>
      nbiterations = 4U;
 80010ca:	2d02      	cmp	r5, #2
 80010cc:	bf0c      	ite	eq
 80010ce:	2502      	moveq	r5, #2
 80010d0:	2504      	movne	r5, #4
 80010d2:	2600      	movs	r6, #0
  pFlash.ErrorCode = HAL_FLASH_ERROR_NONE;
 80010d4:	46b2      	mov	sl, r6
    SET_BIT(FLASH->CR, FLASH_CR_PG);
 80010d6:	f8df b054 	ldr.w	fp, [pc, #84]	; 800112c <HAL_FLASH_Program+0x88>
      FLASH_Program_HalfWord((Address + (2U*index)), (uint16_t)(Data >> (16U*index)));
 80010da:	0132      	lsls	r2, r6, #4
 80010dc:	4640      	mov	r0, r8
 80010de:	4649      	mov	r1, r9
 80010e0:	f7ff f8ae 	bl	8000240 <__aeabi_llsr>
  pFlash.ErrorCode = HAL_FLASH_ERROR_NONE;
 80010e4:	f8c4 a01c 	str.w	sl, [r4, #28]
    SET_BIT(FLASH->CR, FLASH_CR_PG);
 80010e8:	f8db 3010 	ldr.w	r3, [fp, #16]
      FLASH_Program_HalfWord((Address + (2U*index)), (uint16_t)(Data >> (16U*index)));
 80010ec:	b280      	uxth	r0, r0
    SET_BIT(FLASH->CR, FLASH_CR_PG);
 80010ee:	f043 0301 	orr.w	r3, r3, #1
 80010f2:	f8cb 3010 	str.w	r3, [fp, #16]
  *(__IO uint16_t*)Address = Data;
 80010f6:	f827 0016 	strh.w	r0, [r7, r6, lsl #1]
        status = FLASH_WaitForLastOperation(FLASH_TIMEOUT_VALUE);
 80010fa:	f24c 3050 	movw	r0, #50000	; 0xc350
 80010fe:	f7ff ffa7 	bl	8001050 <FLASH_WaitForLastOperation>
        CLEAR_BIT(FLASH->CR, FLASH_CR_PG);
 8001102:	f8db 3010 	ldr.w	r3, [fp, #16]
 8001106:	f023 0301 	bic.w	r3, r3, #1
 800110a:	f8cb 3010 	str.w	r3, [fp, #16]
      if (status != HAL_OK)
 800110e:	b918      	cbnz	r0, 8001118 <HAL_FLASH_Program+0x74>
 8001110:	3601      	adds	r6, #1
    for (index = 0U; index < nbiterations; index++)
 8001112:	b2f3      	uxtb	r3, r6
 8001114:	429d      	cmp	r5, r3
 8001116:	d8e0      	bhi.n	80010da <HAL_FLASH_Program+0x36>
  __HAL_UNLOCK(&pFlash);
 8001118:	2300      	movs	r3, #0
 800111a:	7623      	strb	r3, [r4, #24]
  return status;
 800111c:	e8bd 8ff8 	ldmia.w	sp!, {r3, r4, r5, r6, r7, r8, r9, sl, fp, pc}
  __HAL_LOCK(&pFlash);
 8001120:	2002      	movs	r0, #2
}
 8001122:	e8bd 8ff8 	ldmia.w	sp!, {r3, r4, r5, r6, r7, r8, r9, sl, fp, pc}
 8001126:	bf00      	nop
 8001128:	20005248 	.word	0x20005248
 800112c:	40022000 	.word	0x40022000

08001130 <FLASH_MassErase.isra.0>:
{
  /* Check the parameters */
  assert_param(IS_FLASH_BANK(Banks));

  /* Clean the error context */
  pFlash.ErrorCode = HAL_FLASH_ERROR_NONE;
 8001130:	2200      	movs	r2, #0
 8001132:	4b06      	ldr	r3, [pc, #24]	; (800114c <FLASH_MassErase.isra.0+0x1c>)
 8001134:	61da      	str	r2, [r3, #28]
#if !defined(FLASH_BANK2_END)
  /* Prevent unused argument(s) compilation warning */
  UNUSED(Banks);
#endif /* FLASH_BANK2_END */  
    /* Only bank1 will be erased*/
    SET_BIT(FLASH->CR, FLASH_CR_MER);
 8001136:	4b06      	ldr	r3, [pc, #24]	; (8001150 <FLASH_MassErase.isra.0+0x20>)
 8001138:	691a      	ldr	r2, [r3, #16]
 800113a:	f042 0204 	orr.w	r2, r2, #4
 800113e:	611a      	str	r2, [r3, #16]
    SET_BIT(FLASH->CR, FLASH_CR_STRT);
 8001140:	691a      	ldr	r2, [r3, #16]
 8001142:	f042 0240 	orr.w	r2, r2, #64	; 0x40
 8001146:	611a      	str	r2, [r3, #16]
 8001148:	4770      	bx	lr
 800114a:	bf00      	nop
 800114c:	20005248 	.word	0x20005248
 8001150:	40022000 	.word	0x40022000

08001154 <FLASH_PageErase>:
  * @retval None
  */
void FLASH_PageErase(uint32_t PageAddress)
{
  /* Clean the error context */
  pFlash.ErrorCode = HAL_FLASH_ERROR_NONE;
 8001154:	2200      	movs	r2, #0
 8001156:	4b06      	ldr	r3, [pc, #24]	; (8001170 <FLASH_PageErase+0x1c>)
 8001158:	61da      	str	r2, [r3, #28]
  }
  else
  {
#endif /* FLASH_BANK2_END */
    /* Proceed to erase the page */
    SET_BIT(FLASH->CR, FLASH_CR_PER);
 800115a:	4b06      	ldr	r3, [pc, #24]	; (8001174 <FLASH_PageErase+0x20>)
 800115c:	691a      	ldr	r2, [r3, #16]
 800115e:	f042 0202 	orr.w	r2, r2, #2
 8001162:	611a      	str	r2, [r3, #16]
    WRITE_REG(FLASH->AR, PageAddress);
 8001164:	6158      	str	r0, [r3, #20]
    SET_BIT(FLASH->CR, FLASH_CR_STRT);
 8001166:	691a      	ldr	r2, [r3, #16]
 8001168:	f042 0240 	orr.w	r2, r2, #64	; 0x40
 800116c:	611a      	str	r2, [r3, #16]
 800116e:	4770      	bx	lr
 8001170:	20005248 	.word	0x20005248
 8001174:	40022000 	.word	0x40022000

08001178 <HAL_FLASHEx_Erase>:
{
 8001178:	e92d 41f0 	stmdb	sp!, {r4, r5, r6, r7, r8, lr}
  __HAL_LOCK(&pFlash);
 800117c:	4d23      	ldr	r5, [pc, #140]	; (800120c <HAL_FLASHEx_Erase+0x94>)
{
 800117e:	4607      	mov	r7, r0
  __HAL_LOCK(&pFlash);
 8001180:	7e2b      	ldrb	r3, [r5, #24]
{
 8001182:	4688      	mov	r8, r1
  __HAL_LOCK(&pFlash);
 8001184:	2b01      	cmp	r3, #1
 8001186:	d03d      	beq.n	8001204 <HAL_FLASHEx_Erase+0x8c>
 8001188:	2401      	movs	r4, #1
  if (pEraseInit->TypeErase == FLASH_TYPEERASE_MASSERASE)
 800118a:	6803      	ldr	r3, [r0, #0]
  __HAL_LOCK(&pFlash);
 800118c:	762c      	strb	r4, [r5, #24]
  if (pEraseInit->TypeErase == FLASH_TYPEERASE_MASSERASE)
 800118e:	2b02      	cmp	r3, #2
      if (FLASH_WaitForLastOperation((uint32_t)FLASH_TIMEOUT_VALUE) == HAL_OK)
 8001190:	f24c 3050 	movw	r0, #50000	; 0xc350
  if (pEraseInit->TypeErase == FLASH_TYPEERASE_MASSERASE)
 8001194:	d113      	bne.n	80011be <HAL_FLASHEx_Erase+0x46>
      if (FLASH_WaitForLastOperation((uint32_t)FLASH_TIMEOUT_VALUE) == HAL_OK)
 8001196:	f7ff ff5b 	bl	8001050 <FLASH_WaitForLastOperation>
 800119a:	b120      	cbz	r0, 80011a6 <HAL_FLASHEx_Erase+0x2e>
  HAL_StatusTypeDef status = HAL_ERROR;
 800119c:	2001      	movs	r0, #1
  __HAL_UNLOCK(&pFlash);
 800119e:	2300      	movs	r3, #0
 80011a0:	762b      	strb	r3, [r5, #24]
  return status;
 80011a2:	e8bd 81f0 	ldmia.w	sp!, {r4, r5, r6, r7, r8, pc}
        FLASH_MassErase(FLASH_BANK_1);
 80011a6:	f7ff ffc3 	bl	8001130 <FLASH_MassErase.isra.0>
        status = FLASH_WaitForLastOperation((uint32_t)FLASH_TIMEOUT_VALUE);
 80011aa:	f24c 3050 	movw	r0, #50000	; 0xc350
 80011ae:	f7ff ff4f 	bl	8001050 <FLASH_WaitForLastOperation>
        CLEAR_BIT(FLASH->CR, FLASH_CR_MER);
 80011b2:	4a17      	ldr	r2, [pc, #92]	; (8001210 <HAL_FLASHEx_Erase+0x98>)
 80011b4:	6913      	ldr	r3, [r2, #16]
 80011b6:	f023 0304 	bic.w	r3, r3, #4
 80011ba:	6113      	str	r3, [r2, #16]
 80011bc:	e7ef      	b.n	800119e <HAL_FLASHEx_Erase+0x26>
      if (FLASH_WaitForLastOperation((uint32_t)FLASH_TIMEOUT_VALUE) == HAL_OK)
 80011be:	f7ff ff47 	bl	8001050 <FLASH_WaitForLastOperation>
 80011c2:	2800      	cmp	r0, #0
 80011c4:	d1ea      	bne.n	800119c <HAL_FLASHEx_Erase+0x24>
        *PageError = 0xFFFFFFFFU;
 80011c6:	f04f 33ff 	mov.w	r3, #4294967295
 80011ca:	f8c8 3000 	str.w	r3, [r8]
  HAL_StatusTypeDef status = HAL_ERROR;
 80011ce:	4620      	mov	r0, r4
        for(address = pEraseInit->PageAddress;
 80011d0:	68be      	ldr	r6, [r7, #8]
          CLEAR_BIT(FLASH->CR, FLASH_CR_PER);
 80011d2:	4c0f      	ldr	r4, [pc, #60]	; (8001210 <HAL_FLASHEx_Erase+0x98>)
            address < ((pEraseInit->NbPages * FLASH_PAGE_SIZE) + pEraseInit->PageAddress);
 80011d4:	68fa      	ldr	r2, [r7, #12]
 80011d6:	68bb      	ldr	r3, [r7, #8]
 80011d8:	eb03 23c2 	add.w	r3, r3, r2, lsl #11
        for(address = pEraseInit->PageAddress;
 80011dc:	429e      	cmp	r6, r3
 80011de:	d2de      	bcs.n	800119e <HAL_FLASHEx_Erase+0x26>
          FLASH_PageErase(address);
 80011e0:	4630      	mov	r0, r6
 80011e2:	f7ff ffb7 	bl	8001154 <FLASH_PageErase>
          status = FLASH_WaitForLastOperation((uint32_t)FLASH_TIMEOUT_VALUE);
 80011e6:	f24c 3050 	movw	r0, #50000	; 0xc350
 80011ea:	f7ff ff31 	bl	8001050 <FLASH_WaitForLastOperation>
          CLEAR_BIT(FLASH->CR, FLASH_CR_PER);
 80011ee:	6923      	ldr	r3, [r4, #16]
 80011f0:	f023 0302 	bic.w	r3, r3, #2
 80011f4:	6123      	str	r3, [r4, #16]
          if (status != HAL_OK)
 80011f6:	b110      	cbz	r0, 80011fe <HAL_FLASHEx_Erase+0x86>
            *PageError = address;
 80011f8:	f8c8 6000 	str.w	r6, [r8]
            break;
 80011fc:	e7cf      	b.n	800119e <HAL_FLASHEx_Erase+0x26>
            address += FLASH_PAGE_SIZE)
 80011fe:	f506 6600 	add.w	r6, r6, #2048	; 0x800
 8001202:	e7e7      	b.n	80011d4 <HAL_FLASHEx_Erase+0x5c>
  __HAL_LOCK(&pFlash);
 8001204:	2002      	movs	r0, #2
}
 8001206:	e8bd 81f0 	ldmia.w	sp!, {r4, r5, r6, r7, r8, pc}
 800120a:	bf00      	nop
 800120c:	20005248 	.word	0x20005248
 8001210:	40022000 	.word	0x40022000

08001214 <HAL_GPIO_Init>:
  * @param  GPIO_Init: pointer to a GPIO_InitTypeDef structure that contains
  *         the configuration information for the specified GPIO peripheral.
  * @retval None
  */
void HAL_GPIO_Init(GPIO_TypeDef  *GPIOx, GPIO_InitTypeDef *GPIO_Init)
{
 8001214:	e92d 4ff7 	stmdb	sp!, {r0, r1, r2, r4, r5, r6, r7, r8, r9, sl, fp, lr}
  uint32_t position;
  uint32_t ioposition = 0x00U;
  uint32_t iocurrent = 0x00U;
  uint32_t temp = 0x00U;
  uint32_t config = 0x00U;
 8001218:	2200      	movs	r2, #0
  assert_param(IS_GPIO_ALL_INSTANCE(GPIOx));
  assert_param(IS_GPIO_PIN(GPIO_Init->Pin));
  assert_param(IS_GPIO_MODE(GPIO_Init->Mode));

  /* Configure the port pins */
  for (position = 0U; position < GPIO_NUMBER; position++)
 800121a:	4616      	mov	r6, r2
 800121c:	4b65      	ldr	r3, [pc, #404]	; (80013b4 <HAL_GPIO_Init+0x1a0>)
    {
      /* Check the Alternate function parameters */
      assert_param(IS_GPIO_AF_INSTANCE(GPIOx));

      /* Based on the required mode, filling config variable with MODEy[1:0] and CNFy[3:2] corresponding bits */
      switch (GPIO_Init->Mode)
 800121e:	f8df e1a4 	ldr.w	lr, [pc, #420]	; 80013c4 <HAL_GPIO_Init+0x1b0>
 8001222:	f8df c1a4 	ldr.w	ip, [pc, #420]	; 80013c8 <HAL_GPIO_Init+0x1b4>
    ioposition = (0x01U << position);
 8001226:	f04f 0801 	mov.w	r8, #1
    iocurrent = (uint32_t)(GPIO_Init->Pin) & ioposition;
 800122a:	680c      	ldr	r4, [r1, #0]
    ioposition = (0x01U << position);
 800122c:	fa08 f806 	lsl.w	r8, r8, r6
    iocurrent = (uint32_t)(GPIO_Init->Pin) & ioposition;
 8001230:	ea08 0404 	and.w	r4, r8, r4
    if (iocurrent == ioposition)
 8001234:	45a0      	cmp	r8, r4
 8001236:	d17f      	bne.n	8001338 <HAL_GPIO_Init+0x124>
      switch (GPIO_Init->Mode)
 8001238:	684d      	ldr	r5, [r1, #4]
 800123a:	2d12      	cmp	r5, #18
 800123c:	f000 80af 	beq.w	800139e <HAL_GPIO_Init+0x18a>
 8001240:	f200 8088 	bhi.w	8001354 <HAL_GPIO_Init+0x140>
 8001244:	2d02      	cmp	r5, #2
 8001246:	f000 80a7 	beq.w	8001398 <HAL_GPIO_Init+0x184>
 800124a:	d87c      	bhi.n	8001346 <HAL_GPIO_Init+0x132>
 800124c:	2d00      	cmp	r5, #0
 800124e:	f000 808e 	beq.w	800136e <HAL_GPIO_Init+0x15a>
 8001252:	2d01      	cmp	r5, #1
 8001254:	f000 809e 	beq.w	8001394 <HAL_GPIO_Init+0x180>
       in order to address CRH or CRL register*/
      configregister = (iocurrent < GPIO_PIN_8) ? &GPIOx->CRL     : &GPIOx->CRH;
      registeroffset = (iocurrent < GPIO_PIN_8) ? (position << 2U) : ((position - 8U) << 2U);

      /* Apply the new configuration of the pin to the register */
      MODIFY_REG((*configregister), ((GPIO_CRL_MODE0 | GPIO_CRL_CNF0) << registeroffset), (config << registeroffset));
 8001258:	f04f 090f 	mov.w	r9, #15
      configregister = (iocurrent < GPIO_PIN_8) ? &GPIOx->CRL     : &GPIOx->CRH;
 800125c:	2cff      	cmp	r4, #255	; 0xff
 800125e:	bf93      	iteet	ls
 8001260:	4682      	movls	sl, r0
 8001262:	f106 4580 	addhi.w	r5, r6, #1073741824	; 0x40000000
 8001266:	3d08      	subhi	r5, #8
 8001268:	f8d0 b000 	ldrls.w	fp, [r0]
 800126c:	bf92      	itee	ls
 800126e:	00b5      	lslls	r5, r6, #2
 8001270:	f8d0 b004 	ldrhi.w	fp, [r0, #4]
 8001274:	00ad      	lslhi	r5, r5, #2
      MODIFY_REG((*configregister), ((GPIO_CRL_MODE0 | GPIO_CRL_CNF0) << registeroffset), (config << registeroffset));
 8001276:	fa09 f805 	lsl.w	r8, r9, r5
 800127a:	ea2b 0808 	bic.w	r8, fp, r8
 800127e:	fa02 f505 	lsl.w	r5, r2, r5
      configregister = (iocurrent < GPIO_PIN_8) ? &GPIOx->CRL     : &GPIOx->CRH;
 8001282:	bf88      	it	hi
 8001284:	f100 0a04 	addhi.w	sl, r0, #4
      MODIFY_REG((*configregister), ((GPIO_CRL_MODE0 | GPIO_CRL_CNF0) << registeroffset), (config << registeroffset));
 8001288:	ea48 0505 	orr.w	r5, r8, r5
 800128c:	f8ca 5000 	str.w	r5, [sl]

      /*--------------------- EXTI Mode Configuration ------------------------*/
      /* Configure the External Interrupt or event for the current IO */
      if ((GPIO_Init->Mode & EXTI_MODE) == EXTI_MODE)
 8001290:	f8d1 a004 	ldr.w	sl, [r1, #4]
 8001294:	f01a 5f80 	tst.w	sl, #268435456	; 0x10000000
 8001298:	d04e      	beq.n	8001338 <HAL_GPIO_Init+0x124>
      {
        /* Enable AFIO Clock */
        __HAL_RCC_AFIO_CLK_ENABLE();
 800129a:	4d47      	ldr	r5, [pc, #284]	; (80013b8 <HAL_GPIO_Init+0x1a4>)
 800129c:	4f46      	ldr	r7, [pc, #280]	; (80013b8 <HAL_GPIO_Init+0x1a4>)
 800129e:	69ad      	ldr	r5, [r5, #24]
 80012a0:	f026 0803 	bic.w	r8, r6, #3
 80012a4:	f045 0501 	orr.w	r5, r5, #1
 80012a8:	61bd      	str	r5, [r7, #24]
 80012aa:	69bd      	ldr	r5, [r7, #24]
 80012ac:	f108 4880 	add.w	r8, r8, #1073741824	; 0x40000000
 80012b0:	f005 0501 	and.w	r5, r5, #1
 80012b4:	9501      	str	r5, [sp, #4]
 80012b6:	f508 3880 	add.w	r8, r8, #65536	; 0x10000
        temp = AFIO->EXTICR[position >> 2U];
        CLEAR_BIT(temp, (0x0FU) << (4U * (position & 0x03U)));
 80012ba:	f006 0b03 	and.w	fp, r6, #3
        __HAL_RCC_AFIO_CLK_ENABLE();
 80012be:	9d01      	ldr	r5, [sp, #4]
        CLEAR_BIT(temp, (0x0FU) << (4U * (position & 0x03U)));
 80012c0:	ea4f 0b8b 	mov.w	fp, fp, lsl #2
        temp = AFIO->EXTICR[position >> 2U];
 80012c4:	f8d8 5008 	ldr.w	r5, [r8, #8]
        CLEAR_BIT(temp, (0x0FU) << (4U * (position & 0x03U)));
 80012c8:	fa09 f90b 	lsl.w	r9, r9, fp
 80012cc:	ea25 0909 	bic.w	r9, r5, r9
        SET_BIT(temp, (GPIO_GET_INDEX(GPIOx)) << (4U * (position & 0x03U)));
 80012d0:	4d3a      	ldr	r5, [pc, #232]	; (80013bc <HAL_GPIO_Init+0x1a8>)
 80012d2:	42a8      	cmp	r0, r5
 80012d4:	d068      	beq.n	80013a8 <HAL_GPIO_Init+0x194>
 80012d6:	f505 6580 	add.w	r5, r5, #1024	; 0x400
 80012da:	42a8      	cmp	r0, r5
 80012dc:	d066      	beq.n	80013ac <HAL_GPIO_Init+0x198>
 80012de:	f505 6580 	add.w	r5, r5, #1024	; 0x400
 80012e2:	42a8      	cmp	r0, r5
 80012e4:	d064      	beq.n	80013b0 <HAL_GPIO_Init+0x19c>
 80012e6:	f505 6580 	add.w	r5, r5, #1024	; 0x400
 80012ea:	42a8      	cmp	r0, r5
 80012ec:	bf0c      	ite	eq
 80012ee:	2503      	moveq	r5, #3
 80012f0:	2504      	movne	r5, #4
 80012f2:	fa05 f50b 	lsl.w	r5, r5, fp
 80012f6:	ea45 0509 	orr.w	r5, r5, r9
        AFIO->EXTICR[position >> 2U] = temp;
 80012fa:	f8c8 5008 	str.w	r5, [r8, #8]


        /* Configure the interrupt mask */
        if ((GPIO_Init->Mode & GPIO_MODE_IT) == GPIO_MODE_IT)
        {
          SET_BIT(EXTI->IMR, iocurrent);
 80012fe:	681d      	ldr	r5, [r3, #0]
        if ((GPIO_Init->Mode & GPIO_MODE_IT) == GPIO_MODE_IT)
 8001300:	f41a 3f80 	tst.w	sl, #65536	; 0x10000
          SET_BIT(EXTI->IMR, iocurrent);
 8001304:	bf14      	ite	ne
 8001306:	4325      	orrne	r5, r4
        }
        else
        {
          CLEAR_BIT(EXTI->IMR, iocurrent);
 8001308:	43a5      	biceq	r5, r4
 800130a:	601d      	str	r5, [r3, #0]
        }

        /* Configure the event mask */
        if ((GPIO_Init->Mode & GPIO_MODE_EVT) == GPIO_MODE_EVT)
        {
          SET_BIT(EXTI->EMR, iocurrent);
 800130c:	685d      	ldr	r5, [r3, #4]
        if ((GPIO_Init->Mode & GPIO_MODE_EVT) == GPIO_MODE_EVT)
 800130e:	f41a 3f00 	tst.w	sl, #131072	; 0x20000
          SET_BIT(EXTI->EMR, iocurrent);
 8001312:	bf14      	ite	ne
 8001314:	4325      	orrne	r5, r4
        }
        else
        {
          CLEAR_BIT(EXTI->EMR, iocurrent);
 8001316:	43a5      	biceq	r5, r4
 8001318:	605d      	str	r5, [r3, #4]
        }

        /* Enable or disable the rising trigger */
        if ((GPIO_Init->Mode & RISING_EDGE) == RISING_EDGE)
        {
          SET_BIT(EXTI->RTSR, iocurrent);
 800131a:	689d      	ldr	r5, [r3, #8]
        if ((GPIO_Init->Mode & RISING_EDGE) == RISING_EDGE)
 800131c:	f41a 1f80 	tst.w	sl, #1048576	; 0x100000
          SET_BIT(EXTI->RTSR, iocurrent);
 8001320:	bf14      	ite	ne
 8001322:	4325      	orrne	r5, r4
        }
        else
        {
          CLEAR_BIT(EXTI->RTSR, iocurrent);
 8001324:	43a5      	biceq	r5, r4
 8001326:	609d      	str	r5, [r3, #8]
        }

        /* Enable or disable the falling trigger */
        if ((GPIO_Init->Mode & FALLING_EDGE) == FALLING_EDGE)
        {
          SET_BIT(EXTI->FTSR, iocurrent);
 8001328:	68dd      	ldr	r5, [r3, #12]
        if ((GPIO_Init->Mode & FALLING_EDGE) == FALLING_EDGE)
 800132a:	f41a 1f00 	tst.w	sl, #2097152	; 0x200000
          SET_BIT(EXTI->FTSR, iocurrent);
 800132e:	bf14      	ite	ne
 8001330:	432c      	orrne	r4, r5
        }
        else
        {
          CLEAR_BIT(EXTI->FTSR, iocurrent);
 8001332:	ea25 0404 	biceq.w	r4, r5, r4
 8001336:	60dc      	str	r4, [r3, #12]
  for (position = 0U; position < GPIO_NUMBER; position++)
 8001338:	3601      	adds	r6, #1
 800133a:	2e10      	cmp	r6, #16
 800133c:	f47f af73 	bne.w	8001226 <HAL_GPIO_Init+0x12>
        }
      }
    }
  }
}
 8001340:	b003      	add	sp, #12
 8001342:	e8bd 8ff0 	ldmia.w	sp!, {r4, r5, r6, r7, r8, r9, sl, fp, pc}
      switch (GPIO_Init->Mode)
 8001346:	2d03      	cmp	r5, #3
 8001348:	d022      	beq.n	8001390 <HAL_GPIO_Init+0x17c>
 800134a:	2d11      	cmp	r5, #17
 800134c:	d184      	bne.n	8001258 <HAL_GPIO_Init+0x44>
          config = GPIO_Init->Speed + GPIO_CR_CNF_GP_OUTPUT_OD;
 800134e:	68ca      	ldr	r2, [r1, #12]
 8001350:	3204      	adds	r2, #4
          break;
 8001352:	e781      	b.n	8001258 <HAL_GPIO_Init+0x44>
      switch (GPIO_Init->Mode)
 8001354:	4f1a      	ldr	r7, [pc, #104]	; (80013c0 <HAL_GPIO_Init+0x1ac>)
 8001356:	42bd      	cmp	r5, r7
 8001358:	d009      	beq.n	800136e <HAL_GPIO_Init+0x15a>
 800135a:	d812      	bhi.n	8001382 <HAL_GPIO_Init+0x16e>
 800135c:	f8df 906c 	ldr.w	r9, [pc, #108]	; 80013cc <HAL_GPIO_Init+0x1b8>
 8001360:	454d      	cmp	r5, r9
 8001362:	d004      	beq.n	800136e <HAL_GPIO_Init+0x15a>
 8001364:	f509 3980 	add.w	r9, r9, #65536	; 0x10000
 8001368:	454d      	cmp	r5, r9
 800136a:	f47f af75 	bne.w	8001258 <HAL_GPIO_Init+0x44>
          if (GPIO_Init->Pull == GPIO_NOPULL)
 800136e:	688a      	ldr	r2, [r1, #8]
 8001370:	b1c2      	cbz	r2, 80013a4 <HAL_GPIO_Init+0x190>
          else if (GPIO_Init->Pull == GPIO_PULLUP)
 8001372:	2a01      	cmp	r2, #1
            GPIOx->BSRR = ioposition;
 8001374:	bf0c      	ite	eq
 8001376:	f8c0 8010 	streq.w	r8, [r0, #16]
            GPIOx->BRR = ioposition;
 800137a:	f8c0 8014 	strne.w	r8, [r0, #20]
            config = GPIO_CR_MODE_INPUT + GPIO_CR_CNF_INPUT_PU_PD;
 800137e:	2208      	movs	r2, #8
 8001380:	e76a      	b.n	8001258 <HAL_GPIO_Init+0x44>
      switch (GPIO_Init->Mode)
 8001382:	4575      	cmp	r5, lr
 8001384:	d0f3      	beq.n	800136e <HAL_GPIO_Init+0x15a>
 8001386:	4565      	cmp	r5, ip
 8001388:	d0f1      	beq.n	800136e <HAL_GPIO_Init+0x15a>
 800138a:	f8df 9044 	ldr.w	r9, [pc, #68]	; 80013d0 <HAL_GPIO_Init+0x1bc>
 800138e:	e7eb      	b.n	8001368 <HAL_GPIO_Init+0x154>
          config = GPIO_CR_MODE_INPUT + GPIO_CR_CNF_ANALOG;
 8001390:	2200      	movs	r2, #0
 8001392:	e761      	b.n	8001258 <HAL_GPIO_Init+0x44>
          config = GPIO_Init->Speed + GPIO_CR_CNF_GP_OUTPUT_PP;
 8001394:	68ca      	ldr	r2, [r1, #12]
          break;
 8001396:	e75f      	b.n	8001258 <HAL_GPIO_Init+0x44>
          config = GPIO_Init->Speed + GPIO_CR_CNF_AF_OUTPUT_PP;
 8001398:	68ca      	ldr	r2, [r1, #12]
 800139a:	3208      	adds	r2, #8
          break;
 800139c:	e75c      	b.n	8001258 <HAL_GPIO_Init+0x44>
          config = GPIO_Init->Speed + GPIO_CR_CNF_AF_OUTPUT_OD;
 800139e:	68ca      	ldr	r2, [r1, #12]
 80013a0:	320c      	adds	r2, #12
          break;
 80013a2:	e759      	b.n	8001258 <HAL_GPIO_Init+0x44>
            config = GPIO_CR_MODE_INPUT + GPIO_CR_CNF_INPUT_FLOATING;
 80013a4:	2204      	movs	r2, #4
 80013a6:	e757      	b.n	8001258 <HAL_GPIO_Init+0x44>
        SET_BIT(temp, (GPIO_GET_INDEX(GPIOx)) << (4U * (position & 0x03U)));
 80013a8:	2500      	movs	r5, #0
 80013aa:	e7a2      	b.n	80012f2 <HAL_GPIO_Init+0xde>
 80013ac:	2501      	movs	r5, #1
 80013ae:	e7a0      	b.n	80012f2 <HAL_GPIO_Init+0xde>
 80013b0:	2502      	movs	r5, #2
 80013b2:	e79e      	b.n	80012f2 <HAL_GPIO_Init+0xde>
 80013b4:	40010400 	.word	0x40010400
 80013b8:	40021000 	.word	0x40021000
 80013bc:	40010800 	.word	0x40010800
 80013c0:	10210000 	.word	0x10210000
 80013c4:	10310000 	.word	0x10310000
 80013c8:	10320000 	.word	0x10320000
 80013cc:	10110000 	.word	0x10110000
 80013d0:	10220000 	.word	0x10220000

080013d4 <HAL_GPIO_ReadPin>:
  GPIO_PinState bitstatus;

  /* Check the parameters */
  assert_param(IS_GPIO_PIN(GPIO_Pin));

  if ((GPIOx->IDR & GPIO_Pin) != (uint32_t)GPIO_PIN_RESET)
 80013d4:	6883      	ldr	r3, [r0, #8]
 80013d6:	4219      	tst	r1, r3
  else
  {
    bitstatus = GPIO_PIN_RESET;
  }
  return bitstatus;
}
 80013d8:	bf14      	ite	ne
 80013da:	2001      	movne	r0, #1
 80013dc:	2000      	moveq	r0, #0
 80013de:	4770      	bx	lr

080013e0 <HAL_GPIO_WritePin>:
{
  /* Check the parameters */
  assert_param(IS_GPIO_PIN(GPIO_Pin));
  assert_param(IS_GPIO_PIN_ACTION(PinState));

  if (PinState != GPIO_PIN_RESET)
 80013e0:	b10a      	cbz	r2, 80013e6 <HAL_GPIO_WritePin+0x6>
  {
    GPIOx->BSRR = GPIO_Pin;
  }
  else
  {
    GPIOx->BSRR = (uint32_t)GPIO_Pin << 16U;
 80013e2:	6101      	str	r1, [r0, #16]
 80013e4:	4770      	bx	lr
 80013e6:	0409      	lsls	r1, r1, #16
 80013e8:	e7fb      	b.n	80013e2 <HAL_GPIO_WritePin+0x2>

080013ea <HAL_GPIO_TogglePin>:
void HAL_GPIO_TogglePin(GPIO_TypeDef *GPIOx, uint16_t GPIO_Pin)
{
  /* Check the parameters */
  assert_param(IS_GPIO_PIN(GPIO_Pin));

  GPIOx->ODR ^= GPIO_Pin;
 80013ea:	68c3      	ldr	r3, [r0, #12]
 80013ec:	4059      	eors	r1, r3
 80013ee:	60c1      	str	r1, [r0, #12]
 80013f0:	4770      	bx	lr
	...

080013f4 <HAL_RCC_OscConfig>:
  /* Check the parameters */
  assert_param(RCC_OscInitStruct != NULL);
  assert_param(IS_RCC_OSCILLATORTYPE(RCC_OscInitStruct->OscillatorType));
  
  /*------------------------------- HSE Configuration ------------------------*/
  if(((RCC_OscInitStruct->OscillatorType) & RCC_OSCILLATORTYPE_HSE) == RCC_OSCILLATORTYPE_HSE)
 80013f4:	6803      	ldr	r3, [r0, #0]
{
 80013f6:	e92d 41f3 	stmdb	sp!, {r0, r1, r4, r5, r6, r7, r8, lr}
  if(((RCC_OscInitStruct->OscillatorType) & RCC_OSCILLATORTYPE_HSE) == RCC_OSCILLATORTYPE_HSE)
 80013fa:	07db      	lsls	r3, r3, #31
{
 80013fc:	4605      	mov	r5, r0
  if(((RCC_OscInitStruct->OscillatorType) & RCC_OSCILLATORTYPE_HSE) == RCC_OSCILLATORTYPE_HSE)
 80013fe:	d414      	bmi.n	800142a <HAL_RCC_OscConfig+0x36>
        }
      }
    }
  }
  /*----------------------------- HSI Configuration --------------------------*/ 
  if(((RCC_OscInitStruct->OscillatorType) & RCC_OSCILLATORTYPE_HSI) == RCC_OSCILLATORTYPE_HSI)
 8001400:	682b      	ldr	r3, [r5, #0]
 8001402:	079f      	lsls	r7, r3, #30
 8001404:	d462      	bmi.n	80014cc <HAL_RCC_OscConfig+0xd8>
        }
      }
    }
  }
  /*------------------------------ LSI Configuration -------------------------*/ 
  if(((RCC_OscInitStruct->OscillatorType) & RCC_OSCILLATORTYPE_LSI) == RCC_OSCILLATORTYPE_LSI)
 8001406:	682b      	ldr	r3, [r5, #0]
 8001408:	0719      	lsls	r1, r3, #28
 800140a:	f100 8099 	bmi.w	8001540 <HAL_RCC_OscConfig+0x14c>
        }
      }
    }
  }
  /*------------------------------ LSE Configuration -------------------------*/ 
  if(((RCC_OscInitStruct->OscillatorType) & RCC_OSCILLATORTYPE_LSE) == RCC_OSCILLATORTYPE_LSE)
 800140e:	682b      	ldr	r3, [r5, #0]
 8001410:	075a      	lsls	r2, r3, #29
 8001412:	f100 80c3 	bmi.w	800159c <HAL_RCC_OscConfig+0x1a8>

#if defined(RCC_CR_PLL2ON)
  /*-------------------------------- PLL2 Configuration -----------------------*/
  /* Check the parameters */
  assert_param(IS_RCC_PLL2(RCC_OscInitStruct->PLL2.PLL2State));
  if ((RCC_OscInitStruct->PLL2.PLL2State) != RCC_PLL2_NONE)
 8001416:	6aea      	ldr	r2, [r5, #44]	; 0x2c
 8001418:	2a00      	cmp	r2, #0
 800141a:	f040 8131 	bne.w	8001680 <HAL_RCC_OscConfig+0x28c>

#endif /* RCC_CR_PLL2ON */
  /*-------------------------------- PLL Configuration -----------------------*/
  /* Check the parameters */
  assert_param(IS_RCC_PLL(RCC_OscInitStruct->PLL.PLLState));
  if ((RCC_OscInitStruct->PLL.PLLState) != RCC_PLL_NONE)
 800141e:	6a2a      	ldr	r2, [r5, #32]
 8001420:	2a00      	cmp	r2, #0
 8001422:	f040 8184 	bne.w	800172e <HAL_RCC_OscConfig+0x33a>
    {
      return HAL_ERROR;
    }
  }
  
  return HAL_OK;
 8001426:	2000      	movs	r0, #0
 8001428:	e014      	b.n	8001454 <HAL_RCC_OscConfig+0x60>
    if((__HAL_RCC_GET_SYSCLK_SOURCE() == RCC_SYSCLKSOURCE_STATUS_HSE) 
 800142a:	4c90      	ldr	r4, [pc, #576]	; (800166c <HAL_RCC_OscConfig+0x278>)
 800142c:	6863      	ldr	r3, [r4, #4]
 800142e:	f003 030c 	and.w	r3, r3, #12
 8001432:	2b04      	cmp	r3, #4
 8001434:	d007      	beq.n	8001446 <HAL_RCC_OscConfig+0x52>
       || ((__HAL_RCC_GET_SYSCLK_SOURCE() == RCC_SYSCLKSOURCE_STATUS_PLLCLK) && (__HAL_RCC_GET_PLL_OSCSOURCE() == RCC_PLLSOURCE_HSE)))
 8001436:	6863      	ldr	r3, [r4, #4]
 8001438:	f003 030c 	and.w	r3, r3, #12
 800143c:	2b08      	cmp	r3, #8
 800143e:	d10c      	bne.n	800145a <HAL_RCC_OscConfig+0x66>
 8001440:	6863      	ldr	r3, [r4, #4]
 8001442:	03de      	lsls	r6, r3, #15
 8001444:	d509      	bpl.n	800145a <HAL_RCC_OscConfig+0x66>
      if((__HAL_RCC_GET_FLAG(RCC_FLAG_HSERDY) != RESET) && (RCC_OscInitStruct->HSEState == RCC_HSE_OFF))
 8001446:	6823      	ldr	r3, [r4, #0]
 8001448:	039c      	lsls	r4, r3, #14
 800144a:	d5d9      	bpl.n	8001400 <HAL_RCC_OscConfig+0xc>
 800144c:	68ab      	ldr	r3, [r5, #8]
 800144e:	2b00      	cmp	r3, #0
 8001450:	d1d6      	bne.n	8001400 <HAL_RCC_OscConfig+0xc>
        return HAL_ERROR;
 8001452:	2001      	movs	r0, #1
}
 8001454:	b002      	add	sp, #8
 8001456:	e8bd 81f0 	ldmia.w	sp!, {r4, r5, r6, r7, r8, pc}
      __HAL_RCC_HSE_CONFIG(RCC_OscInitStruct->HSEState);
 800145a:	68ab      	ldr	r3, [r5, #8]
 800145c:	f5b3 3f80 	cmp.w	r3, #65536	; 0x10000
 8001460:	d110      	bne.n	8001484 <HAL_RCC_OscConfig+0x90>
 8001462:	6823      	ldr	r3, [r4, #0]
 8001464:	f443 3380 	orr.w	r3, r3, #65536	; 0x10000
 8001468:	6023      	str	r3, [r4, #0]
        tickstart = HAL_GetTick();
 800146a:	f7ff f8bf 	bl	80005ec <HAL_GetTick>
 800146e:	4606      	mov	r6, r0
        while(__HAL_RCC_GET_FLAG(RCC_FLAG_HSERDY) == RESET)
 8001470:	6823      	ldr	r3, [r4, #0]
 8001472:	0398      	lsls	r0, r3, #14
 8001474:	d4c4      	bmi.n	8001400 <HAL_RCC_OscConfig+0xc>
          if((HAL_GetTick() - tickstart ) > HSE_TIMEOUT_VALUE)
 8001476:	f7ff f8b9 	bl	80005ec <HAL_GetTick>
 800147a:	1b80      	subs	r0, r0, r6
 800147c:	2864      	cmp	r0, #100	; 0x64
 800147e:	d9f7      	bls.n	8001470 <HAL_RCC_OscConfig+0x7c>
            return HAL_TIMEOUT;
 8001480:	2003      	movs	r0, #3
 8001482:	e7e7      	b.n	8001454 <HAL_RCC_OscConfig+0x60>
      __HAL_RCC_HSE_CONFIG(RCC_OscInitStruct->HSEState);
 8001484:	b99b      	cbnz	r3, 80014ae <HAL_RCC_OscConfig+0xba>
 8001486:	6823      	ldr	r3, [r4, #0]
 8001488:	f423 3380 	bic.w	r3, r3, #65536	; 0x10000
 800148c:	6023      	str	r3, [r4, #0]
 800148e:	6823      	ldr	r3, [r4, #0]
 8001490:	f423 2380 	bic.w	r3, r3, #262144	; 0x40000
 8001494:	6023      	str	r3, [r4, #0]
        tickstart = HAL_GetTick();
 8001496:	f7ff f8a9 	bl	80005ec <HAL_GetTick>
 800149a:	4606      	mov	r6, r0
        while(__HAL_RCC_GET_FLAG(RCC_FLAG_HSERDY) != RESET)
 800149c:	6823      	ldr	r3, [r4, #0]
 800149e:	0399      	lsls	r1, r3, #14
 80014a0:	d5ae      	bpl.n	8001400 <HAL_RCC_OscConfig+0xc>
           if((HAL_GetTick() - tickstart ) > HSE_TIMEOUT_VALUE)
 80014a2:	f7ff f8a3 	bl	80005ec <HAL_GetTick>
 80014a6:	1b80      	subs	r0, r0, r6
 80014a8:	2864      	cmp	r0, #100	; 0x64
 80014aa:	d9f7      	bls.n	800149c <HAL_RCC_OscConfig+0xa8>
 80014ac:	e7e8      	b.n	8001480 <HAL_RCC_OscConfig+0x8c>
      __HAL_RCC_HSE_CONFIG(RCC_OscInitStruct->HSEState);
 80014ae:	f5b3 2fa0 	cmp.w	r3, #327680	; 0x50000
 80014b2:	6823      	ldr	r3, [r4, #0]
 80014b4:	d103      	bne.n	80014be <HAL_RCC_OscConfig+0xca>
 80014b6:	f443 2380 	orr.w	r3, r3, #262144	; 0x40000
 80014ba:	6023      	str	r3, [r4, #0]
 80014bc:	e7d1      	b.n	8001462 <HAL_RCC_OscConfig+0x6e>
 80014be:	f423 3380 	bic.w	r3, r3, #65536	; 0x10000
 80014c2:	6023      	str	r3, [r4, #0]
 80014c4:	6823      	ldr	r3, [r4, #0]
 80014c6:	f423 2380 	bic.w	r3, r3, #262144	; 0x40000
 80014ca:	e7cd      	b.n	8001468 <HAL_RCC_OscConfig+0x74>
    if((__HAL_RCC_GET_SYSCLK_SOURCE() == RCC_SYSCLKSOURCE_STATUS_HSI) 
 80014cc:	4c67      	ldr	r4, [pc, #412]	; (800166c <HAL_RCC_OscConfig+0x278>)
 80014ce:	6863      	ldr	r3, [r4, #4]
 80014d0:	f013 0f0c 	tst.w	r3, #12
 80014d4:	d007      	beq.n	80014e6 <HAL_RCC_OscConfig+0xf2>
       || ((__HAL_RCC_GET_SYSCLK_SOURCE() == RCC_SYSCLKSOURCE_STATUS_PLLCLK) && (__HAL_RCC_GET_PLL_OSCSOURCE() == RCC_PLLSOURCE_HSI_DIV2)))
 80014d6:	6863      	ldr	r3, [r4, #4]
 80014d8:	f003 030c 	and.w	r3, r3, #12
 80014dc:	2b08      	cmp	r3, #8
 80014de:	d110      	bne.n	8001502 <HAL_RCC_OscConfig+0x10e>
 80014e0:	6863      	ldr	r3, [r4, #4]
 80014e2:	03da      	lsls	r2, r3, #15
 80014e4:	d40d      	bmi.n	8001502 <HAL_RCC_OscConfig+0x10e>
      if((__HAL_RCC_GET_FLAG(RCC_FLAG_HSIRDY) != RESET) && (RCC_OscInitStruct->HSIState != RCC_HSI_ON))
 80014e6:	6823      	ldr	r3, [r4, #0]
 80014e8:	079b      	lsls	r3, r3, #30
 80014ea:	d502      	bpl.n	80014f2 <HAL_RCC_OscConfig+0xfe>
 80014ec:	696b      	ldr	r3, [r5, #20]
 80014ee:	2b01      	cmp	r3, #1
 80014f0:	d1af      	bne.n	8001452 <HAL_RCC_OscConfig+0x5e>
        __HAL_RCC_HSI_CALIBRATIONVALUE_ADJUST(RCC_OscInitStruct->HSICalibrationValue);
 80014f2:	6823      	ldr	r3, [r4, #0]
 80014f4:	69aa      	ldr	r2, [r5, #24]
 80014f6:	f023 03f8 	bic.w	r3, r3, #248	; 0xf8
 80014fa:	ea43 03c2 	orr.w	r3, r3, r2, lsl #3
 80014fe:	6023      	str	r3, [r4, #0]
 8001500:	e781      	b.n	8001406 <HAL_RCC_OscConfig+0x12>
      if(RCC_OscInitStruct->HSIState != RCC_HSI_OFF)
 8001502:	696a      	ldr	r2, [r5, #20]
 8001504:	4b5a      	ldr	r3, [pc, #360]	; (8001670 <HAL_RCC_OscConfig+0x27c>)
 8001506:	b16a      	cbz	r2, 8001524 <HAL_RCC_OscConfig+0x130>
        __HAL_RCC_HSI_ENABLE();
 8001508:	2201      	movs	r2, #1
 800150a:	601a      	str	r2, [r3, #0]
        tickstart = HAL_GetTick();
 800150c:	f7ff f86e 	bl	80005ec <HAL_GetTick>
 8001510:	4606      	mov	r6, r0
        while(__HAL_RCC_GET_FLAG(RCC_FLAG_HSIRDY) == RESET)
 8001512:	6823      	ldr	r3, [r4, #0]
 8001514:	079f      	lsls	r7, r3, #30
 8001516:	d4ec      	bmi.n	80014f2 <HAL_RCC_OscConfig+0xfe>
          if((HAL_GetTick() - tickstart ) > HSI_TIMEOUT_VALUE)
 8001518:	f7ff f868 	bl	80005ec <HAL_GetTick>
 800151c:	1b80      	subs	r0, r0, r6
 800151e:	2802      	cmp	r0, #2
 8001520:	d9f7      	bls.n	8001512 <HAL_RCC_OscConfig+0x11e>
 8001522:	e7ad      	b.n	8001480 <HAL_RCC_OscConfig+0x8c>
        __HAL_RCC_HSI_DISABLE();
 8001524:	601a      	str	r2, [r3, #0]
        tickstart = HAL_GetTick();
 8001526:	f7ff f861 	bl	80005ec <HAL_GetTick>
 800152a:	4606      	mov	r6, r0
        while(__HAL_RCC_GET_FLAG(RCC_FLAG_HSIRDY) != RESET)
 800152c:	6823      	ldr	r3, [r4, #0]
 800152e:	0798      	lsls	r0, r3, #30
 8001530:	f57f af69 	bpl.w	8001406 <HAL_RCC_OscConfig+0x12>
          if((HAL_GetTick() - tickstart ) > HSI_TIMEOUT_VALUE)
 8001534:	f7ff f85a 	bl	80005ec <HAL_GetTick>
 8001538:	1b80      	subs	r0, r0, r6
 800153a:	2802      	cmp	r0, #2
 800153c:	d9f6      	bls.n	800152c <HAL_RCC_OscConfig+0x138>
 800153e:	e79f      	b.n	8001480 <HAL_RCC_OscConfig+0x8c>
    if(RCC_OscInitStruct->LSIState != RCC_LSI_OFF)
 8001540:	69ea      	ldr	r2, [r5, #28]
 8001542:	4c4a      	ldr	r4, [pc, #296]	; (800166c <HAL_RCC_OscConfig+0x278>)
 8001544:	4b4b      	ldr	r3, [pc, #300]	; (8001674 <HAL_RCC_OscConfig+0x280>)
 8001546:	b1da      	cbz	r2, 8001580 <HAL_RCC_OscConfig+0x18c>
      __HAL_RCC_LSI_ENABLE();
 8001548:	2201      	movs	r2, #1
 800154a:	601a      	str	r2, [r3, #0]
      tickstart = HAL_GetTick();
 800154c:	f7ff f84e 	bl	80005ec <HAL_GetTick>
 8001550:	4606      	mov	r6, r0
      while(__HAL_RCC_GET_FLAG(RCC_FLAG_LSIRDY) == RESET)
 8001552:	6a63      	ldr	r3, [r4, #36]	; 0x24
 8001554:	079b      	lsls	r3, r3, #30
 8001556:	d50d      	bpl.n	8001574 <HAL_RCC_OscConfig+0x180>
  * @param  mdelay: specifies the delay time length, in milliseconds.
  * @retval None
  */
static void RCC_Delay(uint32_t mdelay)
{
  __IO uint32_t Delay = mdelay * (SystemCoreClock / 8U / 1000U);
 8001558:	f44f 52fa 	mov.w	r2, #8000	; 0x1f40
 800155c:	4b46      	ldr	r3, [pc, #280]	; (8001678 <HAL_RCC_OscConfig+0x284>)
 800155e:	681b      	ldr	r3, [r3, #0]
 8001560:	fbb3 f3f2 	udiv	r3, r3, r2
 8001564:	9301      	str	r3, [sp, #4]
  \brief   No Operation
  \details No Operation does nothing. This instruction can be used for code alignment purposes.
 */
__attribute__((always_inline)) __STATIC_INLINE void __NOP(void)
{
  __ASM volatile ("nop");
 8001566:	bf00      	nop
  do 
  {
    __NOP();
  } 
  while (Delay --);
 8001568:	9b01      	ldr	r3, [sp, #4]
 800156a:	1e5a      	subs	r2, r3, #1
 800156c:	9201      	str	r2, [sp, #4]
 800156e:	2b00      	cmp	r3, #0
 8001570:	d1f9      	bne.n	8001566 <HAL_RCC_OscConfig+0x172>
 8001572:	e74c      	b.n	800140e <HAL_RCC_OscConfig+0x1a>
        if((HAL_GetTick() - tickstart ) > LSI_TIMEOUT_VALUE)
 8001574:	f7ff f83a 	bl	80005ec <HAL_GetTick>
 8001578:	1b80      	subs	r0, r0, r6
 800157a:	2802      	cmp	r0, #2
 800157c:	d9e9      	bls.n	8001552 <HAL_RCC_OscConfig+0x15e>
 800157e:	e77f      	b.n	8001480 <HAL_RCC_OscConfig+0x8c>
      __HAL_RCC_LSI_DISABLE();
 8001580:	601a      	str	r2, [r3, #0]
      tickstart = HAL_GetTick();
 8001582:	f7ff f833 	bl	80005ec <HAL_GetTick>
 8001586:	4606      	mov	r6, r0
      while(__HAL_RCC_GET_FLAG(RCC_FLAG_LSIRDY) != RESET)
 8001588:	6a63      	ldr	r3, [r4, #36]	; 0x24
 800158a:	079f      	lsls	r7, r3, #30
 800158c:	f57f af3f 	bpl.w	800140e <HAL_RCC_OscConfig+0x1a>
        if((HAL_GetTick() - tickstart ) > LSI_TIMEOUT_VALUE)
 8001590:	f7ff f82c 	bl	80005ec <HAL_GetTick>
 8001594:	1b80      	subs	r0, r0, r6
 8001596:	2802      	cmp	r0, #2
 8001598:	d9f6      	bls.n	8001588 <HAL_RCC_OscConfig+0x194>
 800159a:	e771      	b.n	8001480 <HAL_RCC_OscConfig+0x8c>
    if(__HAL_RCC_PWR_IS_CLK_DISABLED())
 800159c:	4c33      	ldr	r4, [pc, #204]	; (800166c <HAL_RCC_OscConfig+0x278>)
 800159e:	69e3      	ldr	r3, [r4, #28]
 80015a0:	00de      	lsls	r6, r3, #3
 80015a2:	d424      	bmi.n	80015ee <HAL_RCC_OscConfig+0x1fa>
      pwrclkchanged = SET;
 80015a4:	2701      	movs	r7, #1
      __HAL_RCC_PWR_CLK_ENABLE();
 80015a6:	69e3      	ldr	r3, [r4, #28]
 80015a8:	f043 5380 	orr.w	r3, r3, #268435456	; 0x10000000
 80015ac:	61e3      	str	r3, [r4, #28]
 80015ae:	69e3      	ldr	r3, [r4, #28]
 80015b0:	f003 5380 	and.w	r3, r3, #268435456	; 0x10000000
 80015b4:	9300      	str	r3, [sp, #0]
 80015b6:	9b00      	ldr	r3, [sp, #0]
    if(HAL_IS_BIT_CLR(PWR->CR, PWR_CR_DBP))
 80015b8:	4e30      	ldr	r6, [pc, #192]	; (800167c <HAL_RCC_OscConfig+0x288>)
 80015ba:	6833      	ldr	r3, [r6, #0]
 80015bc:	05d8      	lsls	r0, r3, #23
 80015be:	d518      	bpl.n	80015f2 <HAL_RCC_OscConfig+0x1fe>
    __HAL_RCC_LSE_CONFIG(RCC_OscInitStruct->LSEState);
 80015c0:	692b      	ldr	r3, [r5, #16]
 80015c2:	2b01      	cmp	r3, #1
 80015c4:	d126      	bne.n	8001614 <HAL_RCC_OscConfig+0x220>
 80015c6:	6a23      	ldr	r3, [r4, #32]
 80015c8:	f043 0301 	orr.w	r3, r3, #1
 80015cc:	6223      	str	r3, [r4, #32]
      tickstart = HAL_GetTick();
 80015ce:	f7ff f80d 	bl	80005ec <HAL_GetTick>
        if((HAL_GetTick() - tickstart ) > RCC_LSE_TIMEOUT_VALUE)
 80015d2:	f241 3688 	movw	r6, #5000	; 0x1388
      tickstart = HAL_GetTick();
 80015d6:	4680      	mov	r8, r0
      while(__HAL_RCC_GET_FLAG(RCC_FLAG_LSERDY) == RESET)
 80015d8:	6a23      	ldr	r3, [r4, #32]
 80015da:	079a      	lsls	r2, r3, #30
 80015dc:	d53f      	bpl.n	800165e <HAL_RCC_OscConfig+0x26a>
    if(pwrclkchanged == SET)
 80015de:	2f00      	cmp	r7, #0
 80015e0:	f43f af19 	beq.w	8001416 <HAL_RCC_OscConfig+0x22>
      __HAL_RCC_PWR_CLK_DISABLE();
 80015e4:	69e3      	ldr	r3, [r4, #28]
 80015e6:	f023 5380 	bic.w	r3, r3, #268435456	; 0x10000000
 80015ea:	61e3      	str	r3, [r4, #28]
 80015ec:	e713      	b.n	8001416 <HAL_RCC_OscConfig+0x22>
    FlagStatus       pwrclkchanged = RESET;
 80015ee:	2700      	movs	r7, #0
 80015f0:	e7e2      	b.n	80015b8 <HAL_RCC_OscConfig+0x1c4>
      SET_BIT(PWR->CR, PWR_CR_DBP);
 80015f2:	6833      	ldr	r3, [r6, #0]
 80015f4:	f443 7380 	orr.w	r3, r3, #256	; 0x100
 80015f8:	6033      	str	r3, [r6, #0]
      tickstart = HAL_GetTick();
 80015fa:	f7fe fff7 	bl	80005ec <HAL_GetTick>
 80015fe:	4680      	mov	r8, r0
      while(HAL_IS_BIT_CLR(PWR->CR, PWR_CR_DBP))
 8001600:	6833      	ldr	r3, [r6, #0]
 8001602:	05d9      	lsls	r1, r3, #23
 8001604:	d4dc      	bmi.n	80015c0 <HAL_RCC_OscConfig+0x1cc>
        if((HAL_GetTick() - tickstart) > RCC_DBP_TIMEOUT_VALUE)
 8001606:	f7fe fff1 	bl	80005ec <HAL_GetTick>
 800160a:	eba0 0008 	sub.w	r0, r0, r8
 800160e:	2864      	cmp	r0, #100	; 0x64
 8001610:	d9f6      	bls.n	8001600 <HAL_RCC_OscConfig+0x20c>
 8001612:	e735      	b.n	8001480 <HAL_RCC_OscConfig+0x8c>
    __HAL_RCC_LSE_CONFIG(RCC_OscInitStruct->LSEState);
 8001614:	b9ab      	cbnz	r3, 8001642 <HAL_RCC_OscConfig+0x24e>
 8001616:	6a23      	ldr	r3, [r4, #32]
        if((HAL_GetTick() - tickstart ) > RCC_LSE_TIMEOUT_VALUE)
 8001618:	f241 3888 	movw	r8, #5000	; 0x1388
    __HAL_RCC_LSE_CONFIG(RCC_OscInitStruct->LSEState);
 800161c:	f023 0301 	bic.w	r3, r3, #1
 8001620:	6223      	str	r3, [r4, #32]
 8001622:	6a23      	ldr	r3, [r4, #32]
 8001624:	f023 0304 	bic.w	r3, r3, #4
 8001628:	6223      	str	r3, [r4, #32]
      tickstart = HAL_GetTick();
 800162a:	f7fe ffdf 	bl	80005ec <HAL_GetTick>
 800162e:	4606      	mov	r6, r0
      while(__HAL_RCC_GET_FLAG(RCC_FLAG_LSERDY) != RESET)
 8001630:	6a23      	ldr	r3, [r4, #32]
 8001632:	079b      	lsls	r3, r3, #30
 8001634:	d5d3      	bpl.n	80015de <HAL_RCC_OscConfig+0x1ea>
        if((HAL_GetTick() - tickstart ) > RCC_LSE_TIMEOUT_VALUE)
 8001636:	f7fe ffd9 	bl	80005ec <HAL_GetTick>
 800163a:	1b80      	subs	r0, r0, r6
 800163c:	4540      	cmp	r0, r8
 800163e:	d9f7      	bls.n	8001630 <HAL_RCC_OscConfig+0x23c>
 8001640:	e71e      	b.n	8001480 <HAL_RCC_OscConfig+0x8c>
    __HAL_RCC_LSE_CONFIG(RCC_OscInitStruct->LSEState);
 8001642:	2b05      	cmp	r3, #5
 8001644:	6a23      	ldr	r3, [r4, #32]
 8001646:	d103      	bne.n	8001650 <HAL_RCC_OscConfig+0x25c>
 8001648:	f043 0304 	orr.w	r3, r3, #4
 800164c:	6223      	str	r3, [r4, #32]
 800164e:	e7ba      	b.n	80015c6 <HAL_RCC_OscConfig+0x1d2>
 8001650:	f023 0301 	bic.w	r3, r3, #1
 8001654:	6223      	str	r3, [r4, #32]
 8001656:	6a23      	ldr	r3, [r4, #32]
 8001658:	f023 0304 	bic.w	r3, r3, #4
 800165c:	e7b6      	b.n	80015cc <HAL_RCC_OscConfig+0x1d8>
        if((HAL_GetTick() - tickstart ) > RCC_LSE_TIMEOUT_VALUE)
 800165e:	f7fe ffc5 	bl	80005ec <HAL_GetTick>
 8001662:	eba0 0008 	sub.w	r0, r0, r8
 8001666:	42b0      	cmp	r0, r6
 8001668:	d9b6      	bls.n	80015d8 <HAL_RCC_OscConfig+0x1e4>
 800166a:	e709      	b.n	8001480 <HAL_RCC_OscConfig+0x8c>
 800166c:	40021000 	.word	0x40021000
 8001670:	42420000 	.word	0x42420000
 8001674:	42420480 	.word	0x42420480
 8001678:	2000000c 	.word	0x2000000c
 800167c:	40007000 	.word	0x40007000
    if((__HAL_RCC_GET_PLL_OSCSOURCE() == RCC_PLLSOURCE_HSE) && \
 8001680:	4c4f      	ldr	r4, [pc, #316]	; (80017c0 <HAL_RCC_OscConfig+0x3cc>)
 8001682:	6863      	ldr	r3, [r4, #4]
 8001684:	03d8      	lsls	r0, r3, #15
 8001686:	d508      	bpl.n	800169a <HAL_RCC_OscConfig+0x2a6>
        (__HAL_RCC_GET_SYSCLK_SOURCE() == RCC_SYSCLKSOURCE_STATUS_PLLCLK) && \
 8001688:	6863      	ldr	r3, [r4, #4]
 800168a:	f003 030c 	and.w	r3, r3, #12
    if((__HAL_RCC_GET_PLL_OSCSOURCE() == RCC_PLLSOURCE_HSE) && \
 800168e:	2b08      	cmp	r3, #8
 8001690:	d103      	bne.n	800169a <HAL_RCC_OscConfig+0x2a6>
        ((READ_BIT(RCC->CFGR2,RCC_CFGR2_PREDIV1SRC)) == RCC_CFGR2_PREDIV1SRC_PLL2))
 8001692:	6ae3      	ldr	r3, [r4, #44]	; 0x2c
        (__HAL_RCC_GET_SYSCLK_SOURCE() == RCC_SYSCLKSOURCE_STATUS_PLLCLK) && \
 8001694:	03d9      	lsls	r1, r3, #15
 8001696:	f53f aedc 	bmi.w	8001452 <HAL_RCC_OscConfig+0x5e>
      if((RCC_OscInitStruct->PLL2.PLL2State) == RCC_PLL2_ON)
 800169a:	2a02      	cmp	r2, #2
 800169c:	d133      	bne.n	8001706 <HAL_RCC_OscConfig+0x312>
        if (HAL_IS_BIT_SET(RCC->CR,RCC_CR_PLL3ON) && \
 800169e:	6823      	ldr	r3, [r4, #0]
 80016a0:	00da      	lsls	r2, r3, #3
 80016a2:	d506      	bpl.n	80016b2 <HAL_RCC_OscConfig+0x2be>
          (__HAL_RCC_HSE_GET_PREDIV2() != RCC_OscInitStruct->PLL2.HSEPrediv2Value))
 80016a4:	6ae3      	ldr	r3, [r4, #44]	; 0x2c
        if (HAL_IS_BIT_SET(RCC->CR,RCC_CR_PLL3ON) && \
 80016a6:	6b6a      	ldr	r2, [r5, #52]	; 0x34
          (__HAL_RCC_HSE_GET_PREDIV2() != RCC_OscInitStruct->PLL2.HSEPrediv2Value))
 80016a8:	f003 03f0 	and.w	r3, r3, #240	; 0xf0
        if (HAL_IS_BIT_SET(RCC->CR,RCC_CR_PLL3ON) && \
 80016ac:	4293      	cmp	r3, r2
 80016ae:	f47f aed0 	bne.w	8001452 <HAL_RCC_OscConfig+0x5e>
        __HAL_RCC_PLL2_DISABLE();
 80016b2:	2300      	movs	r3, #0
 80016b4:	4e43      	ldr	r6, [pc, #268]	; (80017c4 <HAL_RCC_OscConfig+0x3d0>)
 80016b6:	6033      	str	r3, [r6, #0]
        tickstart = HAL_GetTick();
 80016b8:	f7fe ff98 	bl	80005ec <HAL_GetTick>
 80016bc:	4607      	mov	r7, r0
        while(__HAL_RCC_GET_FLAG(RCC_FLAG_PLL2RDY) != RESET)
 80016be:	6823      	ldr	r3, [r4, #0]
 80016c0:	011b      	lsls	r3, r3, #4
 80016c2:	d41a      	bmi.n	80016fa <HAL_RCC_OscConfig+0x306>
        __HAL_RCC_HSE_PREDIV2_CONFIG(RCC_OscInitStruct->PLL2.HSEPrediv2Value);
 80016c4:	6ae3      	ldr	r3, [r4, #44]	; 0x2c
 80016c6:	6b6a      	ldr	r2, [r5, #52]	; 0x34
 80016c8:	f023 03f0 	bic.w	r3, r3, #240	; 0xf0
 80016cc:	4313      	orrs	r3, r2
 80016ce:	62e3      	str	r3, [r4, #44]	; 0x2c
        __HAL_RCC_PLL2_CONFIG(RCC_OscInitStruct->PLL2.PLL2MUL);
 80016d0:	6ae3      	ldr	r3, [r4, #44]	; 0x2c
 80016d2:	6b2a      	ldr	r2, [r5, #48]	; 0x30
 80016d4:	f423 6370 	bic.w	r3, r3, #3840	; 0xf00
 80016d8:	4313      	orrs	r3, r2
 80016da:	62e3      	str	r3, [r4, #44]	; 0x2c
        __HAL_RCC_PLL2_ENABLE();
 80016dc:	2301      	movs	r3, #1
 80016de:	6033      	str	r3, [r6, #0]
        tickstart = HAL_GetTick();
 80016e0:	f7fe ff84 	bl	80005ec <HAL_GetTick>
 80016e4:	4606      	mov	r6, r0
        while(__HAL_RCC_GET_FLAG(RCC_FLAG_PLL2RDY)  == RESET)
 80016e6:	6823      	ldr	r3, [r4, #0]
 80016e8:	011f      	lsls	r7, r3, #4
 80016ea:	f53f ae98 	bmi.w	800141e <HAL_RCC_OscConfig+0x2a>
          if((HAL_GetTick() - tickstart ) > PLL2_TIMEOUT_VALUE)
 80016ee:	f7fe ff7d 	bl	80005ec <HAL_GetTick>
 80016f2:	1b80      	subs	r0, r0, r6
 80016f4:	2864      	cmp	r0, #100	; 0x64
 80016f6:	d9f6      	bls.n	80016e6 <HAL_RCC_OscConfig+0x2f2>
 80016f8:	e6c2      	b.n	8001480 <HAL_RCC_OscConfig+0x8c>
          if((HAL_GetTick() - tickstart ) > PLL2_TIMEOUT_VALUE)
 80016fa:	f7fe ff77 	bl	80005ec <HAL_GetTick>
 80016fe:	1bc0      	subs	r0, r0, r7
 8001700:	2864      	cmp	r0, #100	; 0x64
 8001702:	d9dc      	bls.n	80016be <HAL_RCC_OscConfig+0x2ca>
 8001704:	e6bc      	b.n	8001480 <HAL_RCC_OscConfig+0x8c>
        __HAL_RCC_PLL2_DISABLE();
 8001706:	2200      	movs	r2, #0
        CLEAR_BIT(RCC->CFGR2, RCC_CFGR2_PREDIV1SRC);
 8001708:	6ae3      	ldr	r3, [r4, #44]	; 0x2c
 800170a:	f423 3380 	bic.w	r3, r3, #65536	; 0x10000
 800170e:	62e3      	str	r3, [r4, #44]	; 0x2c
        __HAL_RCC_PLL2_DISABLE();
 8001710:	4b2c      	ldr	r3, [pc, #176]	; (80017c4 <HAL_RCC_OscConfig+0x3d0>)
 8001712:	601a      	str	r2, [r3, #0]
        tickstart = HAL_GetTick();
 8001714:	f7fe ff6a 	bl	80005ec <HAL_GetTick>
 8001718:	4606      	mov	r6, r0
        while(__HAL_RCC_GET_FLAG(RCC_FLAG_PLL2RDY)  != RESET)
 800171a:	6823      	ldr	r3, [r4, #0]
 800171c:	0118      	lsls	r0, r3, #4
 800171e:	f57f ae7e 	bpl.w	800141e <HAL_RCC_OscConfig+0x2a>
          if((HAL_GetTick() - tickstart ) > PLL2_TIMEOUT_VALUE)
 8001722:	f7fe ff63 	bl	80005ec <HAL_GetTick>
 8001726:	1b80      	subs	r0, r0, r6
 8001728:	2864      	cmp	r0, #100	; 0x64
 800172a:	d9f6      	bls.n	800171a <HAL_RCC_OscConfig+0x326>
 800172c:	e6a8      	b.n	8001480 <HAL_RCC_OscConfig+0x8c>
    if(__HAL_RCC_GET_SYSCLK_SOURCE() != RCC_SYSCLKSOURCE_STATUS_PLLCLK)
 800172e:	4c24      	ldr	r4, [pc, #144]	; (80017c0 <HAL_RCC_OscConfig+0x3cc>)
 8001730:	6863      	ldr	r3, [r4, #4]
 8001732:	f003 030c 	and.w	r3, r3, #12
 8001736:	2b08      	cmp	r3, #8
 8001738:	f43f ae8b 	beq.w	8001452 <HAL_RCC_OscConfig+0x5e>
 800173c:	2300      	movs	r3, #0
 800173e:	4e22      	ldr	r6, [pc, #136]	; (80017c8 <HAL_RCC_OscConfig+0x3d4>)
      if((RCC_OscInitStruct->PLL.PLLState) == RCC_PLL_ON)
 8001740:	2a02      	cmp	r2, #2
        __HAL_RCC_PLL_DISABLE();
 8001742:	6033      	str	r3, [r6, #0]
      if((RCC_OscInitStruct->PLL.PLLState) == RCC_PLL_ON)
 8001744:	d12f      	bne.n	80017a6 <HAL_RCC_OscConfig+0x3b2>
        tickstart = HAL_GetTick();
 8001746:	f7fe ff51 	bl	80005ec <HAL_GetTick>
 800174a:	4607      	mov	r7, r0
        while(__HAL_RCC_GET_FLAG(RCC_FLAG_PLLRDY)  != RESET)
 800174c:	6823      	ldr	r3, [r4, #0]
 800174e:	0199      	lsls	r1, r3, #6
 8001750:	d423      	bmi.n	800179a <HAL_RCC_OscConfig+0x3a6>
        if(RCC_OscInitStruct->PLL.PLLSource == RCC_PLLSOURCE_HSE)
 8001752:	6a6b      	ldr	r3, [r5, #36]	; 0x24
 8001754:	f5b3 3f80 	cmp.w	r3, #65536	; 0x10000
 8001758:	d109      	bne.n	800176e <HAL_RCC_OscConfig+0x37a>
          SET_BIT(RCC->CFGR2, RCC_OscInitStruct->Prediv1Source);
 800175a:	6ae2      	ldr	r2, [r4, #44]	; 0x2c
 800175c:	6869      	ldr	r1, [r5, #4]
 800175e:	430a      	orrs	r2, r1
 8001760:	62e2      	str	r2, [r4, #44]	; 0x2c
          __HAL_RCC_HSE_PREDIV_CONFIG(RCC_OscInitStruct->HSEPredivValue);
 8001762:	6ae2      	ldr	r2, [r4, #44]	; 0x2c
 8001764:	68e9      	ldr	r1, [r5, #12]
 8001766:	f022 020f 	bic.w	r2, r2, #15
 800176a:	430a      	orrs	r2, r1
 800176c:	62e2      	str	r2, [r4, #44]	; 0x2c
        __HAL_RCC_PLL_CONFIG(RCC_OscInitStruct->PLL.PLLSource,
 800176e:	6aa9      	ldr	r1, [r5, #40]	; 0x28
 8001770:	6862      	ldr	r2, [r4, #4]
 8001772:	430b      	orrs	r3, r1
 8001774:	f422 1274 	bic.w	r2, r2, #3997696	; 0x3d0000
 8001778:	4313      	orrs	r3, r2
 800177a:	6063      	str	r3, [r4, #4]
        __HAL_RCC_PLL_ENABLE();
 800177c:	2301      	movs	r3, #1
 800177e:	6033      	str	r3, [r6, #0]
        tickstart = HAL_GetTick();
 8001780:	f7fe ff34 	bl	80005ec <HAL_GetTick>
 8001784:	4605      	mov	r5, r0
        while(__HAL_RCC_GET_FLAG(RCC_FLAG_PLLRDY)  == RESET)
 8001786:	6823      	ldr	r3, [r4, #0]
 8001788:	019a      	lsls	r2, r3, #6
 800178a:	f53f ae4c 	bmi.w	8001426 <HAL_RCC_OscConfig+0x32>
          if((HAL_GetTick() - tickstart ) > PLL_TIMEOUT_VALUE)
 800178e:	f7fe ff2d 	bl	80005ec <HAL_GetTick>
 8001792:	1b40      	subs	r0, r0, r5
 8001794:	2802      	cmp	r0, #2
 8001796:	d9f6      	bls.n	8001786 <HAL_RCC_OscConfig+0x392>
 8001798:	e672      	b.n	8001480 <HAL_RCC_OscConfig+0x8c>
          if((HAL_GetTick() - tickstart ) > PLL_TIMEOUT_VALUE)
 800179a:	f7fe ff27 	bl	80005ec <HAL_GetTick>
 800179e:	1bc0      	subs	r0, r0, r7
 80017a0:	2802      	cmp	r0, #2
 80017a2:	d9d3      	bls.n	800174c <HAL_RCC_OscConfig+0x358>
 80017a4:	e66c      	b.n	8001480 <HAL_RCC_OscConfig+0x8c>
        tickstart = HAL_GetTick();
 80017a6:	f7fe ff21 	bl	80005ec <HAL_GetTick>
 80017aa:	4605      	mov	r5, r0
        while(__HAL_RCC_GET_FLAG(RCC_FLAG_PLLRDY)  != RESET)
 80017ac:	6823      	ldr	r3, [r4, #0]
 80017ae:	019b      	lsls	r3, r3, #6
 80017b0:	f57f ae39 	bpl.w	8001426 <HAL_RCC_OscConfig+0x32>
          if((HAL_GetTick() - tickstart ) > PLL_TIMEOUT_VALUE)
 80017b4:	f7fe ff1a 	bl	80005ec <HAL_GetTick>
 80017b8:	1b40      	subs	r0, r0, r5
 80017ba:	2802      	cmp	r0, #2
 80017bc:	d9f6      	bls.n	80017ac <HAL_RCC_OscConfig+0x3b8>
 80017be:	e65f      	b.n	8001480 <HAL_RCC_OscConfig+0x8c>
 80017c0:	40021000 	.word	0x40021000
 80017c4:	42420068 	.word	0x42420068
 80017c8:	42420060 	.word	0x42420060

080017cc <HAL_RCC_GetSysClockFreq>:
{
 80017cc:	b5f0      	push	{r4, r5, r6, r7, lr}
 80017ce:	b089      	sub	sp, #36	; 0x24
  const uint8_t aPLLMULFactorTable[14] = {0, 0, 4, 5, 6, 7, 8, 9, 0, 0, 0, 0, 0, 13};
 80017d0:	466a      	mov	r2, sp
 80017d2:	4b2a      	ldr	r3, [pc, #168]	; (800187c <HAL_RCC_GetSysClockFreq+0xb0>)
 80017d4:	f103 0508 	add.w	r5, r3, #8
 80017d8:	4614      	mov	r4, r2
 80017da:	6818      	ldr	r0, [r3, #0]
 80017dc:	6859      	ldr	r1, [r3, #4]
 80017de:	3308      	adds	r3, #8
 80017e0:	c403      	stmia	r4!, {r0, r1}
 80017e2:	42ab      	cmp	r3, r5
 80017e4:	4622      	mov	r2, r4
 80017e6:	d1f7      	bne.n	80017d8 <HAL_RCC_GetSysClockFreq+0xc>
 80017e8:	6818      	ldr	r0, [r3, #0]
 80017ea:	889b      	ldrh	r3, [r3, #4]
 80017ec:	6020      	str	r0, [r4, #0]
 80017ee:	80a3      	strh	r3, [r4, #4]
  const uint8_t aPredivFactorTable[16] = {1, 2, 3, 4, 5, 6, 7, 8, 9, 10, 11, 12, 13, 14, 15, 16};
 80017f0:	4b23      	ldr	r3, [pc, #140]	; (8001880 <HAL_RCC_GetSysClockFreq+0xb4>)
 80017f2:	ac04      	add	r4, sp, #16
 80017f4:	f103 0510 	add.w	r5, r3, #16
 80017f8:	4622      	mov	r2, r4
 80017fa:	6818      	ldr	r0, [r3, #0]
 80017fc:	6859      	ldr	r1, [r3, #4]
 80017fe:	3308      	adds	r3, #8
 8001800:	c203      	stmia	r2!, {r0, r1}
 8001802:	42ab      	cmp	r3, r5
 8001804:	4614      	mov	r4, r2
 8001806:	d1f7      	bne.n	80017f8 <HAL_RCC_GetSysClockFreq+0x2c>
  tmpreg = RCC->CFGR;
 8001808:	491e      	ldr	r1, [pc, #120]	; (8001884 <HAL_RCC_GetSysClockFreq+0xb8>)
 800180a:	684b      	ldr	r3, [r1, #4]
  switch (tmpreg & RCC_CFGR_SWS)
 800180c:	f003 020c 	and.w	r2, r3, #12
 8001810:	2a08      	cmp	r2, #8
 8001812:	d131      	bne.n	8001878 <HAL_RCC_GetSysClockFreq+0xac>
      pllmul = aPLLMULFactorTable[(uint32_t)(tmpreg & RCC_CFGR_PLLMULL) >> RCC_CFGR_PLLMULL_Pos];
 8001814:	f3c3 4283 	ubfx	r2, r3, #18, #4
 8001818:	a808      	add	r0, sp, #32
 800181a:	4402      	add	r2, r0
      if ((tmpreg & RCC_CFGR_PLLSRC) != RCC_PLLSOURCE_HSI_DIV2)
 800181c:	03db      	lsls	r3, r3, #15
      pllmul = aPLLMULFactorTable[(uint32_t)(tmpreg & RCC_CFGR_PLLMULL) >> RCC_CFGR_PLLMULL_Pos];
 800181e:	f812 6c20 	ldrb.w	r6, [r2, #-32]
      if ((tmpreg & RCC_CFGR_PLLSRC) != RCC_PLLSOURCE_HSI_DIV2)
 8001822:	d526      	bpl.n	8001872 <HAL_RCC_GetSysClockFreq+0xa6>
        prediv = aPredivFactorTable[(uint32_t)(RCC->CFGR2 & RCC_CFGR2_PREDIV1) >> RCC_CFGR2_PREDIV1_Pos];
 8001824:	6acb      	ldr	r3, [r1, #44]	; 0x2c
 8001826:	f003 030f 	and.w	r3, r3, #15
 800182a:	4403      	add	r3, r0
 800182c:	f813 2c10 	ldrb.w	r2, [r3, #-16]
        if(HAL_IS_BIT_SET(RCC->CFGR2, RCC_CFGR2_PREDIV1SRC))
 8001830:	6acb      	ldr	r3, [r1, #44]	; 0x2c
 8001832:	f413 3f80 	tst.w	r3, #65536	; 0x10000
 8001836:	4b14      	ldr	r3, [pc, #80]	; (8001888 <HAL_RCC_GetSysClockFreq+0xbc>)
 8001838:	d016      	beq.n	8001868 <HAL_RCC_GetSysClockFreq+0x9c>
          prediv2 = ((RCC->CFGR2 & RCC_CFGR2_PREDIV2) >> RCC_CFGR2_PREDIV2_Pos) + 1;
 800183a:	6acf      	ldr	r7, [r1, #44]	; 0x2c
          pll2mul = ((RCC->CFGR2 & RCC_CFGR2_PLL2MUL) >> RCC_CFGR2_PLL2MUL_Pos) + 2;
 800183c:	6acc      	ldr	r4, [r1, #44]	; 0x2c
 800183e:	f3c4 2403 	ubfx	r4, r4, #8, #4
 8001842:	3402      	adds	r4, #2
          pllclk = (uint32_t)(((uint64_t)HSE_VALUE * (uint64_t)pll2mul * (uint64_t)pllmul) / ((uint64_t)prediv2 * (uint64_t)prediv));
 8001844:	fba4 4506 	umull	r4, r5, r4, r6
 8001848:	fba4 0103 	umull	r0, r1, r4, r3
 800184c:	fb03 1105 	mla	r1, r3, r5, r1
          prediv2 = ((RCC->CFGR2 & RCC_CFGR2_PREDIV2) >> RCC_CFGR2_PREDIV2_Pos) + 1;
 8001850:	f3c7 1303 	ubfx	r3, r7, #4, #4
 8001854:	3301      	adds	r3, #1
          pllclk = (uint32_t)(((uint64_t)HSE_VALUE * (uint64_t)pll2mul * (uint64_t)pllmul) / ((uint64_t)prediv2 * (uint64_t)prediv));
 8001856:	fba3 2302 	umull	r2, r3, r3, r2
 800185a:	f7fe fcfd 	bl	8000258 <__aeabi_uldivmod>
        if (pllmul == aPLLMULFactorTable[(uint32_t)(RCC_CFGR_PLLMULL6_5) >> RCC_CFGR_PLLMULL_Pos])
 800185e:	2e0d      	cmp	r6, #13
 8001860:	d100      	bne.n	8001864 <HAL_RCC_GetSysClockFreq+0x98>
            pllclk = pllclk / 2;
 8001862:	0840      	lsrs	r0, r0, #1
}
 8001864:	b009      	add	sp, #36	; 0x24
 8001866:	bdf0      	pop	{r4, r5, r6, r7, pc}
          pllclk = (uint32_t)((HSE_VALUE * pllmul) / prediv);
 8001868:	fb03 f006 	mul.w	r0, r3, r6
 800186c:	fbb0 f0f2 	udiv	r0, r0, r2
 8001870:	e7f5      	b.n	800185e <HAL_RCC_GetSysClockFreq+0x92>
        pllclk = (uint32_t)((HSI_VALUE >> 1) * pllmul);
 8001872:	4806      	ldr	r0, [pc, #24]	; (800188c <HAL_RCC_GetSysClockFreq+0xc0>)
 8001874:	4370      	muls	r0, r6
 8001876:	e7f5      	b.n	8001864 <HAL_RCC_GetSysClockFreq+0x98>
      sysclockfreq = HSE_VALUE;
 8001878:	4803      	ldr	r0, [pc, #12]	; (8001888 <HAL_RCC_GetSysClockFreq+0xbc>)
  return sysclockfreq;
 800187a:	e7f3      	b.n	8001864 <HAL_RCC_GetSysClockFreq+0x98>
 800187c:	080055b4 	.word	0x080055b4
 8001880:	080055c2 	.word	0x080055c2
 8001884:	40021000 	.word	0x40021000
 8001888:	007a1200 	.word	0x007a1200
 800188c:	003d0900 	.word	0x003d0900

08001890 <HAL_RCC_ClockConfig>:
  if(FLatency > (FLASH->ACR & FLASH_ACR_LATENCY))
 8001890:	4a54      	ldr	r2, [pc, #336]	; (80019e4 <HAL_RCC_ClockConfig+0x154>)
{
 8001892:	e92d 41f0 	stmdb	sp!, {r4, r5, r6, r7, r8, lr}
  if(FLatency > (FLASH->ACR & FLASH_ACR_LATENCY))
 8001896:	6813      	ldr	r3, [r2, #0]
{
 8001898:	4605      	mov	r5, r0
  if(FLatency > (FLASH->ACR & FLASH_ACR_LATENCY))
 800189a:	f003 0307 	and.w	r3, r3, #7
 800189e:	428b      	cmp	r3, r1
{
 80018a0:	460e      	mov	r6, r1
  if(FLatency > (FLASH->ACR & FLASH_ACR_LATENCY))
 80018a2:	d32a      	bcc.n	80018fa <HAL_RCC_ClockConfig+0x6a>
  if(((RCC_ClkInitStruct->ClockType) & RCC_CLOCKTYPE_HCLK) == RCC_CLOCKTYPE_HCLK)
 80018a4:	6829      	ldr	r1, [r5, #0]
 80018a6:	078c      	lsls	r4, r1, #30
 80018a8:	d434      	bmi.n	8001914 <HAL_RCC_ClockConfig+0x84>
  if(((RCC_ClkInitStruct->ClockType) & RCC_CLOCKTYPE_SYSCLK) == RCC_CLOCKTYPE_SYSCLK)
 80018aa:	07ca      	lsls	r2, r1, #31
 80018ac:	d447      	bmi.n	800193e <HAL_RCC_ClockConfig+0xae>
  if(FLatency < (FLASH->ACR & FLASH_ACR_LATENCY))
 80018ae:	4a4d      	ldr	r2, [pc, #308]	; (80019e4 <HAL_RCC_ClockConfig+0x154>)
 80018b0:	6813      	ldr	r3, [r2, #0]
 80018b2:	f003 0307 	and.w	r3, r3, #7
 80018b6:	429e      	cmp	r6, r3
 80018b8:	f0c0 8082 	bcc.w	80019c0 <HAL_RCC_ClockConfig+0x130>
  if(((RCC_ClkInitStruct->ClockType) & RCC_CLOCKTYPE_PCLK1) == RCC_CLOCKTYPE_PCLK1)
 80018bc:	682a      	ldr	r2, [r5, #0]
 80018be:	4c4a      	ldr	r4, [pc, #296]	; (80019e8 <HAL_RCC_ClockConfig+0x158>)
 80018c0:	f012 0f04 	tst.w	r2, #4
 80018c4:	f040 8087 	bne.w	80019d6 <HAL_RCC_ClockConfig+0x146>
  if(((RCC_ClkInitStruct->ClockType) & RCC_CLOCKTYPE_PCLK2) == RCC_CLOCKTYPE_PCLK2)
 80018c8:	0713      	lsls	r3, r2, #28
 80018ca:	d506      	bpl.n	80018da <HAL_RCC_ClockConfig+0x4a>
    MODIFY_REG(RCC->CFGR, RCC_CFGR_PPRE2, ((RCC_ClkInitStruct->APB2CLKDivider) << 3));
 80018cc:	6863      	ldr	r3, [r4, #4]
 80018ce:	692a      	ldr	r2, [r5, #16]
 80018d0:	f423 5360 	bic.w	r3, r3, #14336	; 0x3800
 80018d4:	ea43 03c2 	orr.w	r3, r3, r2, lsl #3
 80018d8:	6063      	str	r3, [r4, #4]
  SystemCoreClock = HAL_RCC_GetSysClockFreq() >> AHBPrescTable[(RCC->CFGR & RCC_CFGR_HPRE)>> RCC_CFGR_HPRE_Pos];
 80018da:	f7ff ff77 	bl	80017cc <HAL_RCC_GetSysClockFreq>
 80018de:	6863      	ldr	r3, [r4, #4]
 80018e0:	4a42      	ldr	r2, [pc, #264]	; (80019ec <HAL_RCC_ClockConfig+0x15c>)
 80018e2:	f3c3 1303 	ubfx	r3, r3, #4, #4
 80018e6:	5cd3      	ldrb	r3, [r2, r3]
 80018e8:	40d8      	lsrs	r0, r3
 80018ea:	4b41      	ldr	r3, [pc, #260]	; (80019f0 <HAL_RCC_ClockConfig+0x160>)
 80018ec:	6018      	str	r0, [r3, #0]
  HAL_InitTick (TICK_INT_PRIORITY);
 80018ee:	200f      	movs	r0, #15
 80018f0:	f7fe fe3a 	bl	8000568 <HAL_InitTick>
  return HAL_OK;
 80018f4:	2000      	movs	r0, #0
}
 80018f6:	e8bd 81f0 	ldmia.w	sp!, {r4, r5, r6, r7, r8, pc}
    __HAL_FLASH_SET_LATENCY(FLatency);
 80018fa:	6813      	ldr	r3, [r2, #0]
 80018fc:	f023 0307 	bic.w	r3, r3, #7
 8001900:	430b      	orrs	r3, r1
 8001902:	6013      	str	r3, [r2, #0]
    if((FLASH->ACR & FLASH_ACR_LATENCY) != FLatency)
 8001904:	6813      	ldr	r3, [r2, #0]
 8001906:	f003 0307 	and.w	r3, r3, #7
 800190a:	4299      	cmp	r1, r3
 800190c:	d0ca      	beq.n	80018a4 <HAL_RCC_ClockConfig+0x14>
      return HAL_ERROR;
 800190e:	2001      	movs	r0, #1
 8001910:	e8bd 81f0 	ldmia.w	sp!, {r4, r5, r6, r7, r8, pc}
 8001914:	4b34      	ldr	r3, [pc, #208]	; (80019e8 <HAL_RCC_ClockConfig+0x158>)
    if(((RCC_ClkInitStruct->ClockType) & RCC_CLOCKTYPE_PCLK1) == RCC_CLOCKTYPE_PCLK1)
 8001916:	f011 0f04 	tst.w	r1, #4
      MODIFY_REG(RCC->CFGR, RCC_CFGR_PPRE1, RCC_HCLK_DIV16);
 800191a:	bf1e      	ittt	ne
 800191c:	685a      	ldrne	r2, [r3, #4]
 800191e:	f442 62e0 	orrne.w	r2, r2, #1792	; 0x700
 8001922:	605a      	strne	r2, [r3, #4]
    if(((RCC_ClkInitStruct->ClockType) & RCC_CLOCKTYPE_PCLK2) == RCC_CLOCKTYPE_PCLK2)
 8001924:	0708      	lsls	r0, r1, #28
      MODIFY_REG(RCC->CFGR, RCC_CFGR_PPRE2, (RCC_HCLK_DIV16 << 3));
 8001926:	bf42      	ittt	mi
 8001928:	685a      	ldrmi	r2, [r3, #4]
 800192a:	f442 5260 	orrmi.w	r2, r2, #14336	; 0x3800
 800192e:	605a      	strmi	r2, [r3, #4]
    MODIFY_REG(RCC->CFGR, RCC_CFGR_HPRE, RCC_ClkInitStruct->AHBCLKDivider);
 8001930:	685a      	ldr	r2, [r3, #4]
 8001932:	68a8      	ldr	r0, [r5, #8]
 8001934:	f022 02f0 	bic.w	r2, r2, #240	; 0xf0
 8001938:	4302      	orrs	r2, r0
 800193a:	605a      	str	r2, [r3, #4]
 800193c:	e7b5      	b.n	80018aa <HAL_RCC_ClockConfig+0x1a>
    if(RCC_ClkInitStruct->SYSCLKSource == RCC_SYSCLKSOURCE_HSE)
 800193e:	686a      	ldr	r2, [r5, #4]
 8001940:	4c29      	ldr	r4, [pc, #164]	; (80019e8 <HAL_RCC_ClockConfig+0x158>)
 8001942:	2a01      	cmp	r2, #1
      if(__HAL_RCC_GET_FLAG(RCC_FLAG_HSERDY) == RESET)
 8001944:	6823      	ldr	r3, [r4, #0]
    if(RCC_ClkInitStruct->SYSCLKSource == RCC_SYSCLKSOURCE_HSE)
 8001946:	d11c      	bne.n	8001982 <HAL_RCC_ClockConfig+0xf2>
      if(__HAL_RCC_GET_FLAG(RCC_FLAG_HSERDY) == RESET)
 8001948:	f413 3f00 	tst.w	r3, #131072	; 0x20000
      if(__HAL_RCC_GET_FLAG(RCC_FLAG_HSIRDY) == RESET)
 800194c:	d0df      	beq.n	800190e <HAL_RCC_ClockConfig+0x7e>
    __HAL_RCC_SYSCLK_CONFIG(RCC_ClkInitStruct->SYSCLKSource);
 800194e:	6863      	ldr	r3, [r4, #4]
        if((HAL_GetTick() - tickstart ) > CLOCKSWITCH_TIMEOUT_VALUE)
 8001950:	f241 3888 	movw	r8, #5000	; 0x1388
    __HAL_RCC_SYSCLK_CONFIG(RCC_ClkInitStruct->SYSCLKSource);
 8001954:	f023 0303 	bic.w	r3, r3, #3
 8001958:	4313      	orrs	r3, r2
 800195a:	6063      	str	r3, [r4, #4]
    tickstart = HAL_GetTick();
 800195c:	f7fe fe46 	bl	80005ec <HAL_GetTick>
    if(RCC_ClkInitStruct->SYSCLKSource == RCC_SYSCLKSOURCE_HSE)
 8001960:	686b      	ldr	r3, [r5, #4]
    tickstart = HAL_GetTick();
 8001962:	4607      	mov	r7, r0
    if(RCC_ClkInitStruct->SYSCLKSource == RCC_SYSCLKSOURCE_HSE)
 8001964:	2b01      	cmp	r3, #1
 8001966:	d114      	bne.n	8001992 <HAL_RCC_ClockConfig+0x102>
      while (__HAL_RCC_GET_SYSCLK_SOURCE() != RCC_SYSCLKSOURCE_STATUS_HSE)
 8001968:	6863      	ldr	r3, [r4, #4]
 800196a:	f003 030c 	and.w	r3, r3, #12
 800196e:	2b04      	cmp	r3, #4
 8001970:	d09d      	beq.n	80018ae <HAL_RCC_ClockConfig+0x1e>
        if((HAL_GetTick() - tickstart ) > CLOCKSWITCH_TIMEOUT_VALUE)
 8001972:	f7fe fe3b 	bl	80005ec <HAL_GetTick>
 8001976:	1bc0      	subs	r0, r0, r7
 8001978:	4540      	cmp	r0, r8
 800197a:	d9f5      	bls.n	8001968 <HAL_RCC_ClockConfig+0xd8>
          return HAL_TIMEOUT;
 800197c:	2003      	movs	r0, #3
 800197e:	e8bd 81f0 	ldmia.w	sp!, {r4, r5, r6, r7, r8, pc}
    else if(RCC_ClkInitStruct->SYSCLKSource == RCC_SYSCLKSOURCE_PLLCLK)
 8001982:	2a02      	cmp	r2, #2
 8001984:	d102      	bne.n	800198c <HAL_RCC_ClockConfig+0xfc>
      if(__HAL_RCC_GET_FLAG(RCC_FLAG_PLLRDY) == RESET)
 8001986:	f013 7f00 	tst.w	r3, #33554432	; 0x2000000
 800198a:	e7df      	b.n	800194c <HAL_RCC_ClockConfig+0xbc>
      if(__HAL_RCC_GET_FLAG(RCC_FLAG_HSIRDY) == RESET)
 800198c:	f013 0f02 	tst.w	r3, #2
 8001990:	e7dc      	b.n	800194c <HAL_RCC_ClockConfig+0xbc>
    else if(RCC_ClkInitStruct->SYSCLKSource == RCC_SYSCLKSOURCE_PLLCLK)
 8001992:	2b02      	cmp	r3, #2
 8001994:	d10f      	bne.n	80019b6 <HAL_RCC_ClockConfig+0x126>
      while (__HAL_RCC_GET_SYSCLK_SOURCE() != RCC_SYSCLKSOURCE_STATUS_PLLCLK)
 8001996:	6863      	ldr	r3, [r4, #4]
 8001998:	f003 030c 	and.w	r3, r3, #12
 800199c:	2b08      	cmp	r3, #8
 800199e:	d086      	beq.n	80018ae <HAL_RCC_ClockConfig+0x1e>
        if((HAL_GetTick() - tickstart ) > CLOCKSWITCH_TIMEOUT_VALUE)
 80019a0:	f7fe fe24 	bl	80005ec <HAL_GetTick>
 80019a4:	1bc0      	subs	r0, r0, r7
 80019a6:	4540      	cmp	r0, r8
 80019a8:	d9f5      	bls.n	8001996 <HAL_RCC_ClockConfig+0x106>
 80019aa:	e7e7      	b.n	800197c <HAL_RCC_ClockConfig+0xec>
        if((HAL_GetTick() - tickstart ) > CLOCKSWITCH_TIMEOUT_VALUE)
 80019ac:	f7fe fe1e 	bl	80005ec <HAL_GetTick>
 80019b0:	1bc0      	subs	r0, r0, r7
 80019b2:	4540      	cmp	r0, r8
 80019b4:	d8e2      	bhi.n	800197c <HAL_RCC_ClockConfig+0xec>
      while (__HAL_RCC_GET_SYSCLK_SOURCE() != RCC_SYSCLKSOURCE_STATUS_HSI)
 80019b6:	6863      	ldr	r3, [r4, #4]
 80019b8:	f013 0f0c 	tst.w	r3, #12
 80019bc:	d1f6      	bne.n	80019ac <HAL_RCC_ClockConfig+0x11c>
 80019be:	e776      	b.n	80018ae <HAL_RCC_ClockConfig+0x1e>
    __HAL_FLASH_SET_LATENCY(FLatency);
 80019c0:	6813      	ldr	r3, [r2, #0]
 80019c2:	f023 0307 	bic.w	r3, r3, #7
 80019c6:	4333      	orrs	r3, r6
 80019c8:	6013      	str	r3, [r2, #0]
    if((FLASH->ACR & FLASH_ACR_LATENCY) != FLatency)
 80019ca:	6813      	ldr	r3, [r2, #0]
 80019cc:	f003 0307 	and.w	r3, r3, #7
 80019d0:	429e      	cmp	r6, r3
 80019d2:	d19c      	bne.n	800190e <HAL_RCC_ClockConfig+0x7e>
 80019d4:	e772      	b.n	80018bc <HAL_RCC_ClockConfig+0x2c>
    MODIFY_REG(RCC->CFGR, RCC_CFGR_PPRE1, RCC_ClkInitStruct->APB1CLKDivider);
 80019d6:	6863      	ldr	r3, [r4, #4]
 80019d8:	68e9      	ldr	r1, [r5, #12]
 80019da:	f423 63e0 	bic.w	r3, r3, #1792	; 0x700
 80019de:	430b      	orrs	r3, r1
 80019e0:	6063      	str	r3, [r4, #4]
 80019e2:	e771      	b.n	80018c8 <HAL_RCC_ClockConfig+0x38>
 80019e4:	40022000 	.word	0x40022000
 80019e8:	40021000 	.word	0x40021000
 80019ec:	080056cc 	.word	0x080056cc
 80019f0:	2000000c 	.word	0x2000000c

080019f4 <HAL_RCC_GetPCLK1Freq>:
  return (HAL_RCC_GetHCLKFreq() >> APBPrescTable[(RCC->CFGR & RCC_CFGR_PPRE1) >> RCC_CFGR_PPRE1_Pos]);
 80019f4:	4b04      	ldr	r3, [pc, #16]	; (8001a08 <HAL_RCC_GetPCLK1Freq+0x14>)
 80019f6:	4a05      	ldr	r2, [pc, #20]	; (8001a0c <HAL_RCC_GetPCLK1Freq+0x18>)
 80019f8:	685b      	ldr	r3, [r3, #4]
 80019fa:	f3c3 2302 	ubfx	r3, r3, #8, #3
 80019fe:	5cd3      	ldrb	r3, [r2, r3]
 8001a00:	4a03      	ldr	r2, [pc, #12]	; (8001a10 <HAL_RCC_GetPCLK1Freq+0x1c>)
 8001a02:	6810      	ldr	r0, [r2, #0]
}    
 8001a04:	40d8      	lsrs	r0, r3
 8001a06:	4770      	bx	lr
 8001a08:	40021000 	.word	0x40021000
 8001a0c:	080056dc 	.word	0x080056dc
 8001a10:	2000000c 	.word	0x2000000c

08001a14 <HAL_RCC_GetPCLK2Freq>:
  return (HAL_RCC_GetHCLKFreq()>> APBPrescTable[(RCC->CFGR & RCC_CFGR_PPRE2) >> RCC_CFGR_PPRE2_Pos]);
 8001a14:	4b04      	ldr	r3, [pc, #16]	; (8001a28 <HAL_RCC_GetPCLK2Freq+0x14>)
 8001a16:	4a05      	ldr	r2, [pc, #20]	; (8001a2c <HAL_RCC_GetPCLK2Freq+0x18>)
 8001a18:	685b      	ldr	r3, [r3, #4]
 8001a1a:	f3c3 23c2 	ubfx	r3, r3, #11, #3
 8001a1e:	5cd3      	ldrb	r3, [r2, r3]
 8001a20:	4a03      	ldr	r2, [pc, #12]	; (8001a30 <HAL_RCC_GetPCLK2Freq+0x1c>)
 8001a22:	6810      	ldr	r0, [r2, #0]
} 
 8001a24:	40d8      	lsrs	r0, r3
 8001a26:	4770      	bx	lr
 8001a28:	40021000 	.word	0x40021000
 8001a2c:	080056dc 	.word	0x080056dc
 8001a30:	2000000c 	.word	0x2000000c

08001a34 <HAL_RCCEx_PeriphCLKConfig>:

  /* Check the parameters */
  assert_param(IS_RCC_PERIPHCLOCK(PeriphClkInit->PeriphClockSelection));
  
  /*------------------------------- RTC/LCD Configuration ------------------------*/ 
  if ((((PeriphClkInit->PeriphClockSelection) & RCC_PERIPHCLK_RTC) == RCC_PERIPHCLK_RTC))
 8001a34:	6803      	ldr	r3, [r0, #0]
{
 8001a36:	e92d 41f3 	stmdb	sp!, {r0, r1, r4, r5, r6, r7, r8, lr}
  if ((((PeriphClkInit->PeriphClockSelection) & RCC_PERIPHCLK_RTC) == RCC_PERIPHCLK_RTC))
 8001a3a:	f013 0f01 	tst.w	r3, #1
{
 8001a3e:	4605      	mov	r5, r0
 8001a40:	4c57      	ldr	r4, [pc, #348]	; (8001ba0 <HAL_RCCEx_PeriphCLKConfig+0x16c>)
  if ((((PeriphClkInit->PeriphClockSelection) & RCC_PERIPHCLK_RTC) == RCC_PERIPHCLK_RTC))
 8001a42:	d01f      	beq.n	8001a84 <HAL_RCCEx_PeriphCLKConfig+0x50>
    FlagStatus       pwrclkchanged = RESET;

    /* As soon as function is called to change RTC clock source, activation of the 
       power domain is done. */
    /* Requires to enable write access to Backup Domain of necessary */
    if(__HAL_RCC_PWR_IS_CLK_DISABLED())
 8001a44:	69e3      	ldr	r3, [r4, #28]
 8001a46:	00da      	lsls	r2, r3, #3
 8001a48:	d447      	bmi.n	8001ada <HAL_RCCEx_PeriphCLKConfig+0xa6>
    {
    __HAL_RCC_PWR_CLK_ENABLE();
      pwrclkchanged = SET;
 8001a4a:	2701      	movs	r7, #1
    __HAL_RCC_PWR_CLK_ENABLE();
 8001a4c:	69e3      	ldr	r3, [r4, #28]
 8001a4e:	f043 5380 	orr.w	r3, r3, #268435456	; 0x10000000
 8001a52:	61e3      	str	r3, [r4, #28]
 8001a54:	69e3      	ldr	r3, [r4, #28]
 8001a56:	f003 5380 	and.w	r3, r3, #268435456	; 0x10000000
 8001a5a:	9301      	str	r3, [sp, #4]
 8001a5c:	9b01      	ldr	r3, [sp, #4]
    }
    
    if(HAL_IS_BIT_CLR(PWR->CR, PWR_CR_DBP))
 8001a5e:	4e51      	ldr	r6, [pc, #324]	; (8001ba4 <HAL_RCCEx_PeriphCLKConfig+0x170>)
 8001a60:	6833      	ldr	r3, [r6, #0]
 8001a62:	05db      	lsls	r3, r3, #23
 8001a64:	d53b      	bpl.n	8001ade <HAL_RCCEx_PeriphCLKConfig+0xaa>
        }
      }
    }
      
    /* Reset the Backup domain only if the RTC Clock source selection is modified from reset value */ 
    temp_reg = (RCC->BDCR & RCC_BDCR_RTCSEL);
 8001a66:	6a23      	ldr	r3, [r4, #32]
    if((temp_reg != 0x00000000U) && (temp_reg != (PeriphClkInit->RTCClockSelection & RCC_BDCR_RTCSEL)))
 8001a68:	f413 7340 	ands.w	r3, r3, #768	; 0x300
 8001a6c:	d14b      	bne.n	8001b06 <HAL_RCCEx_PeriphCLKConfig+0xd2>
            return HAL_TIMEOUT;
          }      
        }  
      }
    }
    __HAL_RCC_RTC_CONFIG(PeriphClkInit->RTCClockSelection); 
 8001a6e:	6a23      	ldr	r3, [r4, #32]
 8001a70:	686a      	ldr	r2, [r5, #4]
 8001a72:	f423 7340 	bic.w	r3, r3, #768	; 0x300
 8001a76:	4313      	orrs	r3, r2
 8001a78:	6223      	str	r3, [r4, #32]

    /* Require to disable power clock if necessary */
    if(pwrclkchanged == SET)
 8001a7a:	b11f      	cbz	r7, 8001a84 <HAL_RCCEx_PeriphCLKConfig+0x50>
    {
      __HAL_RCC_PWR_CLK_DISABLE();
 8001a7c:	69e3      	ldr	r3, [r4, #28]
 8001a7e:	f023 5380 	bic.w	r3, r3, #268435456	; 0x10000000
 8001a82:	61e3      	str	r3, [r4, #28]
    }
  }

  /*------------------------------ ADC clock Configuration ------------------*/ 
  if(((PeriphClkInit->PeriphClockSelection) & RCC_PERIPHCLK_ADC) == RCC_PERIPHCLK_ADC)
 8001a84:	682a      	ldr	r2, [r5, #0]
 8001a86:	0793      	lsls	r3, r2, #30
 8001a88:	d505      	bpl.n	8001a96 <HAL_RCCEx_PeriphCLKConfig+0x62>
  {
    /* Check the parameters */
    assert_param(IS_RCC_ADCPLLCLK_DIV(PeriphClkInit->AdcClockSelection));
    
    /* Configure the ADC clock source */
    __HAL_RCC_ADC_CONFIG(PeriphClkInit->AdcClockSelection);
 8001a8a:	6863      	ldr	r3, [r4, #4]
 8001a8c:	68a9      	ldr	r1, [r5, #8]
 8001a8e:	f423 4340 	bic.w	r3, r3, #49152	; 0xc000
 8001a92:	430b      	orrs	r3, r1
 8001a94:	6063      	str	r3, [r4, #4]
  }

#if defined(STM32F105xC) || defined(STM32F107xC)
  /*------------------------------ I2S2 Configuration ------------------------*/ 
  if(((PeriphClkInit->PeriphClockSelection) & RCC_PERIPHCLK_I2S2) == RCC_PERIPHCLK_I2S2)
 8001a96:	0757      	lsls	r7, r2, #29
 8001a98:	d505      	bpl.n	8001aa6 <HAL_RCCEx_PeriphCLKConfig+0x72>
  {
    /* Check the parameters */
    assert_param(IS_RCC_I2S2CLKSOURCE(PeriphClkInit->I2s2ClockSelection));

    /* Configure the I2S2 clock source */
    __HAL_RCC_I2S2_CONFIG(PeriphClkInit->I2s2ClockSelection);
 8001a9a:	6ae3      	ldr	r3, [r4, #44]	; 0x2c
 8001a9c:	68e9      	ldr	r1, [r5, #12]
 8001a9e:	f423 3300 	bic.w	r3, r3, #131072	; 0x20000
 8001aa2:	430b      	orrs	r3, r1
 8001aa4:	62e3      	str	r3, [r4, #44]	; 0x2c
  }

  /*------------------------------ I2S3 Configuration ------------------------*/ 
  if(((PeriphClkInit->PeriphClockSelection) & RCC_PERIPHCLK_I2S3) == RCC_PERIPHCLK_I2S3)
 8001aa6:	0716      	lsls	r6, r2, #28
 8001aa8:	d505      	bpl.n	8001ab6 <HAL_RCCEx_PeriphCLKConfig+0x82>
  {
    /* Check the parameters */
    assert_param(IS_RCC_I2S3CLKSOURCE(PeriphClkInit->I2s3ClockSelection));
    
    /* Configure the I2S3 clock source */
    __HAL_RCC_I2S3_CONFIG(PeriphClkInit->I2s3ClockSelection);
 8001aaa:	6ae3      	ldr	r3, [r4, #44]	; 0x2c
 8001aac:	692a      	ldr	r2, [r5, #16]
 8001aae:	f423 2380 	bic.w	r3, r3, #262144	; 0x40000
 8001ab2:	4313      	orrs	r3, r2
 8001ab4:	62e3      	str	r3, [r4, #44]	; 0x2c
  }

  /*------------------------------ PLL I2S Configuration ----------------------*/ 
  /* Check that PLLI2S need to be enabled */
  if (HAL_IS_BIT_SET(RCC->CFGR2, RCC_CFGR2_I2S2SRC) || HAL_IS_BIT_SET(RCC->CFGR2, RCC_CFGR2_I2S3SRC))
 8001ab6:	6ae3      	ldr	r3, [r4, #44]	; 0x2c
 8001ab8:	0398      	lsls	r0, r3, #14
 8001aba:	d466      	bmi.n	8001b8a <HAL_RCCEx_PeriphCLKConfig+0x156>
 8001abc:	6ae3      	ldr	r3, [r4, #44]	; 0x2c
 8001abe:	0359      	lsls	r1, r3, #13
 8001ac0:	d463      	bmi.n	8001b8a <HAL_RCCEx_PeriphCLKConfig+0x156>

#if defined(STM32F102x6) || defined(STM32F102xB) || defined(STM32F103x6)\
 || defined(STM32F103xB) || defined(STM32F103xE) || defined(STM32F103xG)\
 || defined(STM32F105xC) || defined(STM32F107xC)
  /*------------------------------ USB clock Configuration ------------------*/ 
  if(((PeriphClkInit->PeriphClockSelection) & RCC_PERIPHCLK_USB) == RCC_PERIPHCLK_USB)
 8001ac2:	6828      	ldr	r0, [r5, #0]
 8001ac4:	f010 0010 	ands.w	r0, r0, #16
 8001ac8:	d01a      	beq.n	8001b00 <HAL_RCCEx_PeriphCLKConfig+0xcc>
  {
    /* Check the parameters */
    assert_param(IS_RCC_USBPLLCLK_DIV(PeriphClkInit->UsbClockSelection));
    
    /* Configure the USB clock source */
    __HAL_RCC_USB_CONFIG(PeriphClkInit->UsbClockSelection);
 8001aca:	6863      	ldr	r3, [r4, #4]
 8001acc:	69ea      	ldr	r2, [r5, #28]
 8001ace:	f423 0380 	bic.w	r3, r3, #4194304	; 0x400000
 8001ad2:	4313      	orrs	r3, r2
 8001ad4:	6063      	str	r3, [r4, #4]
  }
#endif /* STM32F102x6 || STM32F102xB || STM32F103x6 || STM32F103xB || STM32F103xE || STM32F103xG || STM32F105xC || STM32F107xC */

  return HAL_OK;
 8001ad6:	2000      	movs	r0, #0
 8001ad8:	e012      	b.n	8001b00 <HAL_RCCEx_PeriphCLKConfig+0xcc>
    FlagStatus       pwrclkchanged = RESET;
 8001ada:	2700      	movs	r7, #0
 8001adc:	e7bf      	b.n	8001a5e <HAL_RCCEx_PeriphCLKConfig+0x2a>
      SET_BIT(PWR->CR, PWR_CR_DBP);
 8001ade:	6833      	ldr	r3, [r6, #0]
 8001ae0:	f443 7380 	orr.w	r3, r3, #256	; 0x100
 8001ae4:	6033      	str	r3, [r6, #0]
      tickstart = HAL_GetTick();
 8001ae6:	f7fe fd81 	bl	80005ec <HAL_GetTick>
 8001aea:	4680      	mov	r8, r0
      while(HAL_IS_BIT_CLR(PWR->CR, PWR_CR_DBP))
 8001aec:	6833      	ldr	r3, [r6, #0]
 8001aee:	05d8      	lsls	r0, r3, #23
 8001af0:	d4b9      	bmi.n	8001a66 <HAL_RCCEx_PeriphCLKConfig+0x32>
        if((HAL_GetTick() - tickstart) > RCC_DBP_TIMEOUT_VALUE)
 8001af2:	f7fe fd7b 	bl	80005ec <HAL_GetTick>
 8001af6:	eba0 0008 	sub.w	r0, r0, r8
 8001afa:	2864      	cmp	r0, #100	; 0x64
 8001afc:	d9f6      	bls.n	8001aec <HAL_RCCEx_PeriphCLKConfig+0xb8>
          return HAL_TIMEOUT;
 8001afe:	2003      	movs	r0, #3
}
 8001b00:	b002      	add	sp, #8
 8001b02:	e8bd 81f0 	ldmia.w	sp!, {r4, r5, r6, r7, r8, pc}
    if((temp_reg != 0x00000000U) && (temp_reg != (PeriphClkInit->RTCClockSelection & RCC_BDCR_RTCSEL)))
 8001b06:	686a      	ldr	r2, [r5, #4]
 8001b08:	f402 7240 	and.w	r2, r2, #768	; 0x300
 8001b0c:	4293      	cmp	r3, r2
 8001b0e:	d0ae      	beq.n	8001a6e <HAL_RCCEx_PeriphCLKConfig+0x3a>
      __HAL_RCC_BACKUPRESET_FORCE();
 8001b10:	2001      	movs	r0, #1
 8001b12:	4a25      	ldr	r2, [pc, #148]	; (8001ba8 <HAL_RCCEx_PeriphCLKConfig+0x174>)
      temp_reg = (RCC->BDCR & ~(RCC_BDCR_RTCSEL));
 8001b14:	6a23      	ldr	r3, [r4, #32]
      __HAL_RCC_BACKUPRESET_FORCE();
 8001b16:	6010      	str	r0, [r2, #0]
      __HAL_RCC_BACKUPRESET_RELEASE();
 8001b18:	2000      	movs	r0, #0
      temp_reg = (RCC->BDCR & ~(RCC_BDCR_RTCSEL));
 8001b1a:	f423 7140 	bic.w	r1, r3, #768	; 0x300
      __HAL_RCC_BACKUPRESET_RELEASE();
 8001b1e:	6010      	str	r0, [r2, #0]
      RCC->BDCR = temp_reg;
 8001b20:	6221      	str	r1, [r4, #32]
      if (HAL_IS_BIT_SET(temp_reg, RCC_BDCR_LSEON))
 8001b22:	07d9      	lsls	r1, r3, #31
 8001b24:	d5a3      	bpl.n	8001a6e <HAL_RCCEx_PeriphCLKConfig+0x3a>
        tickstart = HAL_GetTick();
 8001b26:	f7fe fd61 	bl	80005ec <HAL_GetTick>
          if((HAL_GetTick() - tickstart) > RCC_LSE_TIMEOUT_VALUE)
 8001b2a:	f241 3888 	movw	r8, #5000	; 0x1388
        tickstart = HAL_GetTick();
 8001b2e:	4606      	mov	r6, r0
        while(__HAL_RCC_GET_FLAG(RCC_FLAG_LSERDY) == RESET)
 8001b30:	6a23      	ldr	r3, [r4, #32]
 8001b32:	079a      	lsls	r2, r3, #30
 8001b34:	d49b      	bmi.n	8001a6e <HAL_RCCEx_PeriphCLKConfig+0x3a>
          if((HAL_GetTick() - tickstart) > RCC_LSE_TIMEOUT_VALUE)
 8001b36:	f7fe fd59 	bl	80005ec <HAL_GetTick>
 8001b3a:	1b80      	subs	r0, r0, r6
 8001b3c:	4540      	cmp	r0, r8
 8001b3e:	d9f7      	bls.n	8001b30 <HAL_RCCEx_PeriphCLKConfig+0xfc>
 8001b40:	e7dd      	b.n	8001afe <HAL_RCCEx_PeriphCLKConfig+0xca>
      if (HAL_IS_BIT_SET(RCC->CR,RCC_CR_PLL2ON) && \
 8001b42:	6823      	ldr	r3, [r4, #0]
 8001b44:	69a9      	ldr	r1, [r5, #24]
 8001b46:	f013 6f80 	tst.w	r3, #67108864	; 0x4000000
 8001b4a:	d004      	beq.n	8001b56 <HAL_RCCEx_PeriphCLKConfig+0x122>
        (__HAL_RCC_HSE_GET_PREDIV2() != PeriphClkInit->PLLI2S.HSEPrediv2Value))
 8001b4c:	6ae2      	ldr	r2, [r4, #44]	; 0x2c
 8001b4e:	f002 02f0 	and.w	r2, r2, #240	; 0xf0
      if (HAL_IS_BIT_SET(RCC->CR,RCC_CR_PLL2ON) && \
 8001b52:	428a      	cmp	r2, r1
 8001b54:	d122      	bne.n	8001b9c <HAL_RCCEx_PeriphCLKConfig+0x168>
      __HAL_RCC_HSE_PREDIV2_CONFIG(PeriphClkInit->PLLI2S.HSEPrediv2Value);
 8001b56:	6ae3      	ldr	r3, [r4, #44]	; 0x2c
 8001b58:	f023 03f0 	bic.w	r3, r3, #240	; 0xf0
 8001b5c:	430b      	orrs	r3, r1
 8001b5e:	62e3      	str	r3, [r4, #44]	; 0x2c
      __HAL_RCC_PLLI2S_CONFIG(PeriphClkInit->PLLI2S.PLLI2SMUL);
 8001b60:	6ae3      	ldr	r3, [r4, #44]	; 0x2c
 8001b62:	696a      	ldr	r2, [r5, #20]
 8001b64:	f423 4370 	bic.w	r3, r3, #61440	; 0xf000
 8001b68:	4313      	orrs	r3, r2
      __HAL_RCC_PLLI2S_ENABLE();
 8001b6a:	2201      	movs	r2, #1
      __HAL_RCC_PLLI2S_CONFIG(PeriphClkInit->PLLI2S.PLLI2SMUL);
 8001b6c:	62e3      	str	r3, [r4, #44]	; 0x2c
      __HAL_RCC_PLLI2S_ENABLE();
 8001b6e:	4b0f      	ldr	r3, [pc, #60]	; (8001bac <HAL_RCCEx_PeriphCLKConfig+0x178>)
 8001b70:	601a      	str	r2, [r3, #0]
      tickstart = HAL_GetTick();
 8001b72:	f7fe fd3b 	bl	80005ec <HAL_GetTick>
 8001b76:	4606      	mov	r6, r0
      while(__HAL_RCC_GET_FLAG(RCC_FLAG_PLLI2SRDY)  == RESET)
 8001b78:	6823      	ldr	r3, [r4, #0]
 8001b7a:	009a      	lsls	r2, r3, #2
 8001b7c:	d4a1      	bmi.n	8001ac2 <HAL_RCCEx_PeriphCLKConfig+0x8e>
        if((HAL_GetTick() - tickstart ) > PLLI2S_TIMEOUT_VALUE)
 8001b7e:	f7fe fd35 	bl	80005ec <HAL_GetTick>
 8001b82:	1b80      	subs	r0, r0, r6
 8001b84:	2864      	cmp	r0, #100	; 0x64
 8001b86:	d9f7      	bls.n	8001b78 <HAL_RCCEx_PeriphCLKConfig+0x144>
 8001b88:	e7b9      	b.n	8001afe <HAL_RCCEx_PeriphCLKConfig+0xca>
    if (HAL_IS_BIT_CLR(RCC->CR, RCC_CR_PLL3ON))
 8001b8a:	6823      	ldr	r3, [r4, #0]
 8001b8c:	00db      	lsls	r3, r3, #3
 8001b8e:	d5d8      	bpl.n	8001b42 <HAL_RCCEx_PeriphCLKConfig+0x10e>
      if (READ_BIT(RCC->CFGR2, RCC_CFGR2_PLL3MUL) != PeriphClkInit->PLLI2S.PLLI2SMUL)
 8001b90:	6ae3      	ldr	r3, [r4, #44]	; 0x2c
 8001b92:	696a      	ldr	r2, [r5, #20]
 8001b94:	f403 4370 	and.w	r3, r3, #61440	; 0xf000
 8001b98:	4293      	cmp	r3, r2
 8001b9a:	d092      	beq.n	8001ac2 <HAL_RCCEx_PeriphCLKConfig+0x8e>
        return HAL_ERROR;
 8001b9c:	2001      	movs	r0, #1
 8001b9e:	e7af      	b.n	8001b00 <HAL_RCCEx_PeriphCLKConfig+0xcc>
 8001ba0:	40021000 	.word	0x40021000
 8001ba4:	40007000 	.word	0x40007000
 8001ba8:	42420440 	.word	0x42420440
 8001bac:	42420070 	.word	0x42420070

08001bb0 <UART_EndRxTransfer>:
  * @retval None
  */
static void UART_EndRxTransfer(UART_HandleTypeDef *huart)
{
  /* Disable RXNE, PE and ERR (Frame error, noise error, overrun error) interrupts */
  CLEAR_BIT(huart->Instance->CR1, (USART_CR1_RXNEIE | USART_CR1_PEIE));
 8001bb0:	6803      	ldr	r3, [r0, #0]
 8001bb2:	68da      	ldr	r2, [r3, #12]
 8001bb4:	f422 7290 	bic.w	r2, r2, #288	; 0x120
 8001bb8:	60da      	str	r2, [r3, #12]
  CLEAR_BIT(huart->Instance->CR3, USART_CR3_EIE);
 8001bba:	695a      	ldr	r2, [r3, #20]
 8001bbc:	f022 0201 	bic.w	r2, r2, #1
 8001bc0:	615a      	str	r2, [r3, #20]

  /* At end of Rx process, restore huart->RxState to Ready */
  huart->RxState = HAL_UART_STATE_READY;
 8001bc2:	2320      	movs	r3, #32
 8001bc4:	f880 303a 	strb.w	r3, [r0, #58]	; 0x3a
 8001bc8:	4770      	bx	lr
	...

08001bcc <UART_SetConfig>:
  * @param  huart: pointer to a UART_HandleTypeDef structure that contains
  *                the configuration information for the specified UART module.
  * @retval None
  */
static void UART_SetConfig(UART_HandleTypeDef *huart)
{
 8001bcc:	e92d 47f0 	stmdb	sp!, {r4, r5, r6, r7, r8, r9, sl, lr}
  assert_param(IS_UART_MODE(huart->Init.Mode));

  /*------- UART-associated USART registers setting : CR2 Configuration ------*/
  /* Configure the UART Stop Bits: Set STOP[13:12] bits according 
   * to huart->Init.StopBits value */
  MODIFY_REG(huart->Instance->CR2, USART_CR2_STOP, huart->Init.StopBits);
 8001bd0:	6805      	ldr	r5, [r0, #0]
 8001bd2:	68c2      	ldr	r2, [r0, #12]
 8001bd4:	692b      	ldr	r3, [r5, #16]
  tmpreg |= (uint32_t)huart->Init.WordLength | huart->Init.Parity | huart->Init.Mode | huart->Init.OverSampling;
  MODIFY_REG(huart->Instance->CR1, 
             (uint32_t)(USART_CR1_M | USART_CR1_PCE | USART_CR1_PS | USART_CR1_TE | USART_CR1_RE | USART_CR1_OVER8), 
             tmpreg);
#else
  tmpreg |= (uint32_t)huart->Init.WordLength | huart->Init.Parity | huart->Init.Mode;
 8001bd6:	6901      	ldr	r1, [r0, #16]
  MODIFY_REG(huart->Instance->CR2, USART_CR2_STOP, huart->Init.StopBits);
 8001bd8:	f423 5340 	bic.w	r3, r3, #12288	; 0x3000
 8001bdc:	4313      	orrs	r3, r2
 8001bde:	612b      	str	r3, [r5, #16]
  tmpreg |= (uint32_t)huart->Init.WordLength | huart->Init.Parity | huart->Init.Mode;
 8001be0:	6883      	ldr	r3, [r0, #8]
  MODIFY_REG(huart->Instance->CR1, 
 8001be2:	68ea      	ldr	r2, [r5, #12]
  tmpreg |= (uint32_t)huart->Init.WordLength | huart->Init.Parity | huart->Init.Mode;
 8001be4:	430b      	orrs	r3, r1
 8001be6:	6941      	ldr	r1, [r0, #20]
  MODIFY_REG(huart->Instance->CR1, 
 8001be8:	f422 52b0 	bic.w	r2, r2, #5632	; 0x1600
 8001bec:	f022 020c 	bic.w	r2, r2, #12
  tmpreg |= (uint32_t)huart->Init.WordLength | huart->Init.Parity | huart->Init.Mode;
 8001bf0:	430b      	orrs	r3, r1
  MODIFY_REG(huart->Instance->CR1, 
 8001bf2:	4313      	orrs	r3, r2
 8001bf4:	60eb      	str	r3, [r5, #12]
             tmpreg);
#endif /* USART_CR1_OVER8 */

  /*------- UART-associated USART registers setting : CR3 Configuration ------*/
  /* Configure the UART HFC: Set CTSE and RTSE bits according to huart->Init.HwFlowCtl value */
  MODIFY_REG(huart->Instance->CR3, (USART_CR3_RTSE | USART_CR3_CTSE), huart->Init.HwFlowCtl);
 8001bf6:	696b      	ldr	r3, [r5, #20]
 8001bf8:	6982      	ldr	r2, [r0, #24]
 8001bfa:	f423 7340 	bic.w	r3, r3, #768	; 0x300
 8001bfe:	4313      	orrs	r3, r2
 8001c00:	616b      	str	r3, [r5, #20]
      huart->Instance->BRR = UART_BRR_SAMPLING16(HAL_RCC_GetPCLK1Freq(), huart->Init.BaudRate);
    }
  }
#else
  /*-------------------------- USART BRR Configuration ---------------------*/
  if(huart->Instance == USART1)
 8001c02:	4b40      	ldr	r3, [pc, #256]	; (8001d04 <UART_SetConfig+0x138>)
{
 8001c04:	4681      	mov	r9, r0
  if(huart->Instance == USART1)
 8001c06:	429d      	cmp	r5, r3
 8001c08:	f04f 0419 	mov.w	r4, #25
 8001c0c:	d146      	bne.n	8001c9c <UART_SetConfig+0xd0>
  {
    huart->Instance->BRR = UART_BRR_SAMPLING16(HAL_RCC_GetPCLK2Freq(), huart->Init.BaudRate);
 8001c0e:	f7ff ff01 	bl	8001a14 <HAL_RCC_GetPCLK2Freq>
 8001c12:	fb04 f300 	mul.w	r3, r4, r0
 8001c16:	f8d9 6004 	ldr.w	r6, [r9, #4]
 8001c1a:	f04f 0864 	mov.w	r8, #100	; 0x64
 8001c1e:	00b6      	lsls	r6, r6, #2
 8001c20:	fbb3 f3f6 	udiv	r3, r3, r6
 8001c24:	fbb3 f3f8 	udiv	r3, r3, r8
 8001c28:	011e      	lsls	r6, r3, #4
 8001c2a:	f7ff fef3 	bl	8001a14 <HAL_RCC_GetPCLK2Freq>
 8001c2e:	4360      	muls	r0, r4
 8001c30:	f8d9 3004 	ldr.w	r3, [r9, #4]
 8001c34:	009b      	lsls	r3, r3, #2
 8001c36:	fbb0 f7f3 	udiv	r7, r0, r3
 8001c3a:	f7ff feeb 	bl	8001a14 <HAL_RCC_GetPCLK2Freq>
 8001c3e:	4360      	muls	r0, r4
 8001c40:	f8d9 3004 	ldr.w	r3, [r9, #4]
 8001c44:	009b      	lsls	r3, r3, #2
 8001c46:	fbb0 f3f3 	udiv	r3, r0, r3
 8001c4a:	fbb3 f3f8 	udiv	r3, r3, r8
 8001c4e:	fb08 7313 	mls	r3, r8, r3, r7
 8001c52:	011b      	lsls	r3, r3, #4
 8001c54:	3332      	adds	r3, #50	; 0x32
 8001c56:	fbb3 f3f8 	udiv	r3, r3, r8
 8001c5a:	f003 07f0 	and.w	r7, r3, #240	; 0xf0
 8001c5e:	f7ff fed9 	bl	8001a14 <HAL_RCC_GetPCLK2Freq>
 8001c62:	4360      	muls	r0, r4
 8001c64:	f8d9 2004 	ldr.w	r2, [r9, #4]
 8001c68:	0092      	lsls	r2, r2, #2
 8001c6a:	fbb0 faf2 	udiv	sl, r0, r2
 8001c6e:	f7ff fed1 	bl	8001a14 <HAL_RCC_GetPCLK2Freq>
  }
  else
  {
    huart->Instance->BRR = UART_BRR_SAMPLING16(HAL_RCC_GetPCLK1Freq(), huart->Init.BaudRate);
 8001c72:	4360      	muls	r0, r4
 8001c74:	f8d9 3004 	ldr.w	r3, [r9, #4]
 8001c78:	009b      	lsls	r3, r3, #2
 8001c7a:	fbb0 f3f3 	udiv	r3, r0, r3
 8001c7e:	fbb3 f3f8 	udiv	r3, r3, r8
 8001c82:	fb08 a313 	mls	r3, r8, r3, sl
 8001c86:	011b      	lsls	r3, r3, #4
 8001c88:	3332      	adds	r3, #50	; 0x32
 8001c8a:	fbb3 f3f8 	udiv	r3, r3, r8
 8001c8e:	f003 030f 	and.w	r3, r3, #15
 8001c92:	433b      	orrs	r3, r7
 8001c94:	4433      	add	r3, r6
 8001c96:	60ab      	str	r3, [r5, #8]
 8001c98:	e8bd 87f0 	ldmia.w	sp!, {r4, r5, r6, r7, r8, r9, sl, pc}
 8001c9c:	f7ff feaa 	bl	80019f4 <HAL_RCC_GetPCLK1Freq>
 8001ca0:	fb04 f300 	mul.w	r3, r4, r0
 8001ca4:	f8d9 6004 	ldr.w	r6, [r9, #4]
 8001ca8:	f04f 0864 	mov.w	r8, #100	; 0x64
 8001cac:	00b6      	lsls	r6, r6, #2
 8001cae:	fbb3 f3f6 	udiv	r3, r3, r6
 8001cb2:	fbb3 f3f8 	udiv	r3, r3, r8
 8001cb6:	011e      	lsls	r6, r3, #4
 8001cb8:	f7ff fe9c 	bl	80019f4 <HAL_RCC_GetPCLK1Freq>
 8001cbc:	4360      	muls	r0, r4
 8001cbe:	f8d9 3004 	ldr.w	r3, [r9, #4]
 8001cc2:	009b      	lsls	r3, r3, #2
 8001cc4:	fbb0 f7f3 	udiv	r7, r0, r3
 8001cc8:	f7ff fe94 	bl	80019f4 <HAL_RCC_GetPCLK1Freq>
 8001ccc:	4360      	muls	r0, r4
 8001cce:	f8d9 3004 	ldr.w	r3, [r9, #4]
 8001cd2:	009b      	lsls	r3, r3, #2
 8001cd4:	fbb0 f3f3 	udiv	r3, r0, r3
 8001cd8:	fbb3 f3f8 	udiv	r3, r3, r8
 8001cdc:	fb08 7313 	mls	r3, r8, r3, r7
 8001ce0:	011b      	lsls	r3, r3, #4
 8001ce2:	3332      	adds	r3, #50	; 0x32
 8001ce4:	fbb3 f3f8 	udiv	r3, r3, r8
 8001ce8:	f003 07f0 	and.w	r7, r3, #240	; 0xf0
 8001cec:	f7ff fe82 	bl	80019f4 <HAL_RCC_GetPCLK1Freq>
 8001cf0:	4360      	muls	r0, r4
 8001cf2:	f8d9 2004 	ldr.w	r2, [r9, #4]
 8001cf6:	0092      	lsls	r2, r2, #2
 8001cf8:	fbb0 faf2 	udiv	sl, r0, r2
 8001cfc:	f7ff fe7a 	bl	80019f4 <HAL_RCC_GetPCLK1Freq>
 8001d00:	e7b7      	b.n	8001c72 <UART_SetConfig+0xa6>
 8001d02:	bf00      	nop
 8001d04:	40013800 	.word	0x40013800

08001d08 <UART_WaitOnFlagUntilTimeout.constprop.3>:
static HAL_StatusTypeDef UART_WaitOnFlagUntilTimeout(UART_HandleTypeDef *huart, uint32_t Flag, FlagStatus Status, uint32_t Tickstart, uint32_t Timeout)
 8001d08:	b5f8      	push	{r3, r4, r5, r6, r7, lr}
 8001d0a:	4604      	mov	r4, r0
 8001d0c:	460e      	mov	r6, r1
 8001d0e:	4617      	mov	r7, r2
 8001d10:	461d      	mov	r5, r3
  while((__HAL_UART_GET_FLAG(huart, Flag) ? SET : RESET) == Status) 
 8001d12:	6821      	ldr	r1, [r4, #0]
 8001d14:	680b      	ldr	r3, [r1, #0]
 8001d16:	ea36 0303 	bics.w	r3, r6, r3
 8001d1a:	d101      	bne.n	8001d20 <UART_WaitOnFlagUntilTimeout.constprop.3+0x18>
  return HAL_OK;
 8001d1c:	2000      	movs	r0, #0
}
 8001d1e:	bdf8      	pop	{r3, r4, r5, r6, r7, pc}
    if(Timeout != HAL_MAX_DELAY)
 8001d20:	1c6b      	adds	r3, r5, #1
 8001d22:	d0f7      	beq.n	8001d14 <UART_WaitOnFlagUntilTimeout.constprop.3+0xc>
      if((Timeout == 0U)||((HAL_GetTick() - Tickstart ) > Timeout))
 8001d24:	b995      	cbnz	r5, 8001d4c <UART_WaitOnFlagUntilTimeout.constprop.3+0x44>
        CLEAR_BIT(huart->Instance->CR1, (USART_CR1_RXNEIE | USART_CR1_PEIE | USART_CR1_TXEIE));
 8001d26:	6823      	ldr	r3, [r4, #0]
        __HAL_UNLOCK(huart);
 8001d28:	2003      	movs	r0, #3
        CLEAR_BIT(huart->Instance->CR1, (USART_CR1_RXNEIE | USART_CR1_PEIE | USART_CR1_TXEIE));
 8001d2a:	68da      	ldr	r2, [r3, #12]
 8001d2c:	f422 72d0 	bic.w	r2, r2, #416	; 0x1a0
 8001d30:	60da      	str	r2, [r3, #12]
        CLEAR_BIT(huart->Instance->CR3, USART_CR3_EIE);
 8001d32:	695a      	ldr	r2, [r3, #20]
 8001d34:	f022 0201 	bic.w	r2, r2, #1
 8001d38:	615a      	str	r2, [r3, #20]
        huart->gState  = HAL_UART_STATE_READY;
 8001d3a:	2320      	movs	r3, #32
 8001d3c:	f884 3039 	strb.w	r3, [r4, #57]	; 0x39
        huart->RxState = HAL_UART_STATE_READY;
 8001d40:	f884 303a 	strb.w	r3, [r4, #58]	; 0x3a
        __HAL_UNLOCK(huart);
 8001d44:	2300      	movs	r3, #0
 8001d46:	f884 3038 	strb.w	r3, [r4, #56]	; 0x38
 8001d4a:	bdf8      	pop	{r3, r4, r5, r6, r7, pc}
      if((Timeout == 0U)||((HAL_GetTick() - Tickstart ) > Timeout))
 8001d4c:	f7fe fc4e 	bl	80005ec <HAL_GetTick>
 8001d50:	1bc0      	subs	r0, r0, r7
 8001d52:	4285      	cmp	r5, r0
 8001d54:	d2dd      	bcs.n	8001d12 <UART_WaitOnFlagUntilTimeout.constprop.3+0xa>
 8001d56:	e7e6      	b.n	8001d26 <UART_WaitOnFlagUntilTimeout.constprop.3+0x1e>

08001d58 <HAL_UART_Init>:
{
 8001d58:	b510      	push	{r4, lr}
  if(huart == NULL)
 8001d5a:	4604      	mov	r4, r0
 8001d5c:	b340      	cbz	r0, 8001db0 <HAL_UART_Init+0x58>
  if(huart->gState == HAL_UART_STATE_RESET)
 8001d5e:	f890 3039 	ldrb.w	r3, [r0, #57]	; 0x39
 8001d62:	f003 02ff 	and.w	r2, r3, #255	; 0xff
 8001d66:	b91b      	cbnz	r3, 8001d70 <HAL_UART_Init+0x18>
    huart->Lock = HAL_UNLOCKED;
 8001d68:	f880 2038 	strb.w	r2, [r0, #56]	; 0x38
    HAL_UART_MspInit(huart);
 8001d6c:	f002 f90c 	bl	8003f88 <HAL_UART_MspInit>
  huart->gState = HAL_UART_STATE_BUSY;
 8001d70:	2324      	movs	r3, #36	; 0x24
  __HAL_UART_DISABLE(huart);
 8001d72:	6822      	ldr	r2, [r4, #0]
  huart->gState = HAL_UART_STATE_BUSY;
 8001d74:	f884 3039 	strb.w	r3, [r4, #57]	; 0x39
  __HAL_UART_DISABLE(huart);
 8001d78:	68d3      	ldr	r3, [r2, #12]
  UART_SetConfig(huart);
 8001d7a:	4620      	mov	r0, r4
  __HAL_UART_DISABLE(huart);
 8001d7c:	f423 5300 	bic.w	r3, r3, #8192	; 0x2000
 8001d80:	60d3      	str	r3, [r2, #12]
  UART_SetConfig(huart);
 8001d82:	f7ff ff23 	bl	8001bcc <UART_SetConfig>
  CLEAR_BIT(huart->Instance->CR2, (USART_CR2_LINEN | USART_CR2_CLKEN));
 8001d86:	6823      	ldr	r3, [r4, #0]
  huart->ErrorCode = HAL_UART_ERROR_NONE;
 8001d88:	2000      	movs	r0, #0
  CLEAR_BIT(huart->Instance->CR2, (USART_CR2_LINEN | USART_CR2_CLKEN));
 8001d8a:	691a      	ldr	r2, [r3, #16]
 8001d8c:	f422 4290 	bic.w	r2, r2, #18432	; 0x4800
 8001d90:	611a      	str	r2, [r3, #16]
  CLEAR_BIT(huart->Instance->CR3, (USART_CR3_SCEN | USART_CR3_HDSEL | USART_CR3_IREN));
 8001d92:	695a      	ldr	r2, [r3, #20]
 8001d94:	f022 022a 	bic.w	r2, r2, #42	; 0x2a
 8001d98:	615a      	str	r2, [r3, #20]
  __HAL_UART_ENABLE(huart);
 8001d9a:	68da      	ldr	r2, [r3, #12]
 8001d9c:	f442 5200 	orr.w	r2, r2, #8192	; 0x2000
 8001da0:	60da      	str	r2, [r3, #12]
  huart->gState= HAL_UART_STATE_READY;
 8001da2:	2320      	movs	r3, #32
  huart->ErrorCode = HAL_UART_ERROR_NONE;
 8001da4:	63e0      	str	r0, [r4, #60]	; 0x3c
  huart->gState= HAL_UART_STATE_READY;
 8001da6:	f884 3039 	strb.w	r3, [r4, #57]	; 0x39
  huart->RxState= HAL_UART_STATE_READY;
 8001daa:	f884 303a 	strb.w	r3, [r4, #58]	; 0x3a
  return HAL_OK;
 8001dae:	bd10      	pop	{r4, pc}
    return HAL_ERROR;
 8001db0:	2001      	movs	r0, #1
}
 8001db2:	bd10      	pop	{r4, pc}

08001db4 <HAL_UART_Transmit>:
{
 8001db4:	e92d 41f0 	stmdb	sp!, {r4, r5, r6, r7, r8, lr}
 8001db8:	461f      	mov	r7, r3
  if(huart->gState == HAL_UART_STATE_READY)
 8001dba:	f890 3039 	ldrb.w	r3, [r0, #57]	; 0x39
{
 8001dbe:	4604      	mov	r4, r0
  if(huart->gState == HAL_UART_STATE_READY)
 8001dc0:	2b20      	cmp	r3, #32
{
 8001dc2:	460d      	mov	r5, r1
 8001dc4:	4690      	mov	r8, r2
  if(huart->gState == HAL_UART_STATE_READY)
 8001dc6:	d14e      	bne.n	8001e66 <HAL_UART_Transmit+0xb2>
    if((pData == NULL) || (Size == 0U))
 8001dc8:	2900      	cmp	r1, #0
 8001dca:	d049      	beq.n	8001e60 <HAL_UART_Transmit+0xac>
 8001dcc:	2a00      	cmp	r2, #0
 8001dce:	d047      	beq.n	8001e60 <HAL_UART_Transmit+0xac>
    __HAL_LOCK(huart);
 8001dd0:	f890 3038 	ldrb.w	r3, [r0, #56]	; 0x38
 8001dd4:	2b01      	cmp	r3, #1
 8001dd6:	d046      	beq.n	8001e66 <HAL_UART_Transmit+0xb2>
 8001dd8:	2301      	movs	r3, #1
 8001dda:	f880 3038 	strb.w	r3, [r0, #56]	; 0x38
    huart->ErrorCode = HAL_UART_ERROR_NONE;
 8001dde:	2300      	movs	r3, #0
 8001de0:	63c3      	str	r3, [r0, #60]	; 0x3c
    huart->gState = HAL_UART_STATE_BUSY_TX;
 8001de2:	2321      	movs	r3, #33	; 0x21
 8001de4:	f880 3039 	strb.w	r3, [r0, #57]	; 0x39
    tickstart = HAL_GetTick();
 8001de8:	f7fe fc00 	bl	80005ec <HAL_GetTick>
 8001dec:	4606      	mov	r6, r0
    huart->TxXferSize = Size;
 8001dee:	f8a4 8024 	strh.w	r8, [r4, #36]	; 0x24
    huart->TxXferCount = Size;
 8001df2:	f8a4 8026 	strh.w	r8, [r4, #38]	; 0x26
    while(huart->TxXferCount > 0U)
 8001df6:	8ce3      	ldrh	r3, [r4, #38]	; 0x26
 8001df8:	b29b      	uxth	r3, r3
 8001dfa:	b96b      	cbnz	r3, 8001e18 <HAL_UART_Transmit+0x64>
    if(UART_WaitOnFlagUntilTimeout(huart, UART_FLAG_TC, RESET, tickstart, Timeout) != HAL_OK)
 8001dfc:	463b      	mov	r3, r7
 8001dfe:	4632      	mov	r2, r6
 8001e00:	2140      	movs	r1, #64	; 0x40
 8001e02:	4620      	mov	r0, r4
 8001e04:	f7ff ff80 	bl	8001d08 <UART_WaitOnFlagUntilTimeout.constprop.3>
 8001e08:	b9a8      	cbnz	r0, 8001e36 <HAL_UART_Transmit+0x82>
    huart->gState = HAL_UART_STATE_READY;
 8001e0a:	2320      	movs	r3, #32
    __HAL_UNLOCK(huart);
 8001e0c:	f884 0038 	strb.w	r0, [r4, #56]	; 0x38
    huart->gState = HAL_UART_STATE_READY;
 8001e10:	f884 3039 	strb.w	r3, [r4, #57]	; 0x39
    return HAL_OK;
 8001e14:	e8bd 81f0 	ldmia.w	sp!, {r4, r5, r6, r7, r8, pc}
      huart->TxXferCount--;
 8001e18:	8ce3      	ldrh	r3, [r4, #38]	; 0x26
        if(UART_WaitOnFlagUntilTimeout(huart, UART_FLAG_TXE, RESET, tickstart, Timeout) != HAL_OK)
 8001e1a:	4632      	mov	r2, r6
      huart->TxXferCount--;
 8001e1c:	3b01      	subs	r3, #1
 8001e1e:	b29b      	uxth	r3, r3
 8001e20:	84e3      	strh	r3, [r4, #38]	; 0x26
      if(huart->Init.WordLength == UART_WORDLENGTH_9B)
 8001e22:	68a3      	ldr	r3, [r4, #8]
        if(UART_WaitOnFlagUntilTimeout(huart, UART_FLAG_TXE, RESET, tickstart, Timeout) != HAL_OK)
 8001e24:	2180      	movs	r1, #128	; 0x80
      if(huart->Init.WordLength == UART_WORDLENGTH_9B)
 8001e26:	f5b3 5f80 	cmp.w	r3, #4096	; 0x1000
        if(UART_WaitOnFlagUntilTimeout(huart, UART_FLAG_TXE, RESET, tickstart, Timeout) != HAL_OK)
 8001e2a:	4620      	mov	r0, r4
 8001e2c:	463b      	mov	r3, r7
      if(huart->Init.WordLength == UART_WORDLENGTH_9B)
 8001e2e:	d10e      	bne.n	8001e4e <HAL_UART_Transmit+0x9a>
        if(UART_WaitOnFlagUntilTimeout(huart, UART_FLAG_TXE, RESET, tickstart, Timeout) != HAL_OK)
 8001e30:	f7ff ff6a 	bl	8001d08 <UART_WaitOnFlagUntilTimeout.constprop.3>
 8001e34:	b110      	cbz	r0, 8001e3c <HAL_UART_Transmit+0x88>
          return HAL_TIMEOUT;
 8001e36:	2003      	movs	r0, #3
 8001e38:	e8bd 81f0 	ldmia.w	sp!, {r4, r5, r6, r7, r8, pc}
        huart->Instance->DR = (*tmp & (uint16_t)0x01FF);
 8001e3c:	882b      	ldrh	r3, [r5, #0]
 8001e3e:	6822      	ldr	r2, [r4, #0]
 8001e40:	f3c3 0308 	ubfx	r3, r3, #0, #9
 8001e44:	6053      	str	r3, [r2, #4]
        if(huart->Init.Parity == UART_PARITY_NONE)
 8001e46:	6923      	ldr	r3, [r4, #16]
 8001e48:	b943      	cbnz	r3, 8001e5c <HAL_UART_Transmit+0xa8>
          pData +=2U;
 8001e4a:	3502      	adds	r5, #2
 8001e4c:	e7d3      	b.n	8001df6 <HAL_UART_Transmit+0x42>
        if(UART_WaitOnFlagUntilTimeout(huart, UART_FLAG_TXE, RESET, tickstart, Timeout) != HAL_OK)
 8001e4e:	f7ff ff5b 	bl	8001d08 <UART_WaitOnFlagUntilTimeout.constprop.3>
 8001e52:	2800      	cmp	r0, #0
 8001e54:	d1ef      	bne.n	8001e36 <HAL_UART_Transmit+0x82>
        huart->Instance->DR = (*pData++ & (uint8_t)0xFF);
 8001e56:	6823      	ldr	r3, [r4, #0]
 8001e58:	782a      	ldrb	r2, [r5, #0]
 8001e5a:	605a      	str	r2, [r3, #4]
 8001e5c:	3501      	adds	r5, #1
 8001e5e:	e7ca      	b.n	8001df6 <HAL_UART_Transmit+0x42>
      return  HAL_ERROR;
 8001e60:	2001      	movs	r0, #1
 8001e62:	e8bd 81f0 	ldmia.w	sp!, {r4, r5, r6, r7, r8, pc}
    return HAL_BUSY;
 8001e66:	2002      	movs	r0, #2
}
 8001e68:	e8bd 81f0 	ldmia.w	sp!, {r4, r5, r6, r7, r8, pc}

08001e6c <HAL_UART_Receive_IT>:
  if(huart->RxState == HAL_UART_STATE_READY)
 8001e6c:	f890 303a 	ldrb.w	r3, [r0, #58]	; 0x3a
 8001e70:	2b20      	cmp	r3, #32
 8001e72:	d120      	bne.n	8001eb6 <HAL_UART_Receive_IT+0x4a>
    if((pData == NULL) || (Size == 0U))
 8001e74:	b1e9      	cbz	r1, 8001eb2 <HAL_UART_Receive_IT+0x46>
 8001e76:	b1e2      	cbz	r2, 8001eb2 <HAL_UART_Receive_IT+0x46>
    __HAL_LOCK(huart);
 8001e78:	f890 3038 	ldrb.w	r3, [r0, #56]	; 0x38
 8001e7c:	2b01      	cmp	r3, #1
 8001e7e:	d01a      	beq.n	8001eb6 <HAL_UART_Receive_IT+0x4a>
    huart->RxXferCount = Size;
 8001e80:	85c2      	strh	r2, [r0, #46]	; 0x2e
    huart->RxXferSize = Size;
 8001e82:	8582      	strh	r2, [r0, #44]	; 0x2c
    huart->ErrorCode = HAL_UART_ERROR_NONE;
 8001e84:	2300      	movs	r3, #0
    huart->RxState = HAL_UART_STATE_BUSY_RX;
 8001e86:	2222      	movs	r2, #34	; 0x22
    huart->ErrorCode = HAL_UART_ERROR_NONE;
 8001e88:	63c3      	str	r3, [r0, #60]	; 0x3c
    huart->RxState = HAL_UART_STATE_BUSY_RX;
 8001e8a:	f880 203a 	strb.w	r2, [r0, #58]	; 0x3a
    __HAL_UART_ENABLE_IT(huart, UART_IT_PE);
 8001e8e:	6802      	ldr	r2, [r0, #0]
    huart->pRxBuffPtr = pData;
 8001e90:	6281      	str	r1, [r0, #40]	; 0x28
    __HAL_UART_ENABLE_IT(huart, UART_IT_PE);
 8001e92:	68d1      	ldr	r1, [r2, #12]
    __HAL_UNLOCK(huart);
 8001e94:	f880 3038 	strb.w	r3, [r0, #56]	; 0x38
    __HAL_UART_ENABLE_IT(huart, UART_IT_PE);
 8001e98:	f441 7180 	orr.w	r1, r1, #256	; 0x100
 8001e9c:	60d1      	str	r1, [r2, #12]
    __HAL_UART_ENABLE_IT(huart, UART_IT_ERR);
 8001e9e:	6951      	ldr	r1, [r2, #20]
    return HAL_OK;
 8001ea0:	4618      	mov	r0, r3
    __HAL_UART_ENABLE_IT(huart, UART_IT_ERR);
 8001ea2:	f041 0101 	orr.w	r1, r1, #1
 8001ea6:	6151      	str	r1, [r2, #20]
    __HAL_UART_ENABLE_IT(huart, UART_IT_RXNE);
 8001ea8:	68d1      	ldr	r1, [r2, #12]
 8001eaa:	f041 0120 	orr.w	r1, r1, #32
 8001eae:	60d1      	str	r1, [r2, #12]
    return HAL_OK;
 8001eb0:	4770      	bx	lr
      return HAL_ERROR;
 8001eb2:	2001      	movs	r0, #1
 8001eb4:	4770      	bx	lr
    return HAL_BUSY;
 8001eb6:	2002      	movs	r0, #2
}
 8001eb8:	4770      	bx	lr
	...

08001ebc <HAL_UART_Transmit_DMA>:
{
 8001ebc:	b538      	push	{r3, r4, r5, lr}
 8001ebe:	4604      	mov	r4, r0
 8001ec0:	4613      	mov	r3, r2
  if(huart->gState == HAL_UART_STATE_READY)
 8001ec2:	f894 2039 	ldrb.w	r2, [r4, #57]	; 0x39
 8001ec6:	2a20      	cmp	r2, #32
 8001ec8:	d12a      	bne.n	8001f20 <HAL_UART_Transmit_DMA+0x64>
    if((pData == NULL) || (Size == 0U))
 8001eca:	b339      	cbz	r1, 8001f1c <HAL_UART_Transmit_DMA+0x60>
 8001ecc:	b333      	cbz	r3, 8001f1c <HAL_UART_Transmit_DMA+0x60>
    __HAL_LOCK(huart);
 8001ece:	f894 2038 	ldrb.w	r2, [r4, #56]	; 0x38
 8001ed2:	2a01      	cmp	r2, #1
 8001ed4:	d024      	beq.n	8001f20 <HAL_UART_Transmit_DMA+0x64>
 8001ed6:	2201      	movs	r2, #1
    huart->ErrorCode = HAL_UART_ERROR_NONE;
 8001ed8:	2500      	movs	r5, #0
    __HAL_LOCK(huart);
 8001eda:	f884 2038 	strb.w	r2, [r4, #56]	; 0x38
    huart->gState = HAL_UART_STATE_BUSY_TX;
 8001ede:	2221      	movs	r2, #33	; 0x21
    huart->TxXferCount = Size;
 8001ee0:	84e3      	strh	r3, [r4, #38]	; 0x26
    huart->hdmatx->XferCpltCallback = UART_DMATransmitCplt;
 8001ee2:	6b20      	ldr	r0, [r4, #48]	; 0x30
    huart->ErrorCode = HAL_UART_ERROR_NONE;
 8001ee4:	63e5      	str	r5, [r4, #60]	; 0x3c
    huart->gState = HAL_UART_STATE_BUSY_TX;
 8001ee6:	f884 2039 	strb.w	r2, [r4, #57]	; 0x39
    huart->hdmatx->XferCpltCallback = UART_DMATransmitCplt;
 8001eea:	4a0e      	ldr	r2, [pc, #56]	; (8001f24 <HAL_UART_Transmit_DMA+0x68>)
    huart->TxXferSize = Size;
 8001eec:	84a3      	strh	r3, [r4, #36]	; 0x24
    huart->pTxBuffPtr = pData;
 8001eee:	6221      	str	r1, [r4, #32]
    huart->hdmatx->XferCpltCallback = UART_DMATransmitCplt;
 8001ef0:	6282      	str	r2, [r0, #40]	; 0x28
    huart->hdmatx->XferHalfCpltCallback = UART_DMATxHalfCplt;
 8001ef2:	4a0d      	ldr	r2, [pc, #52]	; (8001f28 <HAL_UART_Transmit_DMA+0x6c>)
    huart->hdmatx->XferAbortCallback = NULL;
 8001ef4:	6345      	str	r5, [r0, #52]	; 0x34
    huart->hdmatx->XferHalfCpltCallback = UART_DMATxHalfCplt;
 8001ef6:	62c2      	str	r2, [r0, #44]	; 0x2c
    huart->hdmatx->XferErrorCallback = UART_DMAError;
 8001ef8:	4a0c      	ldr	r2, [pc, #48]	; (8001f2c <HAL_UART_Transmit_DMA+0x70>)
 8001efa:	6302      	str	r2, [r0, #48]	; 0x30
    HAL_DMA_Start_IT(huart->hdmatx, *(uint32_t*)tmp, (uint32_t)&huart->Instance->DR, Size);
 8001efc:	6822      	ldr	r2, [r4, #0]
 8001efe:	3204      	adds	r2, #4
 8001f00:	f7fe feda 	bl	8000cb8 <HAL_DMA_Start_IT>
    __HAL_UART_CLEAR_FLAG(huart, UART_FLAG_TC);
 8001f04:	f06f 0240 	mvn.w	r2, #64	; 0x40
 8001f08:	6823      	ldr	r3, [r4, #0]
    return HAL_OK;
 8001f0a:	4628      	mov	r0, r5
    __HAL_UART_CLEAR_FLAG(huart, UART_FLAG_TC);
 8001f0c:	601a      	str	r2, [r3, #0]
    SET_BIT(huart->Instance->CR3, USART_CR3_DMAT);
 8001f0e:	695a      	ldr	r2, [r3, #20]
    __HAL_UNLOCK(huart);
 8001f10:	f884 5038 	strb.w	r5, [r4, #56]	; 0x38
    SET_BIT(huart->Instance->CR3, USART_CR3_DMAT);
 8001f14:	f042 0280 	orr.w	r2, r2, #128	; 0x80
 8001f18:	615a      	str	r2, [r3, #20]
    return HAL_OK;
 8001f1a:	bd38      	pop	{r3, r4, r5, pc}
      return HAL_ERROR;
 8001f1c:	2001      	movs	r0, #1
 8001f1e:	bd38      	pop	{r3, r4, r5, pc}
    return HAL_BUSY;
 8001f20:	2002      	movs	r0, #2
}
 8001f22:	bd38      	pop	{r3, r4, r5, pc}
 8001f24:	08001f33 	.word	0x08001f33
 8001f28:	08001f61 	.word	0x08001f61
 8001f2c:	08001fe9 	.word	0x08001fe9

08001f30 <HAL_UART_TxCpltCallback>:
 8001f30:	4770      	bx	lr

08001f32 <UART_DMATransmitCplt>:
{
 8001f32:	b508      	push	{r3, lr}
  if((hdma->Instance->CCR & DMA_CCR_CIRC) == 0U)
 8001f34:	6803      	ldr	r3, [r0, #0]
  UART_HandleTypeDef* huart = ( UART_HandleTypeDef* )((DMA_HandleTypeDef* )hdma)->Parent;
 8001f36:	6a42      	ldr	r2, [r0, #36]	; 0x24
  if((hdma->Instance->CCR & DMA_CCR_CIRC) == 0U)
 8001f38:	681b      	ldr	r3, [r3, #0]
 8001f3a:	f013 0320 	ands.w	r3, r3, #32
 8001f3e:	d10a      	bne.n	8001f56 <UART_DMATransmitCplt+0x24>
    huart->TxXferCount = 0U;
 8001f40:	84d3      	strh	r3, [r2, #38]	; 0x26
    CLEAR_BIT(huart->Instance->CR3, USART_CR3_DMAT);
 8001f42:	6813      	ldr	r3, [r2, #0]
 8001f44:	695a      	ldr	r2, [r3, #20]
 8001f46:	f022 0280 	bic.w	r2, r2, #128	; 0x80
 8001f4a:	615a      	str	r2, [r3, #20]
    SET_BIT(huart->Instance->CR1, USART_CR1_TCIE);
 8001f4c:	68da      	ldr	r2, [r3, #12]
 8001f4e:	f042 0240 	orr.w	r2, r2, #64	; 0x40
 8001f52:	60da      	str	r2, [r3, #12]
 8001f54:	bd08      	pop	{r3, pc}
    HAL_UART_TxCpltCallback(huart);
 8001f56:	4610      	mov	r0, r2
 8001f58:	f7ff ffea 	bl	8001f30 <HAL_UART_TxCpltCallback>
 8001f5c:	bd08      	pop	{r3, pc}

08001f5e <HAL_UART_TxHalfCpltCallback>:
 8001f5e:	4770      	bx	lr

08001f60 <UART_DMATxHalfCplt>:
{
 8001f60:	b508      	push	{r3, lr}
  HAL_UART_TxHalfCpltCallback(huart);
 8001f62:	6a40      	ldr	r0, [r0, #36]	; 0x24
 8001f64:	f7ff fffb 	bl	8001f5e <HAL_UART_TxHalfCpltCallback>
 8001f68:	bd08      	pop	{r3, pc}

08001f6a <UART_Receive_IT>:
  if(huart->RxState == HAL_UART_STATE_BUSY_RX) 
 8001f6a:	f890 303a 	ldrb.w	r3, [r0, #58]	; 0x3a
{
 8001f6e:	b510      	push	{r4, lr}
  if(huart->RxState == HAL_UART_STATE_BUSY_RX) 
 8001f70:	2b22      	cmp	r3, #34	; 0x22
 8001f72:	d136      	bne.n	8001fe2 <UART_Receive_IT+0x78>
    if(huart->Init.WordLength == UART_WORDLENGTH_9B)
 8001f74:	6883      	ldr	r3, [r0, #8]
 8001f76:	6901      	ldr	r1, [r0, #16]
 8001f78:	f5b3 5f80 	cmp.w	r3, #4096	; 0x1000
 8001f7c:	6802      	ldr	r2, [r0, #0]
 8001f7e:	6a83      	ldr	r3, [r0, #40]	; 0x28
 8001f80:	d123      	bne.n	8001fca <UART_Receive_IT+0x60>
        *tmp = (uint16_t)(huart->Instance->DR & (uint16_t)0x01FF);
 8001f82:	6852      	ldr	r2, [r2, #4]
      if(huart->Init.Parity == UART_PARITY_NONE)
 8001f84:	b9e9      	cbnz	r1, 8001fc2 <UART_Receive_IT+0x58>
        *tmp = (uint16_t)(huart->Instance->DR & (uint16_t)0x01FF);
 8001f86:	f3c2 0208 	ubfx	r2, r2, #0, #9
 8001f8a:	f823 2b02 	strh.w	r2, [r3], #2
        huart->pRxBuffPtr += 1U;
 8001f8e:	6283      	str	r3, [r0, #40]	; 0x28
    if(--huart->RxXferCount == 0U)
 8001f90:	8dc4      	ldrh	r4, [r0, #46]	; 0x2e
 8001f92:	3c01      	subs	r4, #1
 8001f94:	b2a4      	uxth	r4, r4
 8001f96:	85c4      	strh	r4, [r0, #46]	; 0x2e
 8001f98:	b98c      	cbnz	r4, 8001fbe <UART_Receive_IT+0x54>
      __HAL_UART_DISABLE_IT(huart, UART_IT_RXNE);
 8001f9a:	6803      	ldr	r3, [r0, #0]
 8001f9c:	68da      	ldr	r2, [r3, #12]
 8001f9e:	f022 0220 	bic.w	r2, r2, #32
 8001fa2:	60da      	str	r2, [r3, #12]
      __HAL_UART_DISABLE_IT(huart, UART_IT_PE);
 8001fa4:	68da      	ldr	r2, [r3, #12]
 8001fa6:	f422 7280 	bic.w	r2, r2, #256	; 0x100
 8001faa:	60da      	str	r2, [r3, #12]
        __HAL_UART_DISABLE_IT(huart, UART_IT_ERR);
 8001fac:	695a      	ldr	r2, [r3, #20]
 8001fae:	f022 0201 	bic.w	r2, r2, #1
 8001fb2:	615a      	str	r2, [r3, #20]
      huart->RxState = HAL_UART_STATE_READY;
 8001fb4:	2320      	movs	r3, #32
 8001fb6:	f880 303a 	strb.w	r3, [r0, #58]	; 0x3a
      HAL_UART_RxCpltCallback(huart);
 8001fba:	f001 fd8b 	bl	8003ad4 <HAL_UART_RxCpltCallback>
    if(--huart->RxXferCount == 0U)
 8001fbe:	2000      	movs	r0, #0
}
 8001fc0:	bd10      	pop	{r4, pc}
        *tmp = (uint16_t)(huart->Instance->DR & (uint16_t)0x00FF);
 8001fc2:	b2d2      	uxtb	r2, r2
 8001fc4:	f823 2b01 	strh.w	r2, [r3], #1
 8001fc8:	e7e1      	b.n	8001f8e <UART_Receive_IT+0x24>
      if(huart->Init.Parity == UART_PARITY_NONE)
 8001fca:	b921      	cbnz	r1, 8001fd6 <UART_Receive_IT+0x6c>
        *huart->pRxBuffPtr++ = (uint8_t)(huart->Instance->DR & (uint8_t)0x00FF);
 8001fcc:	1c59      	adds	r1, r3, #1
 8001fce:	6852      	ldr	r2, [r2, #4]
 8001fd0:	6281      	str	r1, [r0, #40]	; 0x28
        *huart->pRxBuffPtr++ = (uint8_t)(huart->Instance->DR & (uint8_t)0x007F);
 8001fd2:	701a      	strb	r2, [r3, #0]
 8001fd4:	e7dc      	b.n	8001f90 <UART_Receive_IT+0x26>
 8001fd6:	6852      	ldr	r2, [r2, #4]
 8001fd8:	1c59      	adds	r1, r3, #1
 8001fda:	6281      	str	r1, [r0, #40]	; 0x28
 8001fdc:	f002 027f 	and.w	r2, r2, #127	; 0x7f
 8001fe0:	e7f7      	b.n	8001fd2 <UART_Receive_IT+0x68>
    return HAL_BUSY;
 8001fe2:	2002      	movs	r0, #2
 8001fe4:	bd10      	pop	{r4, pc}

08001fe6 <HAL_UART_ErrorCallback>:
 8001fe6:	4770      	bx	lr

08001fe8 <UART_DMAError>:
  UART_HandleTypeDef* huart = ( UART_HandleTypeDef* )((DMA_HandleTypeDef* )hdma)->Parent;
 8001fe8:	6a41      	ldr	r1, [r0, #36]	; 0x24
{
 8001fea:	b508      	push	{r3, lr}
  dmarequest = HAL_IS_BIT_SET(huart->Instance->CR3, USART_CR3_DMAT);
 8001fec:	680b      	ldr	r3, [r1, #0]
 8001fee:	695a      	ldr	r2, [r3, #20]
  if((huart->gState == HAL_UART_STATE_BUSY_TX) && dmarequest)
 8001ff0:	f891 0039 	ldrb.w	r0, [r1, #57]	; 0x39
 8001ff4:	2821      	cmp	r0, #33	; 0x21
 8001ff6:	d10a      	bne.n	800200e <UART_DMAError+0x26>
 8001ff8:	0612      	lsls	r2, r2, #24
 8001ffa:	d508      	bpl.n	800200e <UART_DMAError+0x26>
    huart->TxXferCount = 0U;
 8001ffc:	2200      	movs	r2, #0
 8001ffe:	84ca      	strh	r2, [r1, #38]	; 0x26
  CLEAR_BIT(huart->Instance->CR1, (USART_CR1_TXEIE | USART_CR1_TCIE));
 8002000:	68da      	ldr	r2, [r3, #12]
 8002002:	f022 02c0 	bic.w	r2, r2, #192	; 0xc0
 8002006:	60da      	str	r2, [r3, #12]
  huart->gState = HAL_UART_STATE_READY;
 8002008:	2220      	movs	r2, #32
 800200a:	f881 2039 	strb.w	r2, [r1, #57]	; 0x39
  dmarequest = HAL_IS_BIT_SET(huart->Instance->CR3, USART_CR3_DMAR); 
 800200e:	695b      	ldr	r3, [r3, #20]
  if((huart->RxState == HAL_UART_STATE_BUSY_RX) && dmarequest)
 8002010:	f891 203a 	ldrb.w	r2, [r1, #58]	; 0x3a
 8002014:	2a22      	cmp	r2, #34	; 0x22
 8002016:	d106      	bne.n	8002026 <UART_DMAError+0x3e>
 8002018:	065b      	lsls	r3, r3, #25
 800201a:	d504      	bpl.n	8002026 <UART_DMAError+0x3e>
    huart->RxXferCount = 0U;
 800201c:	2300      	movs	r3, #0
    UART_EndRxTransfer(huart);
 800201e:	4608      	mov	r0, r1
    huart->RxXferCount = 0U;
 8002020:	85cb      	strh	r3, [r1, #46]	; 0x2e
    UART_EndRxTransfer(huart);
 8002022:	f7ff fdc5 	bl	8001bb0 <UART_EndRxTransfer>
  huart->ErrorCode |= HAL_UART_ERROR_DMA;
 8002026:	6bcb      	ldr	r3, [r1, #60]	; 0x3c
  HAL_UART_ErrorCallback(huart);
 8002028:	4608      	mov	r0, r1
  huart->ErrorCode |= HAL_UART_ERROR_DMA;
 800202a:	f043 0310 	orr.w	r3, r3, #16
 800202e:	63cb      	str	r3, [r1, #60]	; 0x3c
  HAL_UART_ErrorCallback(huart);
 8002030:	f7ff ffd9 	bl	8001fe6 <HAL_UART_ErrorCallback>
 8002034:	bd08      	pop	{r3, pc}
	...

08002038 <HAL_UART_IRQHandler>:
   uint32_t isrflags   = READ_REG(huart->Instance->SR);
 8002038:	6803      	ldr	r3, [r0, #0]
{
 800203a:	b570      	push	{r4, r5, r6, lr}
   uint32_t isrflags   = READ_REG(huart->Instance->SR);
 800203c:	681a      	ldr	r2, [r3, #0]
{
 800203e:	4604      	mov	r4, r0
  if(errorflags == RESET)
 8002040:	0716      	lsls	r6, r2, #28
   uint32_t cr1its     = READ_REG(huart->Instance->CR1);
 8002042:	68d9      	ldr	r1, [r3, #12]
   uint32_t cr3its     = READ_REG(huart->Instance->CR3);
 8002044:	695d      	ldr	r5, [r3, #20]
  if(errorflags == RESET)
 8002046:	d107      	bne.n	8002058 <HAL_UART_IRQHandler+0x20>
    if(((isrflags & USART_SR_RXNE) != RESET) && ((cr1its & USART_CR1_RXNEIE) != RESET))
 8002048:	0696      	lsls	r6, r2, #26
 800204a:	d55a      	bpl.n	8002102 <HAL_UART_IRQHandler+0xca>
 800204c:	068d      	lsls	r5, r1, #26
 800204e:	d558      	bpl.n	8002102 <HAL_UART_IRQHandler+0xca>
}
 8002050:	e8bd 4070 	ldmia.w	sp!, {r4, r5, r6, lr}
      UART_Receive_IT(huart);
 8002054:	f7ff bf89 	b.w	8001f6a <UART_Receive_IT>
  if((errorflags != RESET) && (((cr3its & USART_CR3_EIE) != RESET) || ((cr1its & (USART_CR1_RXNEIE | USART_CR1_PEIE)) != RESET)))
 8002058:	f015 0501 	ands.w	r5, r5, #1
 800205c:	d102      	bne.n	8002064 <HAL_UART_IRQHandler+0x2c>
 800205e:	f411 7f90 	tst.w	r1, #288	; 0x120
 8002062:	d04e      	beq.n	8002102 <HAL_UART_IRQHandler+0xca>
    if(((isrflags & USART_SR_PE) != RESET) && ((cr1its & USART_CR1_PEIE) != RESET))
 8002064:	07d3      	lsls	r3, r2, #31
 8002066:	d505      	bpl.n	8002074 <HAL_UART_IRQHandler+0x3c>
 8002068:	05ce      	lsls	r6, r1, #23
      huart->ErrorCode |= HAL_UART_ERROR_PE;
 800206a:	bf42      	ittt	mi
 800206c:	6be3      	ldrmi	r3, [r4, #60]	; 0x3c
 800206e:	f043 0301 	orrmi.w	r3, r3, #1
 8002072:	63e3      	strmi	r3, [r4, #60]	; 0x3c
    if(((isrflags & USART_SR_NE) != RESET) && ((cr3its & USART_CR3_EIE) != RESET))
 8002074:	0750      	lsls	r0, r2, #29
 8002076:	d504      	bpl.n	8002082 <HAL_UART_IRQHandler+0x4a>
 8002078:	b11d      	cbz	r5, 8002082 <HAL_UART_IRQHandler+0x4a>
      huart->ErrorCode |= HAL_UART_ERROR_NE;
 800207a:	6be3      	ldr	r3, [r4, #60]	; 0x3c
 800207c:	f043 0302 	orr.w	r3, r3, #2
 8002080:	63e3      	str	r3, [r4, #60]	; 0x3c
    if(((isrflags & USART_SR_FE) != RESET) && ((cr3its & USART_CR3_EIE) != RESET))
 8002082:	0793      	lsls	r3, r2, #30
 8002084:	d504      	bpl.n	8002090 <HAL_UART_IRQHandler+0x58>
 8002086:	b11d      	cbz	r5, 8002090 <HAL_UART_IRQHandler+0x58>
      huart->ErrorCode |= HAL_UART_ERROR_FE;
 8002088:	6be3      	ldr	r3, [r4, #60]	; 0x3c
 800208a:	f043 0304 	orr.w	r3, r3, #4
 800208e:	63e3      	str	r3, [r4, #60]	; 0x3c
    if(((isrflags & USART_SR_ORE) != RESET) && ((cr3its & USART_CR3_EIE) != RESET))
 8002090:	0716      	lsls	r6, r2, #28
 8002092:	d504      	bpl.n	800209e <HAL_UART_IRQHandler+0x66>
 8002094:	b11d      	cbz	r5, 800209e <HAL_UART_IRQHandler+0x66>
      huart->ErrorCode |= HAL_UART_ERROR_ORE;
 8002096:	6be3      	ldr	r3, [r4, #60]	; 0x3c
 8002098:	f043 0308 	orr.w	r3, r3, #8
 800209c:	63e3      	str	r3, [r4, #60]	; 0x3c
    if(huart->ErrorCode != HAL_UART_ERROR_NONE)
 800209e:	6be3      	ldr	r3, [r4, #60]	; 0x3c
 80020a0:	2b00      	cmp	r3, #0
 80020a2:	d066      	beq.n	8002172 <HAL_UART_IRQHandler+0x13a>
      if(((isrflags & USART_SR_RXNE) != RESET) && ((cr1its & USART_CR1_RXNEIE) != RESET))
 80020a4:	0695      	lsls	r5, r2, #26
 80020a6:	d504      	bpl.n	80020b2 <HAL_UART_IRQHandler+0x7a>
 80020a8:	0688      	lsls	r0, r1, #26
 80020aa:	d502      	bpl.n	80020b2 <HAL_UART_IRQHandler+0x7a>
        UART_Receive_IT(huart);
 80020ac:	4620      	mov	r0, r4
 80020ae:	f7ff ff5c 	bl	8001f6a <UART_Receive_IT>
      dmarequest = HAL_IS_BIT_SET(huart->Instance->CR3, USART_CR3_DMAR);
 80020b2:	6823      	ldr	r3, [r4, #0]
        UART_EndRxTransfer(huart);
 80020b4:	4620      	mov	r0, r4
      dmarequest = HAL_IS_BIT_SET(huart->Instance->CR3, USART_CR3_DMAR);
 80020b6:	695d      	ldr	r5, [r3, #20]
      if(((huart->ErrorCode & HAL_UART_ERROR_ORE) != RESET) || dmarequest)
 80020b8:	6be2      	ldr	r2, [r4, #60]	; 0x3c
 80020ba:	0711      	lsls	r1, r2, #28
 80020bc:	d402      	bmi.n	80020c4 <HAL_UART_IRQHandler+0x8c>
 80020be:	f015 0540 	ands.w	r5, r5, #64	; 0x40
 80020c2:	d01a      	beq.n	80020fa <HAL_UART_IRQHandler+0xc2>
        UART_EndRxTransfer(huart);
 80020c4:	f7ff fd74 	bl	8001bb0 <UART_EndRxTransfer>
        if(HAL_IS_BIT_SET(huart->Instance->CR3, USART_CR3_DMAR))
 80020c8:	6823      	ldr	r3, [r4, #0]
 80020ca:	695a      	ldr	r2, [r3, #20]
 80020cc:	0652      	lsls	r2, r2, #25
 80020ce:	d510      	bpl.n	80020f2 <HAL_UART_IRQHandler+0xba>
          CLEAR_BIT(huart->Instance->CR3, USART_CR3_DMAR);
 80020d0:	695a      	ldr	r2, [r3, #20]
          if(huart->hdmarx != NULL)
 80020d2:	6b60      	ldr	r0, [r4, #52]	; 0x34
          CLEAR_BIT(huart->Instance->CR3, USART_CR3_DMAR);
 80020d4:	f022 0240 	bic.w	r2, r2, #64	; 0x40
 80020d8:	615a      	str	r2, [r3, #20]
          if(huart->hdmarx != NULL)
 80020da:	b150      	cbz	r0, 80020f2 <HAL_UART_IRQHandler+0xba>
            huart->hdmarx->XferAbortCallback = UART_DMAAbortOnError;
 80020dc:	4b25      	ldr	r3, [pc, #148]	; (8002174 <HAL_UART_IRQHandler+0x13c>)
 80020de:	6343      	str	r3, [r0, #52]	; 0x34
            if(HAL_DMA_Abort_IT(huart->hdmarx) != HAL_OK)
 80020e0:	f7fe fe28 	bl	8000d34 <HAL_DMA_Abort_IT>
 80020e4:	2800      	cmp	r0, #0
 80020e6:	d044      	beq.n	8002172 <HAL_UART_IRQHandler+0x13a>
              huart->hdmarx->XferAbortCallback(huart->hdmarx);
 80020e8:	6b60      	ldr	r0, [r4, #52]	; 0x34
}
 80020ea:	e8bd 4070 	ldmia.w	sp!, {r4, r5, r6, lr}
              huart->hdmarx->XferAbortCallback(huart->hdmarx);
 80020ee:	6b43      	ldr	r3, [r0, #52]	; 0x34
 80020f0:	4718      	bx	r3
            HAL_UART_ErrorCallback(huart);
 80020f2:	4620      	mov	r0, r4
 80020f4:	f7ff ff77 	bl	8001fe6 <HAL_UART_ErrorCallback>
 80020f8:	bd70      	pop	{r4, r5, r6, pc}
        HAL_UART_ErrorCallback(huart);
 80020fa:	f7ff ff74 	bl	8001fe6 <HAL_UART_ErrorCallback>
        huart->ErrorCode = HAL_UART_ERROR_NONE;
 80020fe:	63e5      	str	r5, [r4, #60]	; 0x3c
 8002100:	bd70      	pop	{r4, r5, r6, pc}
  if(((isrflags & USART_SR_TXE) != RESET) && ((cr1its & USART_CR1_TXEIE) != RESET))
 8002102:	0616      	lsls	r6, r2, #24
 8002104:	d527      	bpl.n	8002156 <HAL_UART_IRQHandler+0x11e>
 8002106:	060d      	lsls	r5, r1, #24
 8002108:	d525      	bpl.n	8002156 <HAL_UART_IRQHandler+0x11e>
  if(huart->gState == HAL_UART_STATE_BUSY_TX)
 800210a:	f894 2039 	ldrb.w	r2, [r4, #57]	; 0x39
 800210e:	2a21      	cmp	r2, #33	; 0x21
 8002110:	d12f      	bne.n	8002172 <HAL_UART_IRQHandler+0x13a>
    if(huart->Init.WordLength == UART_WORDLENGTH_9B)
 8002112:	68a2      	ldr	r2, [r4, #8]
 8002114:	f5b2 5f80 	cmp.w	r2, #4096	; 0x1000
 8002118:	6a22      	ldr	r2, [r4, #32]
 800211a:	d117      	bne.n	800214c <HAL_UART_IRQHandler+0x114>
      huart->Instance->DR = (uint16_t)(*tmp & (uint16_t)0x01FF);
 800211c:	8811      	ldrh	r1, [r2, #0]
 800211e:	f3c1 0108 	ubfx	r1, r1, #0, #9
 8002122:	6059      	str	r1, [r3, #4]
      if(huart->Init.Parity == UART_PARITY_NONE)
 8002124:	6921      	ldr	r1, [r4, #16]
 8002126:	b979      	cbnz	r1, 8002148 <HAL_UART_IRQHandler+0x110>
        huart->pTxBuffPtr += 2U;
 8002128:	3202      	adds	r2, #2
        huart->pTxBuffPtr += 1U;
 800212a:	6222      	str	r2, [r4, #32]
    if(--huart->TxXferCount == 0U)
 800212c:	8ce2      	ldrh	r2, [r4, #38]	; 0x26
 800212e:	3a01      	subs	r2, #1
 8002130:	b292      	uxth	r2, r2
 8002132:	84e2      	strh	r2, [r4, #38]	; 0x26
 8002134:	b9ea      	cbnz	r2, 8002172 <HAL_UART_IRQHandler+0x13a>
      __HAL_UART_DISABLE_IT(huart, UART_IT_TXE);
 8002136:	68da      	ldr	r2, [r3, #12]
 8002138:	f022 0280 	bic.w	r2, r2, #128	; 0x80
 800213c:	60da      	str	r2, [r3, #12]
      __HAL_UART_ENABLE_IT(huart, UART_IT_TC);
 800213e:	68da      	ldr	r2, [r3, #12]
 8002140:	f042 0240 	orr.w	r2, r2, #64	; 0x40
 8002144:	60da      	str	r2, [r3, #12]
 8002146:	bd70      	pop	{r4, r5, r6, pc}
        huart->pTxBuffPtr += 1U;
 8002148:	3201      	adds	r2, #1
 800214a:	e7ee      	b.n	800212a <HAL_UART_IRQHandler+0xf2>
      huart->Instance->DR = (uint8_t)(*huart->pTxBuffPtr++ & (uint8_t)0x00FF);
 800214c:	1c51      	adds	r1, r2, #1
 800214e:	6221      	str	r1, [r4, #32]
 8002150:	7812      	ldrb	r2, [r2, #0]
 8002152:	605a      	str	r2, [r3, #4]
 8002154:	e7ea      	b.n	800212c <HAL_UART_IRQHandler+0xf4>
  if(((isrflags & USART_SR_TC) != RESET) && ((cr1its & USART_CR1_TCIE) != RESET))
 8002156:	0650      	lsls	r0, r2, #25
 8002158:	d50b      	bpl.n	8002172 <HAL_UART_IRQHandler+0x13a>
 800215a:	064a      	lsls	r2, r1, #25
 800215c:	d509      	bpl.n	8002172 <HAL_UART_IRQHandler+0x13a>
  __HAL_UART_DISABLE_IT(huart, UART_IT_TC);
 800215e:	68da      	ldr	r2, [r3, #12]
  HAL_UART_TxCpltCallback(huart);
 8002160:	4620      	mov	r0, r4
  __HAL_UART_DISABLE_IT(huart, UART_IT_TC);
 8002162:	f022 0240 	bic.w	r2, r2, #64	; 0x40
 8002166:	60da      	str	r2, [r3, #12]
  huart->gState = HAL_UART_STATE_READY;
 8002168:	2320      	movs	r3, #32
 800216a:	f884 3039 	strb.w	r3, [r4, #57]	; 0x39
  HAL_UART_TxCpltCallback(huart);
 800216e:	f7ff fedf 	bl	8001f30 <HAL_UART_TxCpltCallback>
 8002172:	bd70      	pop	{r4, r5, r6, pc}
 8002174:	08002179 	.word	0x08002179

08002178 <UART_DMAAbortOnError>:
{
 8002178:	b508      	push	{r3, lr}
  huart->RxXferCount = 0x00U;
 800217a:	2300      	movs	r3, #0
  UART_HandleTypeDef* huart = ( UART_HandleTypeDef* )((DMA_HandleTypeDef* )hdma)->Parent;
 800217c:	6a40      	ldr	r0, [r0, #36]	; 0x24
  huart->RxXferCount = 0x00U;
 800217e:	85c3      	strh	r3, [r0, #46]	; 0x2e
  huart->TxXferCount = 0x00U;
 8002180:	84c3      	strh	r3, [r0, #38]	; 0x26
  HAL_UART_ErrorCallback(huart);
 8002182:	f7ff ff30 	bl	8001fe6 <HAL_UART_ErrorCallback>
 8002186:	bd08      	pop	{r3, pc}

08002188 <osKernelStart>:
* @param  argument      pointer that is passed to the thread function as start argument.
* @retval status code that indicates the execution status of the function
* @note   MUST REMAIN UNCHANGED: \b osKernelStart shall be consistent in every CMSIS-RTOS.
*/
osStatus osKernelStart (void)
{
 8002188:	b508      	push	{r3, lr}
  vTaskStartScheduler();
 800218a:	f000 fe6f 	bl	8002e6c <vTaskStartScheduler>
  
  return osOK;
}
 800218e:	2000      	movs	r0, #0
 8002190:	bd08      	pop	{r3, pc}

08002192 <osSystickHandler>:
* @brief  Handles the tick increment
* @param  none.
* @retval none.
*/
void osSystickHandler(void)
{
 8002192:	b508      	push	{r3, lr}

#if (INCLUDE_xTaskGetSchedulerState  == 1 )
  if (xTaskGetSchedulerState() != taskSCHEDULER_NOT_STARTED)
 8002194:	f001 f8fc 	bl	8003390 <xTaskGetSchedulerState>
 8002198:	2801      	cmp	r0, #1
 800219a:	d003      	beq.n	80021a4 <osSystickHandler+0x12>
#endif  /* INCLUDE_xTaskGetSchedulerState */  
    xPortSysTickHandler();
#if (INCLUDE_xTaskGetSchedulerState  == 1 )
  }
#endif  /* INCLUDE_xTaskGetSchedulerState */  
}
 800219c:	e8bd 4008 	ldmia.w	sp!, {r3, lr}
    xPortSysTickHandler();
 80021a0:	f000 b8e8 	b.w	8002374 <xPortSysTickHandler>
 80021a4:	bd08      	pop	{r3, pc}

080021a6 <vListInitialise>:
void vListInitialise( List_t * const pxList )
{
	/* The list structure contains a list item which is used to mark the
	end of the list.  To initialise the list the list end is inserted
	as the only list entry. */
	pxList->pxIndex = ( ListItem_t * ) &( pxList->xListEnd );			/*lint !e826 !e740 The mini list structure is used as the list end to save RAM.  This is checked and valid. */
 80021a6:	f100 0308 	add.w	r3, r0, #8
 80021aa:	6043      	str	r3, [r0, #4]

	/* The list end value is the highest possible value in the list to
	ensure it remains at the end of the list. */
	pxList->xListEnd.xItemValue = portMAX_DELAY;
 80021ac:	f04f 32ff 	mov.w	r2, #4294967295

	/* The list end next and previous pointers point to itself so we know
	when the list is empty. */
	pxList->xListEnd.pxNext = ( ListItem_t * ) &( pxList->xListEnd );	/*lint !e826 !e740 The mini list structure is used as the list end to save RAM.  This is checked and valid. */
 80021b0:	60c3      	str	r3, [r0, #12]
	pxList->xListEnd.pxPrevious = ( ListItem_t * ) &( pxList->xListEnd );/*lint !e826 !e740 The mini list structure is used as the list end to save RAM.  This is checked and valid. */
 80021b2:	6103      	str	r3, [r0, #16]

	pxList->uxNumberOfItems = ( UBaseType_t ) 0U;
 80021b4:	2300      	movs	r3, #0
	pxList->xListEnd.xItemValue = portMAX_DELAY;
 80021b6:	6082      	str	r2, [r0, #8]
	pxList->uxNumberOfItems = ( UBaseType_t ) 0U;
 80021b8:	6003      	str	r3, [r0, #0]
 80021ba:	4770      	bx	lr

080021bc <vListInitialiseItem>:
/*-----------------------------------------------------------*/

void vListInitialiseItem( ListItem_t * const pxItem )
{
	/* Make sure the list item is not recorded as being on a list. */
	pxItem->pvContainer = NULL;
 80021bc:	2300      	movs	r3, #0
 80021be:	6103      	str	r3, [r0, #16]
 80021c0:	4770      	bx	lr

080021c2 <vListInsertEnd>:
}
/*-----------------------------------------------------------*/

void vListInsertEnd( List_t * const pxList, ListItem_t * const pxNewListItem )
{
ListItem_t * const pxIndex = pxList->pxIndex;
 80021c2:	6843      	ldr	r3, [r0, #4]

	/* Insert a new list item into pxList, but rather than sort the list,
	makes the new list item the last item to be removed by a call to
	listGET_OWNER_OF_NEXT_ENTRY(). */
	pxNewListItem->pxNext = pxIndex;
	pxNewListItem->pxPrevious = pxIndex->pxPrevious;
 80021c4:	689a      	ldr	r2, [r3, #8]
	pxNewListItem->pxNext = pxIndex;
 80021c6:	604b      	str	r3, [r1, #4]
	pxNewListItem->pxPrevious = pxIndex->pxPrevious;
 80021c8:	608a      	str	r2, [r1, #8]

	/* Only used during decision coverage testing. */
	mtCOVERAGE_TEST_DELAY();

	pxIndex->pxPrevious->pxNext = pxNewListItem;
 80021ca:	689a      	ldr	r2, [r3, #8]
 80021cc:	6051      	str	r1, [r2, #4]
	pxIndex->pxPrevious = pxNewListItem;
 80021ce:	6099      	str	r1, [r3, #8]

	/* Remember which list the item is in. */
	pxNewListItem->pvContainer = ( void * ) pxList;

	( pxList->uxNumberOfItems )++;
 80021d0:	6803      	ldr	r3, [r0, #0]
	pxNewListItem->pvContainer = ( void * ) pxList;
 80021d2:	6108      	str	r0, [r1, #16]
	( pxList->uxNumberOfItems )++;
 80021d4:	3301      	adds	r3, #1
 80021d6:	6003      	str	r3, [r0, #0]
 80021d8:	4770      	bx	lr

080021da <vListInsert>:
/*-----------------------------------------------------------*/

void vListInsert( List_t * const pxList, ListItem_t * const pxNewListItem )
{
ListItem_t *pxIterator;
const TickType_t xValueOfInsertion = pxNewListItem->xItemValue;
 80021da:	680a      	ldr	r2, [r1, #0]
{
 80021dc:	b530      	push	{r4, r5, lr}
	new list item should be placed after it.  This ensures that TCB's which are
	stored in ready lists (all of which have the same xItemValue value) get a
	share of the CPU.  However, if the xItemValue is the same as the back marker
	the iteration loop below will not end.  Therefore the value is checked
	first, and the algorithm slightly modified if necessary. */
	if( xValueOfInsertion == portMAX_DELAY )
 80021de:	1c53      	adds	r3, r2, #1
 80021e0:	d10a      	bne.n	80021f8 <vListInsert+0x1e>
	{
		pxIterator = pxList->xListEnd.pxPrevious;
 80021e2:	6903      	ldr	r3, [r0, #16]
			/* There is nothing to do here, just iterating to the wanted
			insertion position. */
		}
	}

	pxNewListItem->pxNext = pxIterator->pxNext;
 80021e4:	685a      	ldr	r2, [r3, #4]
 80021e6:	604a      	str	r2, [r1, #4]
	pxNewListItem->pxNext->pxPrevious = pxNewListItem;
 80021e8:	6091      	str	r1, [r2, #8]
	pxNewListItem->pxPrevious = pxIterator;
 80021ea:	608b      	str	r3, [r1, #8]
	pxIterator->pxNext = pxNewListItem;
 80021ec:	6059      	str	r1, [r3, #4]

	/* Remember which list the item is in.  This allows fast removal of the
	item later. */
	pxNewListItem->pvContainer = ( void * ) pxList;

	( pxList->uxNumberOfItems )++;
 80021ee:	6803      	ldr	r3, [r0, #0]
	pxNewListItem->pvContainer = ( void * ) pxList;
 80021f0:	6108      	str	r0, [r1, #16]
	( pxList->uxNumberOfItems )++;
 80021f2:	3301      	adds	r3, #1
 80021f4:	6003      	str	r3, [r0, #0]
 80021f6:	bd30      	pop	{r4, r5, pc}
		for( pxIterator = ( ListItem_t * ) &( pxList->xListEnd ); pxIterator->pxNext->xItemValue <= xValueOfInsertion; pxIterator = pxIterator->pxNext ) /*lint !e826 !e740 The mini list structure is used as the list end to save RAM.  This is checked and valid. */
 80021f8:	f100 0308 	add.w	r3, r0, #8
 80021fc:	685c      	ldr	r4, [r3, #4]
 80021fe:	6825      	ldr	r5, [r4, #0]
 8002200:	42aa      	cmp	r2, r5
 8002202:	d3ef      	bcc.n	80021e4 <vListInsert+0xa>
 8002204:	4623      	mov	r3, r4
 8002206:	e7f9      	b.n	80021fc <vListInsert+0x22>

08002208 <uxListRemove>:
{
/* The list item knows which list it is in.  Obtain the list from the list
item. */
List_t * const pxList = ( List_t * ) pxItemToRemove->pvContainer;

	pxItemToRemove->pxNext->pxPrevious = pxItemToRemove->pxPrevious;
 8002208:	6841      	ldr	r1, [r0, #4]
 800220a:	6882      	ldr	r2, [r0, #8]
List_t * const pxList = ( List_t * ) pxItemToRemove->pvContainer;
 800220c:	6903      	ldr	r3, [r0, #16]
	pxItemToRemove->pxNext->pxPrevious = pxItemToRemove->pxPrevious;
 800220e:	608a      	str	r2, [r1, #8]
	pxItemToRemove->pxPrevious->pxNext = pxItemToRemove->pxNext;
 8002210:	6882      	ldr	r2, [r0, #8]
 8002212:	6051      	str	r1, [r2, #4]

	/* Only used during decision coverage testing. */
	mtCOVERAGE_TEST_DELAY();

	/* Make sure the index is left pointing to a valid item. */
	if( pxList->pxIndex == pxItemToRemove )
 8002214:	6859      	ldr	r1, [r3, #4]
 8002216:	4288      	cmp	r0, r1
	{
		pxList->pxIndex = pxItemToRemove->pxPrevious;
 8002218:	bf08      	it	eq
 800221a:	605a      	streq	r2, [r3, #4]
	else
	{
		mtCOVERAGE_TEST_MARKER();
	}

	pxItemToRemove->pvContainer = NULL;
 800221c:	2200      	movs	r2, #0
 800221e:	6102      	str	r2, [r0, #16]
	( pxList->uxNumberOfItems )--;
 8002220:	6818      	ldr	r0, [r3, #0]
 8002222:	3801      	subs	r0, #1
 8002224:	6018      	str	r0, [r3, #0]

	return pxList->uxNumberOfItems;
}
 8002226:	4770      	bx	lr

08002228 <prvTaskExitError>:
	its caller as there is nothing to return to.  If a task wants to exit it
	should instead call vTaskDelete( NULL ).

	Artificially force an assert() to be triggered if configASSERT() is
	defined, then stop here so application writers can catch the error. */
	configASSERT( uxCriticalNesting == ~0UL );
 8002228:	4b0a      	ldr	r3, [pc, #40]	; (8002254 <prvTaskExitError+0x2c>)
 800222a:	681b      	ldr	r3, [r3, #0]
 800222c:	3301      	adds	r3, #1
 800222e:	d008      	beq.n	8002242 <prvTaskExitError+0x1a>

portFORCE_INLINE static void vPortRaiseBASEPRI( void )
{
uint32_t ulNewBASEPRI;

	__asm volatile
 8002230:	f04f 0350 	mov.w	r3, #80	; 0x50
 8002234:	f383 8811 	msr	BASEPRI, r3
 8002238:	f3bf 8f6f 	isb	sy
 800223c:	f3bf 8f4f 	dsb	sy
 8002240:	e7fe      	b.n	8002240 <prvTaskExitError+0x18>
 8002242:	f04f 0350 	mov.w	r3, #80	; 0x50
 8002246:	f383 8811 	msr	BASEPRI, r3
 800224a:	f3bf 8f6f 	isb	sy
 800224e:	f3bf 8f4f 	dsb	sy
 8002252:	e7fe      	b.n	8002252 <prvTaskExitError+0x2a>
 8002254:	20000008 	.word	0x20000008

08002258 <prvPortStartFirstTask>:
}
/*-----------------------------------------------------------*/

static void prvPortStartFirstTask( void )
{
	__asm volatile(
 8002258:	4806      	ldr	r0, [pc, #24]	; (8002274 <prvPortStartFirstTask+0x1c>)
 800225a:	6800      	ldr	r0, [r0, #0]
 800225c:	6800      	ldr	r0, [r0, #0]
 800225e:	f380 8808 	msr	MSP, r0
 8002262:	b662      	cpsie	i
 8002264:	b661      	cpsie	f
 8002266:	f3bf 8f4f 	dsb	sy
 800226a:	f3bf 8f6f 	isb	sy
 800226e:	df00      	svc	0
 8002270:	bf00      	nop
 8002272:	0000      	.short	0x0000
 8002274:	e000ed08 	.word	0xe000ed08

08002278 <pxPortInitialiseStack>:
	*pxTopOfStack = portINITIAL_XPSR;	/* xPSR */
 8002278:	f04f 7380 	mov.w	r3, #16777216	; 0x1000000
 800227c:	f840 3c04 	str.w	r3, [r0, #-4]
	*pxTopOfStack = ( StackType_t ) portTASK_RETURN_ADDRESS;	/* LR */
 8002280:	4b05      	ldr	r3, [pc, #20]	; (8002298 <pxPortInitialiseStack+0x20>)
	*pxTopOfStack = ( ( StackType_t ) pxCode ) & portSTART_ADDRESS_MASK;	/* PC */
 8002282:	f021 0101 	bic.w	r1, r1, #1
 8002286:	f840 1c08 	str.w	r1, [r0, #-8]
	*pxTopOfStack = ( StackType_t ) portTASK_RETURN_ADDRESS;	/* LR */
 800228a:	f840 3c0c 	str.w	r3, [r0, #-12]
	*pxTopOfStack = ( StackType_t ) pvParameters;	/* R0 */
 800228e:	f840 2c20 	str.w	r2, [r0, #-32]
}
 8002292:	3840      	subs	r0, #64	; 0x40
 8002294:	4770      	bx	lr
 8002296:	bf00      	nop
 8002298:	08002229 	.word	0x08002229
 800229c:	00000000 	.word	0x00000000

080022a0 <SVC_Handler>:
	__asm volatile (
 80022a0:	4b07      	ldr	r3, [pc, #28]	; (80022c0 <pxCurrentTCBConst2>)
 80022a2:	6819      	ldr	r1, [r3, #0]
 80022a4:	6808      	ldr	r0, [r1, #0]
 80022a6:	e8b0 0ff0 	ldmia.w	r0!, {r4, r5, r6, r7, r8, r9, sl, fp}
 80022aa:	f380 8809 	msr	PSP, r0
 80022ae:	f3bf 8f6f 	isb	sy
 80022b2:	f04f 0000 	mov.w	r0, #0
 80022b6:	f380 8811 	msr	BASEPRI, r0
 80022ba:	f04e 0e0d 	orr.w	lr, lr, #13
 80022be:	4770      	bx	lr

080022c0 <pxCurrentTCBConst2>:
 80022c0:	2000503c 	.word	0x2000503c

080022c4 <vPortEnterCritical>:
 80022c4:	f04f 0350 	mov.w	r3, #80	; 0x50
 80022c8:	f383 8811 	msr	BASEPRI, r3
 80022cc:	f3bf 8f6f 	isb	sy
 80022d0:	f3bf 8f4f 	dsb	sy
/*-----------------------------------------------------------*/

void vPortEnterCritical( void )
{
	portDISABLE_INTERRUPTS();
	uxCriticalNesting++;
 80022d4:	4a0a      	ldr	r2, [pc, #40]	; (8002300 <vPortEnterCritical+0x3c>)
 80022d6:	6813      	ldr	r3, [r2, #0]
 80022d8:	3301      	adds	r3, #1
	/* This is not the interrupt safe version of the enter critical function so
	assert() if it is being called from an interrupt context.  Only API
	functions that end in "FromISR" can be used in an interrupt.  Only assert if
	the critical nesting count is 1 to protect against recursive calls if the
	assert function also uses a critical section. */
	if( uxCriticalNesting == 1 )
 80022da:	2b01      	cmp	r3, #1
	uxCriticalNesting++;
 80022dc:	6013      	str	r3, [r2, #0]
	if( uxCriticalNesting == 1 )
 80022de:	d10d      	bne.n	80022fc <vPortEnterCritical+0x38>
	{
		configASSERT( ( portNVIC_INT_CTRL_REG & portVECTACTIVE_MASK ) == 0 );
 80022e0:	4b08      	ldr	r3, [pc, #32]	; (8002304 <vPortEnterCritical+0x40>)
 80022e2:	681b      	ldr	r3, [r3, #0]
 80022e4:	f013 0fff 	tst.w	r3, #255	; 0xff
 80022e8:	d008      	beq.n	80022fc <vPortEnterCritical+0x38>
 80022ea:	f04f 0350 	mov.w	r3, #80	; 0x50
 80022ee:	f383 8811 	msr	BASEPRI, r3
 80022f2:	f3bf 8f6f 	isb	sy
 80022f6:	f3bf 8f4f 	dsb	sy
 80022fa:	e7fe      	b.n	80022fa <vPortEnterCritical+0x36>
 80022fc:	4770      	bx	lr
 80022fe:	bf00      	nop
 8002300:	20000008 	.word	0x20000008
 8002304:	e000ed04 	.word	0xe000ed04

08002308 <vPortExitCritical>:
}
/*-----------------------------------------------------------*/

void vPortExitCritical( void )
{
	configASSERT( uxCriticalNesting );
 8002308:	4a08      	ldr	r2, [pc, #32]	; (800232c <vPortExitCritical+0x24>)
 800230a:	6813      	ldr	r3, [r2, #0]
 800230c:	b943      	cbnz	r3, 8002320 <vPortExitCritical+0x18>
 800230e:	f04f 0350 	mov.w	r3, #80	; 0x50
 8002312:	f383 8811 	msr	BASEPRI, r3
 8002316:	f3bf 8f6f 	isb	sy
 800231a:	f3bf 8f4f 	dsb	sy
 800231e:	e7fe      	b.n	800231e <vPortExitCritical+0x16>
	uxCriticalNesting--;
 8002320:	3b01      	subs	r3, #1
 8002322:	6013      	str	r3, [r2, #0]
	if( uxCriticalNesting == 0 )
 8002324:	b90b      	cbnz	r3, 800232a <vPortExitCritical+0x22>
}
/*-----------------------------------------------------------*/

portFORCE_INLINE static void vPortSetBASEPRI( uint32_t ulNewMaskValue )
{
	__asm volatile
 8002326:	f383 8811 	msr	BASEPRI, r3
 800232a:	4770      	bx	lr
 800232c:	20000008 	.word	0x20000008

08002330 <PendSV_Handler>:

void xPortPendSVHandler( void )
{
	/* This is a naked function. */

	__asm volatile
 8002330:	f3ef 8009 	mrs	r0, PSP
 8002334:	f3bf 8f6f 	isb	sy
 8002338:	4b0d      	ldr	r3, [pc, #52]	; (8002370 <pxCurrentTCBConst>)
 800233a:	681a      	ldr	r2, [r3, #0]
 800233c:	e920 0ff0 	stmdb	r0!, {r4, r5, r6, r7, r8, r9, sl, fp}
 8002340:	6010      	str	r0, [r2, #0]
 8002342:	e92d 4008 	stmdb	sp!, {r3, lr}
 8002346:	f04f 0050 	mov.w	r0, #80	; 0x50
 800234a:	f380 8811 	msr	BASEPRI, r0
 800234e:	f000 ff39 	bl	80031c4 <vTaskSwitchContext>
 8002352:	f04f 0000 	mov.w	r0, #0
 8002356:	f380 8811 	msr	BASEPRI, r0
 800235a:	e8bd 4008 	ldmia.w	sp!, {r3, lr}
 800235e:	6819      	ldr	r1, [r3, #0]
 8002360:	6808      	ldr	r0, [r1, #0]
 8002362:	e8b0 0ff0 	ldmia.w	r0!, {r4, r5, r6, r7, r8, r9, sl, fp}
 8002366:	f380 8809 	msr	PSP, r0
 800236a:	f3bf 8f6f 	isb	sy
 800236e:	4770      	bx	lr

08002370 <pxCurrentTCBConst>:
 8002370:	2000503c 	.word	0x2000503c

08002374 <xPortSysTickHandler>:
	);
}
/*-----------------------------------------------------------*/

void xPortSysTickHandler( void )
{
 8002374:	b508      	push	{r3, lr}
	__asm volatile
 8002376:	f04f 0350 	mov.w	r3, #80	; 0x50
 800237a:	f383 8811 	msr	BASEPRI, r3
 800237e:	f3bf 8f6f 	isb	sy
 8002382:	f3bf 8f4f 	dsb	sy
	save and then restore the interrupt mask value as its value is already
	known. */
	portDISABLE_INTERRUPTS();
	{
		/* Increment the RTOS tick. */
		if( xTaskIncrementTick() != pdFALSE )
 8002386:	f000 fdb5 	bl	8002ef4 <xTaskIncrementTick>
 800238a:	b118      	cbz	r0, 8002394 <xPortSysTickHandler+0x20>
		{
			/* A context switch is required.  Context switching is performed in
			the PendSV interrupt.  Pend the PendSV interrupt. */
			portNVIC_INT_CTRL_REG = portNVIC_PENDSVSET_BIT;
 800238c:	f04f 5280 	mov.w	r2, #268435456	; 0x10000000
 8002390:	4b02      	ldr	r3, [pc, #8]	; (800239c <xPortSysTickHandler+0x28>)
 8002392:	601a      	str	r2, [r3, #0]
	__asm volatile
 8002394:	2300      	movs	r3, #0
 8002396:	f383 8811 	msr	BASEPRI, r3
 800239a:	bd08      	pop	{r3, pc}
 800239c:	e000ed04 	.word	0xe000ed04

080023a0 <vPortSetupTimerInterrupt>:
		ulStoppedTimerCompensation = portMISSED_COUNTS_FACTOR / ( configCPU_CLOCK_HZ / configSYSTICK_CLOCK_HZ );
	}
	#endif /* configUSE_TICKLESS_IDLE */

	/* Configure SysTick to interrupt at the requested rate. */
	portNVIC_SYSTICK_LOAD_REG = ( configSYSTICK_CLOCK_HZ / configTICK_RATE_HZ ) - 1UL;
 80023a0:	f44f 727a 	mov.w	r2, #1000	; 0x3e8
 80023a4:	4b05      	ldr	r3, [pc, #20]	; (80023bc <vPortSetupTimerInterrupt+0x1c>)
 80023a6:	681b      	ldr	r3, [r3, #0]
 80023a8:	fbb3 f3f2 	udiv	r3, r3, r2
 80023ac:	4a04      	ldr	r2, [pc, #16]	; (80023c0 <vPortSetupTimerInterrupt+0x20>)
 80023ae:	3b01      	subs	r3, #1
 80023b0:	6013      	str	r3, [r2, #0]
	portNVIC_SYSTICK_CTRL_REG = ( portNVIC_SYSTICK_CLK_BIT | portNVIC_SYSTICK_INT_BIT | portNVIC_SYSTICK_ENABLE_BIT );
 80023b2:	2207      	movs	r2, #7
 80023b4:	4b03      	ldr	r3, [pc, #12]	; (80023c4 <vPortSetupTimerInterrupt+0x24>)
 80023b6:	601a      	str	r2, [r3, #0]
 80023b8:	4770      	bx	lr
 80023ba:	bf00      	nop
 80023bc:	2000000c 	.word	0x2000000c
 80023c0:	e000e014 	.word	0xe000e014
 80023c4:	e000e010 	.word	0xe000e010

080023c8 <xPortStartScheduler>:
{
 80023c8:	b513      	push	{r0, r1, r4, lr}
		ulOriginalPriority = *pucFirstUserPriorityRegister;
 80023ca:	4b1f      	ldr	r3, [pc, #124]	; (8002448 <xPortStartScheduler+0x80>)
		while( ( ucMaxPriorityValue & portTOP_BIT_OF_BYTE ) == portTOP_BIT_OF_BYTE )
 80023cc:	2100      	movs	r1, #0
		ulOriginalPriority = *pucFirstUserPriorityRegister;
 80023ce:	781a      	ldrb	r2, [r3, #0]
 80023d0:	b2d2      	uxtb	r2, r2
 80023d2:	9201      	str	r2, [sp, #4]
		*pucFirstUserPriorityRegister = portMAX_8_BIT_VALUE;
 80023d4:	22ff      	movs	r2, #255	; 0xff
 80023d6:	701a      	strb	r2, [r3, #0]
		ucMaxPriorityValue = *pucFirstUserPriorityRegister;
 80023d8:	781b      	ldrb	r3, [r3, #0]
		ucMaxSysCallPriority = configMAX_SYSCALL_INTERRUPT_PRIORITY & ucMaxPriorityValue;
 80023da:	4a1c      	ldr	r2, [pc, #112]	; (800244c <xPortStartScheduler+0x84>)
		ucMaxPriorityValue = *pucFirstUserPriorityRegister;
 80023dc:	b2db      	uxtb	r3, r3
 80023de:	f88d 3003 	strb.w	r3, [sp, #3]
		ucMaxSysCallPriority = configMAX_SYSCALL_INTERRUPT_PRIORITY & ucMaxPriorityValue;
 80023e2:	f89d 3003 	ldrb.w	r3, [sp, #3]
 80023e6:	f003 0350 	and.w	r3, r3, #80	; 0x50
 80023ea:	7013      	strb	r3, [r2, #0]
		ulMaxPRIGROUPValue = portMAX_PRIGROUP_BITS;
 80023ec:	2207      	movs	r2, #7
 80023ee:	4b18      	ldr	r3, [pc, #96]	; (8002450 <xPortStartScheduler+0x88>)
 80023f0:	601a      	str	r2, [r3, #0]
		while( ( ucMaxPriorityValue & portTOP_BIT_OF_BYTE ) == portTOP_BIT_OF_BYTE )
 80023f2:	f89d 0003 	ldrb.w	r0, [sp, #3]
 80023f6:	1e54      	subs	r4, r2, #1
 80023f8:	0600      	lsls	r0, r0, #24
 80023fa:	d41c      	bmi.n	8002436 <xPortStartScheduler+0x6e>
 80023fc:	b101      	cbz	r1, 8002400 <xPortStartScheduler+0x38>
 80023fe:	601a      	str	r2, [r3, #0]
		ulMaxPRIGROUPValue <<= portPRIGROUP_SHIFT;
 8002400:	681a      	ldr	r2, [r3, #0]
 8002402:	0212      	lsls	r2, r2, #8
		ulMaxPRIGROUPValue &= portPRIORITY_GROUP_MASK;
 8002404:	f402 62e0 	and.w	r2, r2, #1792	; 0x700
 8002408:	601a      	str	r2, [r3, #0]
		*pucFirstUserPriorityRegister = ulOriginalPriority;
 800240a:	9b01      	ldr	r3, [sp, #4]
 800240c:	4a0e      	ldr	r2, [pc, #56]	; (8002448 <xPortStartScheduler+0x80>)
 800240e:	b2db      	uxtb	r3, r3
 8002410:	7013      	strb	r3, [r2, #0]
	portNVIC_SYSPRI2_REG |= portNVIC_PENDSV_PRI;
 8002412:	4b10      	ldr	r3, [pc, #64]	; (8002454 <xPortStartScheduler+0x8c>)
 8002414:	681a      	ldr	r2, [r3, #0]
 8002416:	f442 0270 	orr.w	r2, r2, #15728640	; 0xf00000
 800241a:	601a      	str	r2, [r3, #0]
	portNVIC_SYSPRI2_REG |= portNVIC_SYSTICK_PRI;
 800241c:	681a      	ldr	r2, [r3, #0]
 800241e:	f042 4270 	orr.w	r2, r2, #4026531840	; 0xf0000000
 8002422:	601a      	str	r2, [r3, #0]
	vPortSetupTimerInterrupt();
 8002424:	f7ff ffbc 	bl	80023a0 <vPortSetupTimerInterrupt>
	uxCriticalNesting = 0;
 8002428:	2200      	movs	r2, #0
 800242a:	4b0b      	ldr	r3, [pc, #44]	; (8002458 <xPortStartScheduler+0x90>)
 800242c:	601a      	str	r2, [r3, #0]
	prvPortStartFirstTask();
 800242e:	f7ff ff13 	bl	8002258 <prvPortStartFirstTask>
	prvTaskExitError();
 8002432:	f7ff fef9 	bl	8002228 <prvTaskExitError>
			ucMaxPriorityValue <<= ( uint8_t ) 0x01;
 8002436:	f89d 2003 	ldrb.w	r2, [sp, #3]
 800243a:	2101      	movs	r1, #1
 800243c:	0052      	lsls	r2, r2, #1
 800243e:	b2d2      	uxtb	r2, r2
 8002440:	f88d 2003 	strb.w	r2, [sp, #3]
 8002444:	4622      	mov	r2, r4
 8002446:	e7d4      	b.n	80023f2 <xPortStartScheduler+0x2a>
 8002448:	e000e400 	.word	0xe000e400
 800244c:	200001fc 	.word	0x200001fc
 8002450:	20000200 	.word	0x20000200
 8002454:	e000ed20 	.word	0xe000ed20
 8002458:	20000008 	.word	0x20000008

0800245c <vPortValidateInterruptPriority>:
	{
	uint32_t ulCurrentInterrupt;
	uint8_t ucCurrentPriority;

		/* Obtain the number of the currently executing interrupt. */
		__asm volatile( "mrs %0, ipsr" : "=r"( ulCurrentInterrupt ) );
 800245c:	f3ef 8305 	mrs	r3, IPSR

		/* Is the interrupt number a user defined interrupt? */
		if( ulCurrentInterrupt >= portFIRST_USER_INTERRUPT_NUMBER )
 8002460:	2b0f      	cmp	r3, #15
 8002462:	d90e      	bls.n	8002482 <vPortValidateInterruptPriority+0x26>
		{
			/* Look up the interrupt's priority. */
			ucCurrentPriority = pcInterruptPriorityRegisters[ ulCurrentInterrupt ];
 8002464:	4a10      	ldr	r2, [pc, #64]	; (80024a8 <vPortValidateInterruptPriority+0x4c>)
 8002466:	5c9b      	ldrb	r3, [r3, r2]
			interrupt entry is as fast and simple as possible.

			The following links provide detailed information:
			http://www.freertos.org/RTOS-Cortex-M3-M4.html
			http://www.freertos.org/FAQHelp.html */
			configASSERT( ucCurrentPriority >= ucMaxSysCallPriority );
 8002468:	4a10      	ldr	r2, [pc, #64]	; (80024ac <vPortValidateInterruptPriority+0x50>)
 800246a:	7812      	ldrb	r2, [r2, #0]
 800246c:	429a      	cmp	r2, r3
 800246e:	d908      	bls.n	8002482 <vPortValidateInterruptPriority+0x26>
	__asm volatile
 8002470:	f04f 0350 	mov.w	r3, #80	; 0x50
 8002474:	f383 8811 	msr	BASEPRI, r3
 8002478:	f3bf 8f6f 	isb	sy
 800247c:	f3bf 8f4f 	dsb	sy
 8002480:	e7fe      	b.n	8002480 <vPortValidateInterruptPriority+0x24>
		configuration then the correct setting can be achieved on all Cortex-M
		devices by calling NVIC_SetPriorityGrouping( 0 ); before starting the
		scheduler.  Note however that some vendor specific peripheral libraries
		assume a non-zero priority group setting, in which cases using a value
		of zero will result in unpredicable behaviour. */
		configASSERT( ( portAIRCR_REG & portPRIORITY_GROUP_MASK ) <= ulMaxPRIGROUPValue );
 8002482:	4b0b      	ldr	r3, [pc, #44]	; (80024b0 <vPortValidateInterruptPriority+0x54>)
 8002484:	4a0b      	ldr	r2, [pc, #44]	; (80024b4 <vPortValidateInterruptPriority+0x58>)
 8002486:	681b      	ldr	r3, [r3, #0]
 8002488:	6812      	ldr	r2, [r2, #0]
 800248a:	f403 63e0 	and.w	r3, r3, #1792	; 0x700
 800248e:	4293      	cmp	r3, r2
 8002490:	d908      	bls.n	80024a4 <vPortValidateInterruptPriority+0x48>
 8002492:	f04f 0350 	mov.w	r3, #80	; 0x50
 8002496:	f383 8811 	msr	BASEPRI, r3
 800249a:	f3bf 8f6f 	isb	sy
 800249e:	f3bf 8f4f 	dsb	sy
 80024a2:	e7fe      	b.n	80024a2 <vPortValidateInterruptPriority+0x46>
 80024a4:	4770      	bx	lr
 80024a6:	bf00      	nop
 80024a8:	e000e3f0 	.word	0xe000e3f0
 80024ac:	200001fc 	.word	0x200001fc
 80024b0:	e000ed0c 	.word	0xe000ed0c
 80024b4:	20000200 	.word	0x20000200

080024b8 <prvInsertBlockIntoFreeList>:
	xBlockAllocatedBit = ( ( size_t ) 1 ) << ( ( sizeof( size_t ) * heapBITS_PER_BYTE ) - 1 );
}
/*-----------------------------------------------------------*/

static void prvInsertBlockIntoFreeList( BlockLink_t *pxBlockToInsert )
{
 80024b8:	b510      	push	{r4, lr}
BlockLink_t *pxIterator;
uint8_t *puc;

	/* Iterate through the list until a block is found that has a higher address
	than the block being inserted. */
	for( pxIterator = &xStart; pxIterator->pxNextFreeBlock < pxBlockToInsert; pxIterator = pxIterator->pxNextFreeBlock )
 80024ba:	4b0f      	ldr	r3, [pc, #60]	; (80024f8 <prvInsertBlockIntoFreeList+0x40>)
 80024bc:	681a      	ldr	r2, [r3, #0]
 80024be:	4282      	cmp	r2, r0
 80024c0:	d318      	bcc.n	80024f4 <prvInsertBlockIntoFreeList+0x3c>
	}

	/* Do the block being inserted, and the block it is being inserted after
	make a contiguous block of memory? */
	puc = ( uint8_t * ) pxIterator;
	if( ( puc + pxIterator->xBlockSize ) == ( uint8_t * ) pxBlockToInsert )
 80024c2:	685c      	ldr	r4, [r3, #4]
 80024c4:	1919      	adds	r1, r3, r4
 80024c6:	4288      	cmp	r0, r1
	{
		pxIterator->xBlockSize += pxBlockToInsert->xBlockSize;
 80024c8:	bf01      	itttt	eq
 80024ca:	6841      	ldreq	r1, [r0, #4]
 80024cc:	4618      	moveq	r0, r3
 80024ce:	1909      	addeq	r1, r1, r4
 80024d0:	6059      	streq	r1, [r3, #4]
	}

	/* Do the block being inserted, and the block it is being inserted before
	make a contiguous block of memory? */
	puc = ( uint8_t * ) pxBlockToInsert;
	if( ( puc + pxBlockToInsert->xBlockSize ) == ( uint8_t * ) pxIterator->pxNextFreeBlock )
 80024d2:	6844      	ldr	r4, [r0, #4]
 80024d4:	1901      	adds	r1, r0, r4
 80024d6:	428a      	cmp	r2, r1
 80024d8:	d107      	bne.n	80024ea <prvInsertBlockIntoFreeList+0x32>
	{
		if( pxIterator->pxNextFreeBlock != pxEnd )
 80024da:	4908      	ldr	r1, [pc, #32]	; (80024fc <prvInsertBlockIntoFreeList+0x44>)
 80024dc:	6809      	ldr	r1, [r1, #0]
 80024de:	428a      	cmp	r2, r1
		{
			/* Form one big block from the two blocks. */
			pxBlockToInsert->xBlockSize += pxIterator->pxNextFreeBlock->xBlockSize;
 80024e0:	bf1f      	itttt	ne
 80024e2:	6851      	ldrne	r1, [r2, #4]
			pxBlockToInsert->pxNextFreeBlock = pxIterator->pxNextFreeBlock->pxNextFreeBlock;
 80024e4:	6812      	ldrne	r2, [r2, #0]
			pxBlockToInsert->xBlockSize += pxIterator->pxNextFreeBlock->xBlockSize;
 80024e6:	1909      	addne	r1, r1, r4
 80024e8:	6041      	strne	r1, [r0, #4]

	/* If the block being inserted plugged a gab, so was merged with the block
	before and the block after, then it's pxNextFreeBlock pointer will have
	already been set, and should not be set here as that would make it point
	to itself. */
	if( pxIterator != pxBlockToInsert )
 80024ea:	4298      	cmp	r0, r3
		pxBlockToInsert->pxNextFreeBlock = pxIterator->pxNextFreeBlock;
 80024ec:	6002      	str	r2, [r0, #0]
	{
		pxIterator->pxNextFreeBlock = pxBlockToInsert;
 80024ee:	bf18      	it	ne
 80024f0:	6018      	strne	r0, [r3, #0]
 80024f2:	bd10      	pop	{r4, pc}
 80024f4:	4613      	mov	r3, r2
 80024f6:	e7e1      	b.n	80024bc <prvInsertBlockIntoFreeList+0x4>
 80024f8:	20005034 	.word	0x20005034
 80024fc:	20000204 	.word	0x20000204

08002500 <pvPortMalloc>:
{
 8002500:	e92d 41f0 	stmdb	sp!, {r4, r5, r6, r7, r8, lr}
 8002504:	4604      	mov	r4, r0
	vTaskSuspendAll();
 8002506:	f000 fced 	bl	8002ee4 <vTaskSuspendAll>
		if( pxEnd == NULL )
 800250a:	493d      	ldr	r1, [pc, #244]	; (8002600 <pvPortMalloc+0x100>)
 800250c:	4d3d      	ldr	r5, [pc, #244]	; (8002604 <pvPortMalloc+0x104>)
 800250e:	680b      	ldr	r3, [r1, #0]
 8002510:	b9fb      	cbnz	r3, 8002552 <pvPortMalloc+0x52>
	uxAddress = ( size_t ) ucHeap;
 8002512:	4a3d      	ldr	r2, [pc, #244]	; (8002608 <pvPortMalloc+0x108>)
	xStart.xBlockSize = ( size_t ) 0;
 8002514:	2000      	movs	r0, #0
	if( ( uxAddress & portBYTE_ALIGNMENT_MASK ) != 0 )
 8002516:	0756      	lsls	r6, r2, #29
size_t xTotalHeapSize = configTOTAL_HEAP_SIZE;
 8002518:	bf0f      	iteee	eq
 800251a:	f644 6320 	movweq	r3, #20000	; 0x4e20
		uxAddress += ( portBYTE_ALIGNMENT - 1 );
 800251e:	3207      	addne	r2, #7
		xTotalHeapSize -= uxAddress - ( size_t ) ucHeap;
 8002520:	4b3a      	ldrne	r3, [pc, #232]	; (800260c <pvPortMalloc+0x10c>)
		uxAddress &= ~( ( size_t ) portBYTE_ALIGNMENT_MASK );
 8002522:	f022 0207 	bicne.w	r2, r2, #7
		xTotalHeapSize -= uxAddress - ( size_t ) ucHeap;
 8002526:	bf18      	it	ne
 8002528:	1a9b      	subne	r3, r3, r2
	uxAddress = ( ( size_t ) pucAlignedHeap ) + xTotalHeapSize;
 800252a:	4413      	add	r3, r2
	xStart.pxNextFreeBlock = ( void * ) pucAlignedHeap;
 800252c:	4e38      	ldr	r6, [pc, #224]	; (8002610 <pvPortMalloc+0x110>)
	uxAddress -= xHeapStructSize;
 800252e:	3b08      	subs	r3, #8
	uxAddress &= ~( ( size_t ) portBYTE_ALIGNMENT_MASK );
 8002530:	f023 0307 	bic.w	r3, r3, #7
	xStart.xBlockSize = ( size_t ) 0;
 8002534:	6070      	str	r0, [r6, #4]
	xStart.pxNextFreeBlock = ( void * ) pucAlignedHeap;
 8002536:	6032      	str	r2, [r6, #0]
	pxEnd->xBlockSize = 0;
 8002538:	6058      	str	r0, [r3, #4]
	pxEnd->pxNextFreeBlock = NULL;
 800253a:	6018      	str	r0, [r3, #0]
	pxEnd = ( void * ) uxAddress;
 800253c:	600b      	str	r3, [r1, #0]
	pxFirstFreeBlock->xBlockSize = uxAddress - ( size_t ) pxFirstFreeBlock;
 800253e:	1a98      	subs	r0, r3, r2
	pxFirstFreeBlock->pxNextFreeBlock = pxEnd;
 8002540:	6013      	str	r3, [r2, #0]
	xMinimumEverFreeBytesRemaining = pxFirstFreeBlock->xBlockSize;
 8002542:	4b34      	ldr	r3, [pc, #208]	; (8002614 <pvPortMalloc+0x114>)
	pxFirstFreeBlock->xBlockSize = uxAddress - ( size_t ) pxFirstFreeBlock;
 8002544:	6050      	str	r0, [r2, #4]
	xMinimumEverFreeBytesRemaining = pxFirstFreeBlock->xBlockSize;
 8002546:	6018      	str	r0, [r3, #0]
	xFreeBytesRemaining = pxFirstFreeBlock->xBlockSize;
 8002548:	4b33      	ldr	r3, [pc, #204]	; (8002618 <pvPortMalloc+0x118>)
 800254a:	6018      	str	r0, [r3, #0]
	xBlockAllocatedBit = ( ( size_t ) 1 ) << ( ( sizeof( size_t ) * heapBITS_PER_BYTE ) - 1 );
 800254c:	f04f 4300 	mov.w	r3, #2147483648	; 0x80000000
 8002550:	602b      	str	r3, [r5, #0]
		if( ( xWantedSize & xBlockAllocatedBit ) == 0 )
 8002552:	682f      	ldr	r7, [r5, #0]
 8002554:	4227      	tst	r7, r4
 8002556:	d116      	bne.n	8002586 <pvPortMalloc+0x86>
			if( xWantedSize > 0 )
 8002558:	2c00      	cmp	r4, #0
 800255a:	d040      	beq.n	80025de <pvPortMalloc+0xde>
				xWantedSize += xHeapStructSize;
 800255c:	f104 0308 	add.w	r3, r4, #8
				if( ( xWantedSize & portBYTE_ALIGNMENT_MASK ) != 0x00 )
 8002560:	0758      	lsls	r0, r3, #29
					xWantedSize += ( portBYTE_ALIGNMENT - ( xWantedSize & portBYTE_ALIGNMENT_MASK ) );
 8002562:	bf1c      	itt	ne
 8002564:	f023 0307 	bicne.w	r3, r3, #7
 8002568:	3308      	addne	r3, #8
			if( ( xWantedSize > 0 ) && ( xWantedSize <= xFreeBytesRemaining ) )
 800256a:	b163      	cbz	r3, 8002586 <pvPortMalloc+0x86>
 800256c:	4a2a      	ldr	r2, [pc, #168]	; (8002618 <pvPortMalloc+0x118>)
 800256e:	6816      	ldr	r6, [r2, #0]
 8002570:	4690      	mov	r8, r2
 8002572:	42b3      	cmp	r3, r6
 8002574:	d807      	bhi.n	8002586 <pvPortMalloc+0x86>
				pxBlock = xStart.pxNextFreeBlock;
 8002576:	4a26      	ldr	r2, [pc, #152]	; (8002610 <pvPortMalloc+0x110>)
 8002578:	6815      	ldr	r5, [r2, #0]
				while( ( pxBlock->xBlockSize < xWantedSize ) && ( pxBlock->pxNextFreeBlock != NULL ) )
 800257a:	6868      	ldr	r0, [r5, #4]
 800257c:	4283      	cmp	r3, r0
 800257e:	d804      	bhi.n	800258a <pvPortMalloc+0x8a>
				if( pxBlock != pxEnd )
 8002580:	6809      	ldr	r1, [r1, #0]
 8002582:	428d      	cmp	r5, r1
 8002584:	d107      	bne.n	8002596 <pvPortMalloc+0x96>
void *pvReturn = NULL;
 8002586:	2400      	movs	r4, #0
 8002588:	e029      	b.n	80025de <pvPortMalloc+0xde>
				while( ( pxBlock->xBlockSize < xWantedSize ) && ( pxBlock->pxNextFreeBlock != NULL ) )
 800258a:	682c      	ldr	r4, [r5, #0]
 800258c:	2c00      	cmp	r4, #0
 800258e:	d0f7      	beq.n	8002580 <pvPortMalloc+0x80>
 8002590:	462a      	mov	r2, r5
 8002592:	4625      	mov	r5, r4
 8002594:	e7f1      	b.n	800257a <pvPortMalloc+0x7a>
					pxPreviousBlock->pxNextFreeBlock = pxBlock->pxNextFreeBlock;
 8002596:	6829      	ldr	r1, [r5, #0]
					pvReturn = ( void * ) ( ( ( uint8_t * ) pxPreviousBlock->pxNextFreeBlock ) + xHeapStructSize );
 8002598:	6814      	ldr	r4, [r2, #0]
					pxPreviousBlock->pxNextFreeBlock = pxBlock->pxNextFreeBlock;
 800259a:	6011      	str	r1, [r2, #0]
					if( ( pxBlock->xBlockSize - xWantedSize ) > heapMINIMUM_BLOCK_SIZE )
 800259c:	1ac2      	subs	r2, r0, r3
 800259e:	2a10      	cmp	r2, #16
 80025a0:	d90f      	bls.n	80025c2 <pvPortMalloc+0xc2>
						pxNewBlockLink = ( void * ) ( ( ( uint8_t * ) pxBlock ) + xWantedSize );
 80025a2:	18e8      	adds	r0, r5, r3
						configASSERT( ( ( ( size_t ) pxNewBlockLink ) & portBYTE_ALIGNMENT_MASK ) == 0 );
 80025a4:	0741      	lsls	r1, r0, #29
 80025a6:	d008      	beq.n	80025ba <pvPortMalloc+0xba>
 80025a8:	f04f 0350 	mov.w	r3, #80	; 0x50
 80025ac:	f383 8811 	msr	BASEPRI, r3
 80025b0:	f3bf 8f6f 	isb	sy
 80025b4:	f3bf 8f4f 	dsb	sy
 80025b8:	e7fe      	b.n	80025b8 <pvPortMalloc+0xb8>
						pxNewBlockLink->xBlockSize = pxBlock->xBlockSize - xWantedSize;
 80025ba:	6042      	str	r2, [r0, #4]
						pxBlock->xBlockSize = xWantedSize;
 80025bc:	606b      	str	r3, [r5, #4]
						prvInsertBlockIntoFreeList( pxNewBlockLink );
 80025be:	f7ff ff7b 	bl	80024b8 <prvInsertBlockIntoFreeList>
					xFreeBytesRemaining -= pxBlock->xBlockSize;
 80025c2:	686b      	ldr	r3, [r5, #4]
					if( xFreeBytesRemaining < xMinimumEverFreeBytesRemaining )
 80025c4:	4913      	ldr	r1, [pc, #76]	; (8002614 <pvPortMalloc+0x114>)
					xFreeBytesRemaining -= pxBlock->xBlockSize;
 80025c6:	1af6      	subs	r6, r6, r3
					pxBlock->xBlockSize |= xBlockAllocatedBit;
 80025c8:	431f      	orrs	r7, r3
					pxBlock->pxNextFreeBlock = NULL;
 80025ca:	2300      	movs	r3, #0
					if( xFreeBytesRemaining < xMinimumEverFreeBytesRemaining )
 80025cc:	6808      	ldr	r0, [r1, #0]
					xFreeBytesRemaining -= pxBlock->xBlockSize;
 80025ce:	f8c8 6000 	str.w	r6, [r8]
					if( xFreeBytesRemaining < xMinimumEverFreeBytesRemaining )
 80025d2:	4286      	cmp	r6, r0
						xMinimumEverFreeBytesRemaining = xFreeBytesRemaining;
 80025d4:	bf38      	it	cc
 80025d6:	600e      	strcc	r6, [r1, #0]
					pvReturn = ( void * ) ( ( ( uint8_t * ) pxPreviousBlock->pxNextFreeBlock ) + xHeapStructSize );
 80025d8:	3408      	adds	r4, #8
					pxBlock->xBlockSize |= xBlockAllocatedBit;
 80025da:	606f      	str	r7, [r5, #4]
					pxBlock->pxNextFreeBlock = NULL;
 80025dc:	602b      	str	r3, [r5, #0]
	( void ) xTaskResumeAll();
 80025de:	f000 fd1b 	bl	8003018 <xTaskResumeAll>
	configASSERT( ( ( ( size_t ) pvReturn ) & ( size_t ) portBYTE_ALIGNMENT_MASK ) == 0 );
 80025e2:	0763      	lsls	r3, r4, #29
 80025e4:	d008      	beq.n	80025f8 <pvPortMalloc+0xf8>
 80025e6:	f04f 0350 	mov.w	r3, #80	; 0x50
 80025ea:	f383 8811 	msr	BASEPRI, r3
 80025ee:	f3bf 8f6f 	isb	sy
 80025f2:	f3bf 8f4f 	dsb	sy
 80025f6:	e7fe      	b.n	80025f6 <pvPortMalloc+0xf6>
}
 80025f8:	4620      	mov	r0, r4
 80025fa:	e8bd 81f0 	ldmia.w	sp!, {r4, r5, r6, r7, r8, pc}
 80025fe:	bf00      	nop
 8002600:	20000204 	.word	0x20000204
 8002604:	20005028 	.word	0x20005028
 8002608:	20000208 	.word	0x20000208
 800260c:	20005028 	.word	0x20005028
 8002610:	20005034 	.word	0x20005034
 8002614:	20005030 	.word	0x20005030
 8002618:	2000502c 	.word	0x2000502c

0800261c <vPortFree>:
{
 800261c:	b510      	push	{r4, lr}
	if( pv != NULL )
 800261e:	4604      	mov	r4, r0
 8002620:	b370      	cbz	r0, 8002680 <vPortFree+0x64>
		configASSERT( ( pxLink->xBlockSize & xBlockAllocatedBit ) != 0 );
 8002622:	4a18      	ldr	r2, [pc, #96]	; (8002684 <vPortFree+0x68>)
 8002624:	f850 3c04 	ldr.w	r3, [r0, #-4]
 8002628:	6812      	ldr	r2, [r2, #0]
 800262a:	4213      	tst	r3, r2
 800262c:	d108      	bne.n	8002640 <vPortFree+0x24>
 800262e:	f04f 0350 	mov.w	r3, #80	; 0x50
 8002632:	f383 8811 	msr	BASEPRI, r3
 8002636:	f3bf 8f6f 	isb	sy
 800263a:	f3bf 8f4f 	dsb	sy
 800263e:	e7fe      	b.n	800263e <vPortFree+0x22>
		configASSERT( pxLink->pxNextFreeBlock == NULL );
 8002640:	f850 1c08 	ldr.w	r1, [r0, #-8]
 8002644:	b141      	cbz	r1, 8002658 <vPortFree+0x3c>
 8002646:	f04f 0350 	mov.w	r3, #80	; 0x50
 800264a:	f383 8811 	msr	BASEPRI, r3
 800264e:	f3bf 8f6f 	isb	sy
 8002652:	f3bf 8f4f 	dsb	sy
 8002656:	e7fe      	b.n	8002656 <vPortFree+0x3a>
				pxLink->xBlockSize &= ~xBlockAllocatedBit;
 8002658:	ea23 0302 	bic.w	r3, r3, r2
 800265c:	f840 3c04 	str.w	r3, [r0, #-4]
				vTaskSuspendAll();
 8002660:	f000 fc40 	bl	8002ee4 <vTaskSuspendAll>
					xFreeBytesRemaining += pxLink->xBlockSize;
 8002664:	4a08      	ldr	r2, [pc, #32]	; (8002688 <vPortFree+0x6c>)
 8002666:	f854 3c04 	ldr.w	r3, [r4, #-4]
 800266a:	6811      	ldr	r1, [r2, #0]
					prvInsertBlockIntoFreeList( ( ( BlockLink_t * ) pxLink ) );
 800266c:	f1a4 0008 	sub.w	r0, r4, #8
					xFreeBytesRemaining += pxLink->xBlockSize;
 8002670:	440b      	add	r3, r1
 8002672:	6013      	str	r3, [r2, #0]
					prvInsertBlockIntoFreeList( ( ( BlockLink_t * ) pxLink ) );
 8002674:	f7ff ff20 	bl	80024b8 <prvInsertBlockIntoFreeList>
}
 8002678:	e8bd 4010 	ldmia.w	sp!, {r4, lr}
				( void ) xTaskResumeAll();
 800267c:	f000 bccc 	b.w	8003018 <xTaskResumeAll>
 8002680:	bd10      	pop	{r4, pc}
 8002682:	bf00      	nop
 8002684:	20005028 	.word	0x20005028
 8002688:	2000502c 	.word	0x2000502c

0800268c <prvCopyDataToQueue>:

#endif /* configUSE_TRACE_FACILITY */
/*-----------------------------------------------------------*/

static BaseType_t prvCopyDataToQueue( Queue_t * const pxQueue, const void *pvItemToQueue, const BaseType_t xPosition )
{
 800268c:	b570      	push	{r4, r5, r6, lr}
 800268e:	4615      	mov	r5, r2

	/* This function is called from a critical section. */

	uxMessagesWaiting = pxQueue->uxMessagesWaiting;

	if( pxQueue->uxItemSize == ( UBaseType_t ) 0 )
 8002690:	6c02      	ldr	r2, [r0, #64]	; 0x40
{
 8002692:	4604      	mov	r4, r0
	uxMessagesWaiting = pxQueue->uxMessagesWaiting;
 8002694:	6b86      	ldr	r6, [r0, #56]	; 0x38
	if( pxQueue->uxItemSize == ( UBaseType_t ) 0 )
 8002696:	b942      	cbnz	r2, 80026aa <prvCopyDataToQueue+0x1e>
	{
		#if ( configUSE_MUTEXES == 1 )
		{
			if( pxQueue->uxQueueType == queueQUEUE_IS_MUTEX )
 8002698:	6805      	ldr	r5, [r0, #0]
 800269a:	b99d      	cbnz	r5, 80026c4 <prvCopyDataToQueue+0x38>
			{
				/* The mutex is no longer being held. */
				xReturn = xTaskPriorityDisinherit( ( void * ) pxQueue->pxMutexHolder );
 800269c:	6840      	ldr	r0, [r0, #4]
 800269e:	f000 fecf 	bl	8003440 <xTaskPriorityDisinherit>
				pxQueue->pxMutexHolder = NULL;
 80026a2:	6065      	str	r5, [r4, #4]
		{
			mtCOVERAGE_TEST_MARKER();
		}
	}

	pxQueue->uxMessagesWaiting = uxMessagesWaiting + 1;
 80026a4:	3601      	adds	r6, #1
 80026a6:	63a6      	str	r6, [r4, #56]	; 0x38

	return xReturn;
}
 80026a8:	bd70      	pop	{r4, r5, r6, pc}
	else if( xPosition == queueSEND_TO_BACK )
 80026aa:	b96d      	cbnz	r5, 80026c8 <prvCopyDataToQueue+0x3c>
		( void ) memcpy( ( void * ) pxQueue->pcWriteTo, pvItemToQueue, ( size_t ) pxQueue->uxItemSize ); /*lint !e961 !e418 MISRA exception as the casts are only redundant for some ports, plus previous logic ensures a null pointer can only be passed to memcpy() if the copy size is 0. */
 80026ac:	6880      	ldr	r0, [r0, #8]
 80026ae:	f001 fe53 	bl	8004358 <memcpy>
		pxQueue->pcWriteTo += pxQueue->uxItemSize;
 80026b2:	68a3      	ldr	r3, [r4, #8]
 80026b4:	6c22      	ldr	r2, [r4, #64]	; 0x40
 80026b6:	4413      	add	r3, r2
		if( pxQueue->pcWriteTo >= pxQueue->pcTail ) /*lint !e946 MISRA exception justified as comparison of pointers is the cleanest solution. */
 80026b8:	6862      	ldr	r2, [r4, #4]
		pxQueue->pcWriteTo += pxQueue->uxItemSize;
 80026ba:	60a3      	str	r3, [r4, #8]
		if( pxQueue->pcWriteTo >= pxQueue->pcTail ) /*lint !e946 MISRA exception justified as comparison of pointers is the cleanest solution. */
 80026bc:	4293      	cmp	r3, r2
 80026be:	d301      	bcc.n	80026c4 <prvCopyDataToQueue+0x38>
			pxQueue->pcWriteTo = pxQueue->pcHead;
 80026c0:	6823      	ldr	r3, [r4, #0]
 80026c2:	60a3      	str	r3, [r4, #8]
BaseType_t xReturn = pdFALSE;
 80026c4:	2000      	movs	r0, #0
 80026c6:	e7ed      	b.n	80026a4 <prvCopyDataToQueue+0x18>
		( void ) memcpy( ( void * ) pxQueue->u.pcReadFrom, pvItemToQueue, ( size_t ) pxQueue->uxItemSize ); /*lint !e961 MISRA exception as the casts are only redundant for some ports. */
 80026c8:	68c0      	ldr	r0, [r0, #12]
 80026ca:	f001 fe45 	bl	8004358 <memcpy>
		pxQueue->u.pcReadFrom -= pxQueue->uxItemSize;
 80026ce:	6c23      	ldr	r3, [r4, #64]	; 0x40
 80026d0:	68e2      	ldr	r2, [r4, #12]
 80026d2:	425b      	negs	r3, r3
		if( pxQueue->u.pcReadFrom < pxQueue->pcHead ) /*lint !e946 MISRA exception justified as comparison of pointers is the cleanest solution. */
 80026d4:	6821      	ldr	r1, [r4, #0]
		pxQueue->u.pcReadFrom -= pxQueue->uxItemSize;
 80026d6:	441a      	add	r2, r3
		if( pxQueue->u.pcReadFrom < pxQueue->pcHead ) /*lint !e946 MISRA exception justified as comparison of pointers is the cleanest solution. */
 80026d8:	428a      	cmp	r2, r1
		pxQueue->u.pcReadFrom -= pxQueue->uxItemSize;
 80026da:	60e2      	str	r2, [r4, #12]
			pxQueue->u.pcReadFrom = ( pxQueue->pcTail - pxQueue->uxItemSize );
 80026dc:	bf3e      	ittt	cc
 80026de:	6862      	ldrcc	r2, [r4, #4]
 80026e0:	189b      	addcc	r3, r3, r2
 80026e2:	60e3      	strcc	r3, [r4, #12]
		if( xPosition == queueOVERWRITE )
 80026e4:	2d02      	cmp	r5, #2
 80026e6:	d1ed      	bne.n	80026c4 <prvCopyDataToQueue+0x38>
			if( uxMessagesWaiting > ( UBaseType_t ) 0 )
 80026e8:	b10e      	cbz	r6, 80026ee <prvCopyDataToQueue+0x62>
				--uxMessagesWaiting;
 80026ea:	3e01      	subs	r6, #1
 80026ec:	e7ea      	b.n	80026c4 <prvCopyDataToQueue+0x38>
BaseType_t xReturn = pdFALSE;
 80026ee:	4630      	mov	r0, r6
 80026f0:	e7d8      	b.n	80026a4 <prvCopyDataToQueue+0x18>

080026f2 <prvCopyDataFromQueue>:
/*-----------------------------------------------------------*/

static void prvCopyDataFromQueue( Queue_t * const pxQueue, void * const pvBuffer )
{
 80026f2:	4603      	mov	r3, r0
	if( pxQueue->uxItemSize != ( UBaseType_t ) 0 )
 80026f4:	6c1a      	ldr	r2, [r3, #64]	; 0x40
{
 80026f6:	b410      	push	{r4}
 80026f8:	4608      	mov	r0, r1
	if( pxQueue->uxItemSize != ( UBaseType_t ) 0 )
 80026fa:	b162      	cbz	r2, 8002716 <prvCopyDataFromQueue+0x24>
	{
		pxQueue->u.pcReadFrom += pxQueue->uxItemSize;
 80026fc:	68d9      	ldr	r1, [r3, #12]
		if( pxQueue->u.pcReadFrom >= pxQueue->pcTail ) /*lint !e946 MISRA exception justified as use of the relational operator is the cleanest solutions. */
 80026fe:	685c      	ldr	r4, [r3, #4]
		pxQueue->u.pcReadFrom += pxQueue->uxItemSize;
 8002700:	4411      	add	r1, r2
		if( pxQueue->u.pcReadFrom >= pxQueue->pcTail ) /*lint !e946 MISRA exception justified as use of the relational operator is the cleanest solutions. */
 8002702:	42a1      	cmp	r1, r4
		pxQueue->u.pcReadFrom += pxQueue->uxItemSize;
 8002704:	60d9      	str	r1, [r3, #12]
		{
			pxQueue->u.pcReadFrom = pxQueue->pcHead;
 8002706:	bf28      	it	cs
 8002708:	6819      	ldrcs	r1, [r3, #0]
		{
			mtCOVERAGE_TEST_MARKER();
		}
		( void ) memcpy( ( void * ) pvBuffer, ( void * ) pxQueue->u.pcReadFrom, ( size_t ) pxQueue->uxItemSize ); /*lint !e961 !e418 MISRA exception as the casts are only redundant for some ports.  Also previous logic ensures a null pointer can only be passed to memcpy() when the count is 0. */
	}
}
 800270a:	bc10      	pop	{r4}
			pxQueue->u.pcReadFrom = pxQueue->pcHead;
 800270c:	bf28      	it	cs
 800270e:	60d9      	strcs	r1, [r3, #12]
		( void ) memcpy( ( void * ) pvBuffer, ( void * ) pxQueue->u.pcReadFrom, ( size_t ) pxQueue->uxItemSize ); /*lint !e961 !e418 MISRA exception as the casts are only redundant for some ports.  Also previous logic ensures a null pointer can only be passed to memcpy() when the count is 0. */
 8002710:	68d9      	ldr	r1, [r3, #12]
 8002712:	f001 be21 	b.w	8004358 <memcpy>
}
 8002716:	bc10      	pop	{r4}
 8002718:	4770      	bx	lr

0800271a <prvUnlockQueue>:
/*-----------------------------------------------------------*/

static void prvUnlockQueue( Queue_t * const pxQueue )
{
 800271a:	b570      	push	{r4, r5, r6, lr}
 800271c:	4604      	mov	r4, r0

	/* The lock counts contains the number of extra data items placed or
	removed from the queue while the queue was locked.  When a queue is
	locked items can be added or removed, but the event lists cannot be
	updated. */
	taskENTER_CRITICAL();
 800271e:	f7ff fdd1 	bl	80022c4 <vPortEnterCritical>
	{
		int8_t cTxLock = pxQueue->cTxLock;
 8002722:	f894 5045 	ldrb.w	r5, [r4, #69]	; 0x45
			{
				/* Tasks that are removed from the event list will get added to
				the pending ready list as the scheduler is still suspended. */
				if( listLIST_IS_EMPTY( &( pxQueue->xTasksWaitingToReceive ) ) == pdFALSE )
				{
					if( xTaskRemoveFromEventList( &( pxQueue->xTasksWaitingToReceive ) ) != pdFALSE )
 8002726:	f104 0624 	add.w	r6, r4, #36	; 0x24
		int8_t cTxLock = pxQueue->cTxLock;
 800272a:	b26d      	sxtb	r5, r5
		while( cTxLock > queueLOCKED_UNMODIFIED )
 800272c:	2d00      	cmp	r5, #0
 800272e:	dc14      	bgt.n	800275a <prvUnlockQueue+0x40>
			#endif /* configUSE_QUEUE_SETS */

			--cTxLock;
		}

		pxQueue->cTxLock = queueUNLOCKED;
 8002730:	23ff      	movs	r3, #255	; 0xff
 8002732:	f884 3045 	strb.w	r3, [r4, #69]	; 0x45
	}
	taskEXIT_CRITICAL();
 8002736:	f7ff fde7 	bl	8002308 <vPortExitCritical>

	/* Do the same for the Rx lock. */
	taskENTER_CRITICAL();
 800273a:	f7ff fdc3 	bl	80022c4 <vPortEnterCritical>
	{
		int8_t cRxLock = pxQueue->cRxLock;
 800273e:	f894 5044 	ldrb.w	r5, [r4, #68]	; 0x44

		while( cRxLock > queueLOCKED_UNMODIFIED )
		{
			if( listLIST_IS_EMPTY( &( pxQueue->xTasksWaitingToSend ) ) == pdFALSE )
			{
				if( xTaskRemoveFromEventList( &( pxQueue->xTasksWaitingToSend ) ) != pdFALSE )
 8002742:	f104 0610 	add.w	r6, r4, #16
		int8_t cRxLock = pxQueue->cRxLock;
 8002746:	b26d      	sxtb	r5, r5
		while( cRxLock > queueLOCKED_UNMODIFIED )
 8002748:	2d00      	cmp	r5, #0
 800274a:	dc12      	bgt.n	8002772 <prvUnlockQueue+0x58>
			{
				break;
			}
		}

		pxQueue->cRxLock = queueUNLOCKED;
 800274c:	23ff      	movs	r3, #255	; 0xff
 800274e:	f884 3044 	strb.w	r3, [r4, #68]	; 0x44
	}
	taskEXIT_CRITICAL();
}
 8002752:	e8bd 4070 	ldmia.w	sp!, {r4, r5, r6, lr}
	taskEXIT_CRITICAL();
 8002756:	f7ff bdd7 	b.w	8002308 <vPortExitCritical>
				if( listLIST_IS_EMPTY( &( pxQueue->xTasksWaitingToReceive ) ) == pdFALSE )
 800275a:	6a63      	ldr	r3, [r4, #36]	; 0x24
 800275c:	2b00      	cmp	r3, #0
 800275e:	d0e7      	beq.n	8002730 <prvUnlockQueue+0x16>
					if( xTaskRemoveFromEventList( &( pxQueue->xTasksWaitingToReceive ) ) != pdFALSE )
 8002760:	4630      	mov	r0, r6
 8002762:	f000 fd83 	bl	800326c <xTaskRemoveFromEventList>
 8002766:	b108      	cbz	r0, 800276c <prvUnlockQueue+0x52>
						vTaskMissedYield();
 8002768:	f000 fe0c 	bl	8003384 <vTaskMissedYield>
 800276c:	3d01      	subs	r5, #1
 800276e:	b26d      	sxtb	r5, r5
 8002770:	e7dc      	b.n	800272c <prvUnlockQueue+0x12>
			if( listLIST_IS_EMPTY( &( pxQueue->xTasksWaitingToSend ) ) == pdFALSE )
 8002772:	6923      	ldr	r3, [r4, #16]
 8002774:	2b00      	cmp	r3, #0
 8002776:	d0e9      	beq.n	800274c <prvUnlockQueue+0x32>
				if( xTaskRemoveFromEventList( &( pxQueue->xTasksWaitingToSend ) ) != pdFALSE )
 8002778:	4630      	mov	r0, r6
 800277a:	f000 fd77 	bl	800326c <xTaskRemoveFromEventList>
 800277e:	b108      	cbz	r0, 8002784 <prvUnlockQueue+0x6a>
					vTaskMissedYield();
 8002780:	f000 fe00 	bl	8003384 <vTaskMissedYield>
 8002784:	3d01      	subs	r5, #1
 8002786:	b26d      	sxtb	r5, r5
 8002788:	e7de      	b.n	8002748 <prvUnlockQueue+0x2e>
	...

0800278c <xQueueGenericReset>:
{
 800278c:	b538      	push	{r3, r4, r5, lr}
 800278e:	460d      	mov	r5, r1
	configASSERT( pxQueue );
 8002790:	4604      	mov	r4, r0
 8002792:	b940      	cbnz	r0, 80027a6 <xQueueGenericReset+0x1a>
 8002794:	f04f 0350 	mov.w	r3, #80	; 0x50
 8002798:	f383 8811 	msr	BASEPRI, r3
 800279c:	f3bf 8f6f 	isb	sy
 80027a0:	f3bf 8f4f 	dsb	sy
 80027a4:	e7fe      	b.n	80027a4 <xQueueGenericReset+0x18>
	taskENTER_CRITICAL();
 80027a6:	f7ff fd8d 	bl	80022c4 <vPortEnterCritical>
		pxQueue->pcTail = pxQueue->pcHead + ( pxQueue->uxLength * pxQueue->uxItemSize );
 80027aa:	6c20      	ldr	r0, [r4, #64]	; 0x40
 80027ac:	6be3      	ldr	r3, [r4, #60]	; 0x3c
 80027ae:	6822      	ldr	r2, [r4, #0]
 80027b0:	4343      	muls	r3, r0
 80027b2:	18d1      	adds	r1, r2, r3
		pxQueue->u.pcReadFrom = pxQueue->pcHead + ( ( pxQueue->uxLength - ( UBaseType_t ) 1U ) * pxQueue->uxItemSize );
 80027b4:	1a1b      	subs	r3, r3, r0
 80027b6:	4413      	add	r3, r2
		pxQueue->pcTail = pxQueue->pcHead + ( pxQueue->uxLength * pxQueue->uxItemSize );
 80027b8:	6061      	str	r1, [r4, #4]
		pxQueue->u.pcReadFrom = pxQueue->pcHead + ( ( pxQueue->uxLength - ( UBaseType_t ) 1U ) * pxQueue->uxItemSize );
 80027ba:	60e3      	str	r3, [r4, #12]
		pxQueue->uxMessagesWaiting = ( UBaseType_t ) 0U;
 80027bc:	2100      	movs	r1, #0
		pxQueue->cRxLock = queueUNLOCKED;
 80027be:	23ff      	movs	r3, #255	; 0xff
		pxQueue->uxMessagesWaiting = ( UBaseType_t ) 0U;
 80027c0:	63a1      	str	r1, [r4, #56]	; 0x38
		pxQueue->pcWriteTo = pxQueue->pcHead;
 80027c2:	60a2      	str	r2, [r4, #8]
		pxQueue->cRxLock = queueUNLOCKED;
 80027c4:	f884 3044 	strb.w	r3, [r4, #68]	; 0x44
		pxQueue->cTxLock = queueUNLOCKED;
 80027c8:	f884 3045 	strb.w	r3, [r4, #69]	; 0x45
		if( xNewQueue == pdFALSE )
 80027cc:	b995      	cbnz	r5, 80027f4 <xQueueGenericReset+0x68>
			if( listLIST_IS_EMPTY( &( pxQueue->xTasksWaitingToSend ) ) == pdFALSE )
 80027ce:	6923      	ldr	r3, [r4, #16]
 80027d0:	b163      	cbz	r3, 80027ec <xQueueGenericReset+0x60>
				if( xTaskRemoveFromEventList( &( pxQueue->xTasksWaitingToSend ) ) != pdFALSE )
 80027d2:	f104 0010 	add.w	r0, r4, #16
 80027d6:	f000 fd49 	bl	800326c <xTaskRemoveFromEventList>
 80027da:	b138      	cbz	r0, 80027ec <xQueueGenericReset+0x60>
					queueYIELD_IF_USING_PREEMPTION();
 80027dc:	f04f 5280 	mov.w	r2, #268435456	; 0x10000000
 80027e0:	4b09      	ldr	r3, [pc, #36]	; (8002808 <xQueueGenericReset+0x7c>)
 80027e2:	601a      	str	r2, [r3, #0]
 80027e4:	f3bf 8f4f 	dsb	sy
 80027e8:	f3bf 8f6f 	isb	sy
	taskEXIT_CRITICAL();
 80027ec:	f7ff fd8c 	bl	8002308 <vPortExitCritical>
}
 80027f0:	2001      	movs	r0, #1
 80027f2:	bd38      	pop	{r3, r4, r5, pc}
			vListInitialise( &( pxQueue->xTasksWaitingToSend ) );
 80027f4:	f104 0010 	add.w	r0, r4, #16
 80027f8:	f7ff fcd5 	bl	80021a6 <vListInitialise>
			vListInitialise( &( pxQueue->xTasksWaitingToReceive ) );
 80027fc:	f104 0024 	add.w	r0, r4, #36	; 0x24
 8002800:	f7ff fcd1 	bl	80021a6 <vListInitialise>
 8002804:	e7f2      	b.n	80027ec <xQueueGenericReset+0x60>
 8002806:	bf00      	nop
 8002808:	e000ed04 	.word	0xe000ed04

0800280c <xQueueGenericCreate>:
	{
 800280c:	b570      	push	{r4, r5, r6, lr}
 800280e:	460d      	mov	r5, r1
		configASSERT( uxQueueLength > ( UBaseType_t ) 0 );
 8002810:	4606      	mov	r6, r0
 8002812:	b940      	cbnz	r0, 8002826 <xQueueGenericCreate+0x1a>
 8002814:	f04f 0350 	mov.w	r3, #80	; 0x50
 8002818:	f383 8811 	msr	BASEPRI, r3
 800281c:	f3bf 8f6f 	isb	sy
 8002820:	f3bf 8f4f 	dsb	sy
 8002824:	e7fe      	b.n	8002824 <xQueueGenericCreate+0x18>
			xQueueSizeInBytes = ( size_t ) ( uxQueueLength * uxItemSize ); /*lint !e961 MISRA exception as the casts are only redundant for some ports. */
 8002826:	4348      	muls	r0, r1
		pxNewQueue = ( Queue_t * ) pvPortMalloc( sizeof( Queue_t ) + xQueueSizeInBytes );
 8002828:	3048      	adds	r0, #72	; 0x48
 800282a:	f7ff fe69 	bl	8002500 <pvPortMalloc>
		if( pxNewQueue != NULL )
 800282e:	4604      	mov	r4, r0
 8002830:	b138      	cbz	r0, 8002842 <xQueueGenericCreate+0x36>
	if( uxItemSize == ( UBaseType_t ) 0 )
 8002832:	b945      	cbnz	r5, 8002846 <xQueueGenericCreate+0x3a>
		pxNewQueue->pcHead = ( int8_t * ) pxNewQueue;
 8002834:	6020      	str	r0, [r4, #0]
	pxNewQueue->uxLength = uxQueueLength;
 8002836:	63e6      	str	r6, [r4, #60]	; 0x3c
	pxNewQueue->uxItemSize = uxItemSize;
 8002838:	6425      	str	r5, [r4, #64]	; 0x40
	( void ) xQueueGenericReset( pxNewQueue, pdTRUE );
 800283a:	2101      	movs	r1, #1
 800283c:	4620      	mov	r0, r4
 800283e:	f7ff ffa5 	bl	800278c <xQueueGenericReset>
	}
 8002842:	4620      	mov	r0, r4
 8002844:	bd70      	pop	{r4, r5, r6, pc}
			pucQueueStorage = ( ( uint8_t * ) pxNewQueue ) + sizeof( Queue_t );
 8002846:	f100 0348 	add.w	r3, r0, #72	; 0x48
		pxNewQueue->pcHead = ( int8_t * ) pucQueueStorage;
 800284a:	6003      	str	r3, [r0, #0]
 800284c:	e7f3      	b.n	8002836 <xQueueGenericCreate+0x2a>
	...

08002850 <xQueueGenericSend>:
{
 8002850:	e92d 47ff 	stmdb	sp!, {r0, r1, r2, r3, r4, r5, r6, r7, r8, r9, sl, lr}
 8002854:	4689      	mov	r9, r1
 8002856:	9201      	str	r2, [sp, #4]
 8002858:	461f      	mov	r7, r3
	configASSERT( pxQueue );
 800285a:	4604      	mov	r4, r0
 800285c:	b940      	cbnz	r0, 8002870 <xQueueGenericSend+0x20>
 800285e:	f04f 0350 	mov.w	r3, #80	; 0x50
 8002862:	f383 8811 	msr	BASEPRI, r3
 8002866:	f3bf 8f6f 	isb	sy
 800286a:	f3bf 8f4f 	dsb	sy
 800286e:	e7fe      	b.n	800286e <xQueueGenericSend+0x1e>
	configASSERT( !( ( pvItemToQueue == NULL ) && ( pxQueue->uxItemSize != ( UBaseType_t ) 0U ) ) );
 8002870:	2900      	cmp	r1, #0
 8002872:	f040 8088 	bne.w	8002986 <xQueueGenericSend+0x136>
 8002876:	6c03      	ldr	r3, [r0, #64]	; 0x40
 8002878:	2b00      	cmp	r3, #0
 800287a:	f000 8084 	beq.w	8002986 <xQueueGenericSend+0x136>
 800287e:	f04f 0350 	mov.w	r3, #80	; 0x50
 8002882:	f383 8811 	msr	BASEPRI, r3
 8002886:	f3bf 8f6f 	isb	sy
 800288a:	f3bf 8f4f 	dsb	sy
 800288e:	e7fe      	b.n	800288e <xQueueGenericSend+0x3e>
		configASSERT( !( ( xTaskGetSchedulerState() == taskSCHEDULER_SUSPENDED ) && ( xTicksToWait != 0 ) ) );
 8002890:	9e01      	ldr	r6, [sp, #4]
 8002892:	2e00      	cmp	r6, #0
 8002894:	f000 8082 	beq.w	800299c <xQueueGenericSend+0x14c>
 8002898:	f04f 0350 	mov.w	r3, #80	; 0x50
 800289c:	f383 8811 	msr	BASEPRI, r3
 80028a0:	f3bf 8f6f 	isb	sy
 80028a4:	f3bf 8f4f 	dsb	sy
 80028a8:	e7fe      	b.n	80028a8 <xQueueGenericSend+0x58>
				if( xTicksToWait == ( TickType_t ) 0 )
 80028aa:	9d01      	ldr	r5, [sp, #4]
 80028ac:	b91d      	cbnz	r5, 80028b6 <xQueueGenericSend+0x66>
					taskEXIT_CRITICAL();
 80028ae:	f7ff fd2b 	bl	8002308 <vPortExitCritical>
			return errQUEUE_FULL;
 80028b2:	2000      	movs	r0, #0
 80028b4:	e058      	b.n	8002968 <xQueueGenericSend+0x118>
				else if( xEntryTimeSet == pdFALSE )
 80028b6:	b916      	cbnz	r6, 80028be <xQueueGenericSend+0x6e>
					vTaskSetTimeOutState( &xTimeOut );
 80028b8:	a802      	add	r0, sp, #8
 80028ba:	f000 fd19 	bl	80032f0 <vTaskSetTimeOutState>
		taskEXIT_CRITICAL();
 80028be:	f7ff fd23 	bl	8002308 <vPortExitCritical>
		vTaskSuspendAll();
 80028c2:	f000 fb0f 	bl	8002ee4 <vTaskSuspendAll>
		prvLockQueue( pxQueue );
 80028c6:	f7ff fcfd 	bl	80022c4 <vPortEnterCritical>
 80028ca:	f894 3044 	ldrb.w	r3, [r4, #68]	; 0x44
 80028ce:	2bff      	cmp	r3, #255	; 0xff
 80028d0:	bf08      	it	eq
 80028d2:	f884 8044 	strbeq.w	r8, [r4, #68]	; 0x44
 80028d6:	f894 3045 	ldrb.w	r3, [r4, #69]	; 0x45
 80028da:	2bff      	cmp	r3, #255	; 0xff
 80028dc:	bf08      	it	eq
 80028de:	f884 8045 	strbeq.w	r8, [r4, #69]	; 0x45
 80028e2:	f7ff fd11 	bl	8002308 <vPortExitCritical>
		if( xTaskCheckForTimeOut( &xTimeOut, &xTicksToWait ) == pdFALSE )
 80028e6:	a901      	add	r1, sp, #4
 80028e8:	a802      	add	r0, sp, #8
 80028ea:	f000 fd11 	bl	8003310 <xTaskCheckForTimeOut>
 80028ee:	2800      	cmp	r0, #0
 80028f0:	d143      	bne.n	800297a <xQueueGenericSend+0x12a>

static BaseType_t prvIsQueueFull( const Queue_t *pxQueue )
{
BaseType_t xReturn;

	taskENTER_CRITICAL();
 80028f2:	f7ff fce7 	bl	80022c4 <vPortEnterCritical>
	{
		if( pxQueue->uxMessagesWaiting == pxQueue->uxLength )
 80028f6:	6ba6      	ldr	r6, [r4, #56]	; 0x38
 80028f8:	6be5      	ldr	r5, [r4, #60]	; 0x3c
		else
		{
			xReturn = pdFALSE;
		}
	}
	taskEXIT_CRITICAL();
 80028fa:	f7ff fd05 	bl	8002308 <vPortExitCritical>
			if( prvIsQueueFull( pxQueue ) != pdFALSE )
 80028fe:	42ae      	cmp	r6, r5
 8002900:	d135      	bne.n	800296e <xQueueGenericSend+0x11e>
				vTaskPlaceOnEventList( &( pxQueue->xTasksWaitingToSend ), xTicksToWait );
 8002902:	9901      	ldr	r1, [sp, #4]
 8002904:	f104 0010 	add.w	r0, r4, #16
 8002908:	f000 fc96 	bl	8003238 <vTaskPlaceOnEventList>
				prvUnlockQueue( pxQueue );
 800290c:	4620      	mov	r0, r4
 800290e:	f7ff ff04 	bl	800271a <prvUnlockQueue>
				if( xTaskResumeAll() == pdFALSE )
 8002912:	f000 fb81 	bl	8003018 <xTaskResumeAll>
 8002916:	b938      	cbnz	r0, 8002928 <xQueueGenericSend+0xd8>
					portYIELD_WITHIN_API();
 8002918:	f04f 5380 	mov.w	r3, #268435456	; 0x10000000
 800291c:	f8ca 3000 	str.w	r3, [sl]
 8002920:	f3bf 8f4f 	dsb	sy
 8002924:	f3bf 8f6f 	isb	sy
 8002928:	2601      	movs	r6, #1
		taskENTER_CRITICAL();
 800292a:	f7ff fccb 	bl	80022c4 <vPortEnterCritical>
			if( ( pxQueue->uxMessagesWaiting < pxQueue->uxLength ) || ( xCopyPosition == queueOVERWRITE ) )
 800292e:	6ba2      	ldr	r2, [r4, #56]	; 0x38
 8002930:	6be3      	ldr	r3, [r4, #60]	; 0x3c
 8002932:	429a      	cmp	r2, r3
 8002934:	d301      	bcc.n	800293a <xQueueGenericSend+0xea>
 8002936:	2f02      	cmp	r7, #2
 8002938:	d1b7      	bne.n	80028aa <xQueueGenericSend+0x5a>
				xYieldRequired = prvCopyDataToQueue( pxQueue, pvItemToQueue, xCopyPosition );
 800293a:	463a      	mov	r2, r7
 800293c:	4649      	mov	r1, r9
 800293e:	4620      	mov	r0, r4
 8002940:	f7ff fea4 	bl	800268c <prvCopyDataToQueue>
					if( listLIST_IS_EMPTY( &( pxQueue->xTasksWaitingToReceive ) ) == pdFALSE )
 8002944:	6a63      	ldr	r3, [r4, #36]	; 0x24
 8002946:	b11b      	cbz	r3, 8002950 <xQueueGenericSend+0x100>
						if( xTaskRemoveFromEventList( &( pxQueue->xTasksWaitingToReceive ) ) != pdFALSE )
 8002948:	f104 0024 	add.w	r0, r4, #36	; 0x24
 800294c:	f000 fc8e 	bl	800326c <xTaskRemoveFromEventList>
					else if( xYieldRequired != pdFALSE )
 8002950:	b138      	cbz	r0, 8002962 <xQueueGenericSend+0x112>
						queueYIELD_IF_USING_PREEMPTION();
 8002952:	f04f 5280 	mov.w	r2, #268435456	; 0x10000000
 8002956:	4b18      	ldr	r3, [pc, #96]	; (80029b8 <xQueueGenericSend+0x168>)
 8002958:	601a      	str	r2, [r3, #0]
 800295a:	f3bf 8f4f 	dsb	sy
 800295e:	f3bf 8f6f 	isb	sy
				taskEXIT_CRITICAL();
 8002962:	f7ff fcd1 	bl	8002308 <vPortExitCritical>
				return pdPASS;
 8002966:	2001      	movs	r0, #1
}
 8002968:	b004      	add	sp, #16
 800296a:	e8bd 87f0 	ldmia.w	sp!, {r4, r5, r6, r7, r8, r9, sl, pc}
				prvUnlockQueue( pxQueue );
 800296e:	4620      	mov	r0, r4
 8002970:	f7ff fed3 	bl	800271a <prvUnlockQueue>
				( void ) xTaskResumeAll();
 8002974:	f000 fb50 	bl	8003018 <xTaskResumeAll>
 8002978:	e7d6      	b.n	8002928 <xQueueGenericSend+0xd8>
			prvUnlockQueue( pxQueue );
 800297a:	4620      	mov	r0, r4
 800297c:	f7ff fecd 	bl	800271a <prvUnlockQueue>
			( void ) xTaskResumeAll();
 8002980:	f000 fb4a 	bl	8003018 <xTaskResumeAll>
 8002984:	e795      	b.n	80028b2 <xQueueGenericSend+0x62>
	configASSERT( !( ( xCopyPosition == queueOVERWRITE ) && ( pxQueue->uxLength != 1 ) ) );
 8002986:	2f02      	cmp	r7, #2
 8002988:	d102      	bne.n	8002990 <xQueueGenericSend+0x140>
 800298a:	6be3      	ldr	r3, [r4, #60]	; 0x3c
 800298c:	2b01      	cmp	r3, #1
 800298e:	d10a      	bne.n	80029a6 <xQueueGenericSend+0x156>
		configASSERT( !( ( xTaskGetSchedulerState() == taskSCHEDULER_SUSPENDED ) && ( xTicksToWait != 0 ) ) );
 8002990:	f000 fcfe 	bl	8003390 <xTaskGetSchedulerState>
 8002994:	2800      	cmp	r0, #0
 8002996:	f43f af7b 	beq.w	8002890 <xQueueGenericSend+0x40>
 800299a:	2600      	movs	r6, #0
		prvLockQueue( pxQueue );
 800299c:	f04f 0800 	mov.w	r8, #0
					portYIELD_WITHIN_API();
 80029a0:	f8df a014 	ldr.w	sl, [pc, #20]	; 80029b8 <xQueueGenericSend+0x168>
 80029a4:	e7c1      	b.n	800292a <xQueueGenericSend+0xda>
 80029a6:	f04f 0350 	mov.w	r3, #80	; 0x50
 80029aa:	f383 8811 	msr	BASEPRI, r3
 80029ae:	f3bf 8f6f 	isb	sy
 80029b2:	f3bf 8f4f 	dsb	sy
 80029b6:	e7fe      	b.n	80029b6 <xQueueGenericSend+0x166>
 80029b8:	e000ed04 	.word	0xe000ed04

080029bc <xQueueGenericSendFromISR>:
{
 80029bc:	e92d 43f8 	stmdb	sp!, {r3, r4, r5, r6, r7, r8, r9, lr}
 80029c0:	4688      	mov	r8, r1
 80029c2:	4691      	mov	r9, r2
 80029c4:	461f      	mov	r7, r3
	configASSERT( pxQueue );
 80029c6:	4604      	mov	r4, r0
 80029c8:	b940      	cbnz	r0, 80029dc <xQueueGenericSendFromISR+0x20>
 80029ca:	f04f 0350 	mov.w	r3, #80	; 0x50
 80029ce:	f383 8811 	msr	BASEPRI, r3
 80029d2:	f3bf 8f6f 	isb	sy
 80029d6:	f3bf 8f4f 	dsb	sy
 80029da:	e7fe      	b.n	80029da <xQueueGenericSendFromISR+0x1e>
	configASSERT( !( ( pvItemToQueue == NULL ) && ( pxQueue->uxItemSize != ( UBaseType_t ) 0U ) ) );
 80029dc:	bb09      	cbnz	r1, 8002a22 <xQueueGenericSendFromISR+0x66>
 80029de:	6c03      	ldr	r3, [r0, #64]	; 0x40
 80029e0:	b1fb      	cbz	r3, 8002a22 <xQueueGenericSendFromISR+0x66>
 80029e2:	f04f 0350 	mov.w	r3, #80	; 0x50
 80029e6:	f383 8811 	msr	BASEPRI, r3
 80029ea:	f3bf 8f6f 	isb	sy
 80029ee:	f3bf 8f4f 	dsb	sy
 80029f2:	e7fe      	b.n	80029f2 <xQueueGenericSendFromISR+0x36>
						if( xTaskRemoveFromEventList( &( pxQueue->xTasksWaitingToReceive ) ) != pdFALSE )
 80029f4:	f104 0024 	add.w	r0, r4, #36	; 0x24
 80029f8:	f000 fc38 	bl	800326c <xTaskRemoveFromEventList>
 80029fc:	2800      	cmp	r0, #0
 80029fe:	d034      	beq.n	8002a6a <xQueueGenericSendFromISR+0xae>
							if( pxHigherPriorityTaskWoken != NULL )
 8002a00:	f1b9 0f00 	cmp.w	r9, #0
 8002a04:	d031      	beq.n	8002a6a <xQueueGenericSendFromISR+0xae>
								*pxHigherPriorityTaskWoken = pdTRUE;
 8002a06:	2001      	movs	r0, #1
 8002a08:	f8c9 0000 	str.w	r0, [r9]
	__asm volatile
 8002a0c:	f386 8811 	msr	BASEPRI, r6
}
 8002a10:	e8bd 83f8 	ldmia.w	sp!, {r3, r4, r5, r6, r7, r8, r9, pc}
				pxQueue->cTxLock = ( int8_t ) ( cTxLock + 1 );
 8002a14:	3501      	adds	r5, #1
 8002a16:	b26d      	sxtb	r5, r5
 8002a18:	f884 5045 	strb.w	r5, [r4, #69]	; 0x45
 8002a1c:	e025      	b.n	8002a6a <xQueueGenericSendFromISR+0xae>
			xReturn = errQUEUE_FULL;
 8002a1e:	2000      	movs	r0, #0
 8002a20:	e7f4      	b.n	8002a0c <xQueueGenericSendFromISR+0x50>
	configASSERT( !( ( xCopyPosition == queueOVERWRITE ) && ( pxQueue->uxLength != 1 ) ) );
 8002a22:	2f02      	cmp	r7, #2
 8002a24:	d102      	bne.n	8002a2c <xQueueGenericSendFromISR+0x70>
 8002a26:	6be3      	ldr	r3, [r4, #60]	; 0x3c
 8002a28:	2b01      	cmp	r3, #1
 8002a2a:	d120      	bne.n	8002a6e <xQueueGenericSendFromISR+0xb2>
	portASSERT_IF_INTERRUPT_PRIORITY_INVALID();
 8002a2c:	f7ff fd16 	bl	800245c <vPortValidateInterruptPriority>
	__asm volatile
 8002a30:	f3ef 8611 	mrs	r6, BASEPRI
 8002a34:	f04f 0350 	mov.w	r3, #80	; 0x50
 8002a38:	f383 8811 	msr	BASEPRI, r3
 8002a3c:	f3bf 8f6f 	isb	sy
 8002a40:	f3bf 8f4f 	dsb	sy
		if( ( pxQueue->uxMessagesWaiting < pxQueue->uxLength ) || ( xCopyPosition == queueOVERWRITE ) )
 8002a44:	6ba2      	ldr	r2, [r4, #56]	; 0x38
 8002a46:	6be3      	ldr	r3, [r4, #60]	; 0x3c
 8002a48:	429a      	cmp	r2, r3
 8002a4a:	d301      	bcc.n	8002a50 <xQueueGenericSendFromISR+0x94>
 8002a4c:	2f02      	cmp	r7, #2
 8002a4e:	d1e6      	bne.n	8002a1e <xQueueGenericSendFromISR+0x62>
			const int8_t cTxLock = pxQueue->cTxLock;
 8002a50:	f894 5045 	ldrb.w	r5, [r4, #69]	; 0x45
			( void ) prvCopyDataToQueue( pxQueue, pvItemToQueue, xCopyPosition );
 8002a54:	463a      	mov	r2, r7
			const int8_t cTxLock = pxQueue->cTxLock;
 8002a56:	b26d      	sxtb	r5, r5
			( void ) prvCopyDataToQueue( pxQueue, pvItemToQueue, xCopyPosition );
 8002a58:	4641      	mov	r1, r8
 8002a5a:	4620      	mov	r0, r4
 8002a5c:	f7ff fe16 	bl	800268c <prvCopyDataToQueue>
			if( cTxLock == queueUNLOCKED )
 8002a60:	1c6b      	adds	r3, r5, #1
 8002a62:	d1d7      	bne.n	8002a14 <xQueueGenericSendFromISR+0x58>
					if( listLIST_IS_EMPTY( &( pxQueue->xTasksWaitingToReceive ) ) == pdFALSE )
 8002a64:	6a63      	ldr	r3, [r4, #36]	; 0x24
 8002a66:	2b00      	cmp	r3, #0
 8002a68:	d1c4      	bne.n	80029f4 <xQueueGenericSendFromISR+0x38>
			xReturn = pdPASS;
 8002a6a:	2001      	movs	r0, #1
 8002a6c:	e7ce      	b.n	8002a0c <xQueueGenericSendFromISR+0x50>
	__asm volatile
 8002a6e:	f04f 0350 	mov.w	r3, #80	; 0x50
 8002a72:	f383 8811 	msr	BASEPRI, r3
 8002a76:	f3bf 8f6f 	isb	sy
 8002a7a:	f3bf 8f4f 	dsb	sy
 8002a7e:	e7fe      	b.n	8002a7e <xQueueGenericSendFromISR+0xc2>

08002a80 <xQueueGenericReceive>:
{
 8002a80:	e92d 47ff 	stmdb	sp!, {r0, r1, r2, r3, r4, r5, r6, r7, r8, r9, sl, lr}
 8002a84:	4688      	mov	r8, r1
 8002a86:	9201      	str	r2, [sp, #4]
 8002a88:	4699      	mov	r9, r3
	configASSERT( pxQueue );
 8002a8a:	4604      	mov	r4, r0
 8002a8c:	b940      	cbnz	r0, 8002aa0 <xQueueGenericReceive+0x20>
 8002a8e:	f04f 0350 	mov.w	r3, #80	; 0x50
 8002a92:	f383 8811 	msr	BASEPRI, r3
 8002a96:	f3bf 8f6f 	isb	sy
 8002a9a:	f3bf 8f4f 	dsb	sy
 8002a9e:	e7fe      	b.n	8002a9e <xQueueGenericReceive+0x1e>
	configASSERT( !( ( pvBuffer == NULL ) && ( pxQueue->uxItemSize != ( UBaseType_t ) 0U ) ) );
 8002aa0:	2900      	cmp	r1, #0
 8002aa2:	f040 80a5 	bne.w	8002bf0 <xQueueGenericReceive+0x170>
 8002aa6:	6c03      	ldr	r3, [r0, #64]	; 0x40
 8002aa8:	2b00      	cmp	r3, #0
 8002aaa:	f000 80a1 	beq.w	8002bf0 <xQueueGenericReceive+0x170>
 8002aae:	f04f 0350 	mov.w	r3, #80	; 0x50
 8002ab2:	f383 8811 	msr	BASEPRI, r3
 8002ab6:	f3bf 8f6f 	isb	sy
 8002aba:	f3bf 8f4f 	dsb	sy
 8002abe:	e7fe      	b.n	8002abe <xQueueGenericReceive+0x3e>
		configASSERT( !( ( xTaskGetSchedulerState() == taskSCHEDULER_SUSPENDED ) && ( xTicksToWait != 0 ) ) );
 8002ac0:	9e01      	ldr	r6, [sp, #4]
 8002ac2:	2e00      	cmp	r6, #0
 8002ac4:	f000 809a 	beq.w	8002bfc <xQueueGenericReceive+0x17c>
 8002ac8:	f04f 0350 	mov.w	r3, #80	; 0x50
 8002acc:	f383 8811 	msr	BASEPRI, r3
 8002ad0:	f3bf 8f6f 	isb	sy
 8002ad4:	f3bf 8f4f 	dsb	sy
 8002ad8:	e7fe      	b.n	8002ad8 <xQueueGenericReceive+0x58>
					if( listLIST_IS_EMPTY( &( pxQueue->xTasksWaitingToReceive ) ) == pdFALSE )
 8002ada:	6a63      	ldr	r3, [r4, #36]	; 0x24
					pxQueue->u.pcReadFrom = pcOriginalReadPosition;
 8002adc:	60e6      	str	r6, [r4, #12]
					if( listLIST_IS_EMPTY( &( pxQueue->xTasksWaitingToReceive ) ) == pdFALSE )
 8002ade:	2b00      	cmp	r3, #0
 8002ae0:	d06d      	beq.n	8002bbe <xQueueGenericReceive+0x13e>
						if( xTaskRemoveFromEventList( &( pxQueue->xTasksWaitingToReceive ) ) != pdFALSE )
 8002ae2:	f104 0024 	add.w	r0, r4, #36	; 0x24
 8002ae6:	e05f      	b.n	8002ba8 <xQueueGenericReceive+0x128>
				if( xTicksToWait == ( TickType_t ) 0 )
 8002ae8:	9d01      	ldr	r5, [sp, #4]
 8002aea:	b91d      	cbnz	r5, 8002af4 <xQueueGenericReceive+0x74>
					taskEXIT_CRITICAL();
 8002aec:	f7ff fc0c 	bl	8002308 <vPortExitCritical>
				return errQUEUE_EMPTY;
 8002af0:	4628      	mov	r0, r5
 8002af2:	e067      	b.n	8002bc4 <xQueueGenericReceive+0x144>
				else if( xEntryTimeSet == pdFALSE )
 8002af4:	b916      	cbnz	r6, 8002afc <xQueueGenericReceive+0x7c>
					vTaskSetTimeOutState( &xTimeOut );
 8002af6:	a802      	add	r0, sp, #8
 8002af8:	f000 fbfa 	bl	80032f0 <vTaskSetTimeOutState>
		taskEXIT_CRITICAL();
 8002afc:	f7ff fc04 	bl	8002308 <vPortExitCritical>
		vTaskSuspendAll();
 8002b00:	f000 f9f0 	bl	8002ee4 <vTaskSuspendAll>
		prvLockQueue( pxQueue );
 8002b04:	f7ff fbde 	bl	80022c4 <vPortEnterCritical>
 8002b08:	f894 3044 	ldrb.w	r3, [r4, #68]	; 0x44
 8002b0c:	2bff      	cmp	r3, #255	; 0xff
 8002b0e:	bf08      	it	eq
 8002b10:	f884 7044 	strbeq.w	r7, [r4, #68]	; 0x44
 8002b14:	f894 3045 	ldrb.w	r3, [r4, #69]	; 0x45
 8002b18:	2bff      	cmp	r3, #255	; 0xff
 8002b1a:	bf08      	it	eq
 8002b1c:	f884 7045 	strbeq.w	r7, [r4, #69]	; 0x45
 8002b20:	f7ff fbf2 	bl	8002308 <vPortExitCritical>
		if( xTaskCheckForTimeOut( &xTimeOut, &xTicksToWait ) == pdFALSE )
 8002b24:	a901      	add	r1, sp, #4
 8002b26:	a802      	add	r0, sp, #8
 8002b28:	f000 fbf2 	bl	8003310 <xTaskCheckForTimeOut>
 8002b2c:	2800      	cmp	r0, #0
 8002b2e:	d152      	bne.n	8002bd6 <xQueueGenericReceive+0x156>
	taskENTER_CRITICAL();
 8002b30:	f7ff fbc8 	bl	80022c4 <vPortEnterCritical>
		if( pxQueue->uxMessagesWaiting == ( UBaseType_t )  0 )
 8002b34:	6ba5      	ldr	r5, [r4, #56]	; 0x38
	taskEXIT_CRITICAL();
 8002b36:	f7ff fbe7 	bl	8002308 <vPortExitCritical>
			if( prvIsQueueEmpty( pxQueue ) != pdFALSE )
 8002b3a:	2d00      	cmp	r5, #0
 8002b3c:	d145      	bne.n	8002bca <xQueueGenericReceive+0x14a>
					if( pxQueue->uxQueueType == queueQUEUE_IS_MUTEX )
 8002b3e:	6823      	ldr	r3, [r4, #0]
 8002b40:	b933      	cbnz	r3, 8002b50 <xQueueGenericReceive+0xd0>
						taskENTER_CRITICAL();
 8002b42:	f7ff fbbf 	bl	80022c4 <vPortEnterCritical>
							vTaskPriorityInherit( ( void * ) pxQueue->pxMutexHolder );
 8002b46:	6860      	ldr	r0, [r4, #4]
 8002b48:	f000 fc32 	bl	80033b0 <vTaskPriorityInherit>
						taskEXIT_CRITICAL();
 8002b4c:	f7ff fbdc 	bl	8002308 <vPortExitCritical>
				vTaskPlaceOnEventList( &( pxQueue->xTasksWaitingToReceive ), xTicksToWait );
 8002b50:	9901      	ldr	r1, [sp, #4]
 8002b52:	f104 0024 	add.w	r0, r4, #36	; 0x24
 8002b56:	f000 fb6f 	bl	8003238 <vTaskPlaceOnEventList>
				prvUnlockQueue( pxQueue );
 8002b5a:	4620      	mov	r0, r4
 8002b5c:	f7ff fddd 	bl	800271a <prvUnlockQueue>
				if( xTaskResumeAll() == pdFALSE )
 8002b60:	f000 fa5a 	bl	8003018 <xTaskResumeAll>
 8002b64:	b938      	cbnz	r0, 8002b76 <xQueueGenericReceive+0xf6>
					portYIELD_WITHIN_API();
 8002b66:	f04f 5380 	mov.w	r3, #268435456	; 0x10000000
 8002b6a:	f8ca 3000 	str.w	r3, [sl]
 8002b6e:	f3bf 8f4f 	dsb	sy
 8002b72:	f3bf 8f6f 	isb	sy
 8002b76:	2601      	movs	r6, #1
		taskENTER_CRITICAL();
 8002b78:	f7ff fba4 	bl	80022c4 <vPortEnterCritical>
			const UBaseType_t uxMessagesWaiting = pxQueue->uxMessagesWaiting;
 8002b7c:	6ba5      	ldr	r5, [r4, #56]	; 0x38
			if( uxMessagesWaiting > ( UBaseType_t ) 0 )
 8002b7e:	2d00      	cmp	r5, #0
 8002b80:	d0b2      	beq.n	8002ae8 <xQueueGenericReceive+0x68>
				prvCopyDataFromQueue( pxQueue, pvBuffer );
 8002b82:	4641      	mov	r1, r8
 8002b84:	4620      	mov	r0, r4
				pcOriginalReadPosition = pxQueue->u.pcReadFrom;
 8002b86:	68e6      	ldr	r6, [r4, #12]
				prvCopyDataFromQueue( pxQueue, pvBuffer );
 8002b88:	f7ff fdb3 	bl	80026f2 <prvCopyDataFromQueue>
				if( xJustPeeking == pdFALSE )
 8002b8c:	f1b9 0f00 	cmp.w	r9, #0
 8002b90:	d1a3      	bne.n	8002ada <xQueueGenericReceive+0x5a>
						if( pxQueue->uxQueueType == queueQUEUE_IS_MUTEX )
 8002b92:	6823      	ldr	r3, [r4, #0]
					pxQueue->uxMessagesWaiting = uxMessagesWaiting - 1;
 8002b94:	3d01      	subs	r5, #1
 8002b96:	63a5      	str	r5, [r4, #56]	; 0x38
						if( pxQueue->uxQueueType == queueQUEUE_IS_MUTEX )
 8002b98:	b913      	cbnz	r3, 8002ba0 <xQueueGenericReceive+0x120>
							pxQueue->pxMutexHolder = ( int8_t * ) pvTaskIncrementMutexHeldCount(); /*lint !e961 Cast is not redundant as TaskHandle_t is a typedef. */
 8002b9a:	f000 fca1 	bl	80034e0 <pvTaskIncrementMutexHeldCount>
 8002b9e:	6060      	str	r0, [r4, #4]
					if( listLIST_IS_EMPTY( &( pxQueue->xTasksWaitingToSend ) ) == pdFALSE )
 8002ba0:	6923      	ldr	r3, [r4, #16]
 8002ba2:	b163      	cbz	r3, 8002bbe <xQueueGenericReceive+0x13e>
						if( xTaskRemoveFromEventList( &( pxQueue->xTasksWaitingToSend ) ) != pdFALSE )
 8002ba4:	f104 0010 	add.w	r0, r4, #16
						if( xTaskRemoveFromEventList( &( pxQueue->xTasksWaitingToReceive ) ) != pdFALSE )
 8002ba8:	f000 fb60 	bl	800326c <xTaskRemoveFromEventList>
 8002bac:	b138      	cbz	r0, 8002bbe <xQueueGenericReceive+0x13e>
							queueYIELD_IF_USING_PREEMPTION();
 8002bae:	f04f 5280 	mov.w	r2, #268435456	; 0x10000000
 8002bb2:	4b14      	ldr	r3, [pc, #80]	; (8002c04 <xQueueGenericReceive+0x184>)
 8002bb4:	601a      	str	r2, [r3, #0]
 8002bb6:	f3bf 8f4f 	dsb	sy
 8002bba:	f3bf 8f6f 	isb	sy
				taskEXIT_CRITICAL();
 8002bbe:	f7ff fba3 	bl	8002308 <vPortExitCritical>
				return pdPASS;
 8002bc2:	2001      	movs	r0, #1
}
 8002bc4:	b004      	add	sp, #16
 8002bc6:	e8bd 87f0 	ldmia.w	sp!, {r4, r5, r6, r7, r8, r9, sl, pc}
				prvUnlockQueue( pxQueue );
 8002bca:	4620      	mov	r0, r4
 8002bcc:	f7ff fda5 	bl	800271a <prvUnlockQueue>
				( void ) xTaskResumeAll();
 8002bd0:	f000 fa22 	bl	8003018 <xTaskResumeAll>
 8002bd4:	e7cf      	b.n	8002b76 <xQueueGenericReceive+0xf6>
			prvUnlockQueue( pxQueue );
 8002bd6:	4620      	mov	r0, r4
 8002bd8:	f7ff fd9f 	bl	800271a <prvUnlockQueue>
			( void ) xTaskResumeAll();
 8002bdc:	f000 fa1c 	bl	8003018 <xTaskResumeAll>
	taskENTER_CRITICAL();
 8002be0:	f7ff fb70 	bl	80022c4 <vPortEnterCritical>
		if( pxQueue->uxMessagesWaiting == ( UBaseType_t )  0 )
 8002be4:	6ba5      	ldr	r5, [r4, #56]	; 0x38
	taskEXIT_CRITICAL();
 8002be6:	f7ff fb8f 	bl	8002308 <vPortExitCritical>
			if( prvIsQueueEmpty( pxQueue ) != pdFALSE )
 8002bea:	2d00      	cmp	r5, #0
 8002bec:	d1c3      	bne.n	8002b76 <xQueueGenericReceive+0xf6>
 8002bee:	e77f      	b.n	8002af0 <xQueueGenericReceive+0x70>
		configASSERT( !( ( xTaskGetSchedulerState() == taskSCHEDULER_SUSPENDED ) && ( xTicksToWait != 0 ) ) );
 8002bf0:	f000 fbce 	bl	8003390 <xTaskGetSchedulerState>
 8002bf4:	2800      	cmp	r0, #0
 8002bf6:	f43f af63 	beq.w	8002ac0 <xQueueGenericReceive+0x40>
 8002bfa:	2600      	movs	r6, #0
		prvLockQueue( pxQueue );
 8002bfc:	2700      	movs	r7, #0
					portYIELD_WITHIN_API();
 8002bfe:	f8df a004 	ldr.w	sl, [pc, #4]	; 8002c04 <xQueueGenericReceive+0x184>
 8002c02:	e7b9      	b.n	8002b78 <xQueueGenericReceive+0xf8>
 8002c04:	e000ed04 	.word	0xe000ed04

08002c08 <prvResetNextTaskUnblockTime>:

static void prvResetNextTaskUnblockTime( void )
{
TCB_t *pxTCB;

	if( listLIST_IS_EMPTY( pxDelayedTaskList ) != pdFALSE )
 8002c08:	4a06      	ldr	r2, [pc, #24]	; (8002c24 <prvResetNextTaskUnblockTime+0x1c>)
 8002c0a:	6813      	ldr	r3, [r2, #0]
 8002c0c:	6819      	ldr	r1, [r3, #0]
 8002c0e:	4b06      	ldr	r3, [pc, #24]	; (8002c28 <prvResetNextTaskUnblockTime+0x20>)
 8002c10:	b919      	cbnz	r1, 8002c1a <prvResetNextTaskUnblockTime+0x12>
	{
		/* The new current delayed list is empty.  Set xNextTaskUnblockTime to
		the maximum possible value so it is	extremely unlikely that the
		if( xTickCount >= xNextTaskUnblockTime ) test will pass until
		there is an item in the delayed list. */
		xNextTaskUnblockTime = portMAX_DELAY;
 8002c12:	f04f 32ff 	mov.w	r2, #4294967295
		/* The new current delayed list is not empty, get the value of
		the item at the head of the delayed list.  This is the time at
		which the task at the head of the delayed list should be removed
		from the Blocked state. */
		( pxTCB ) = ( TCB_t * ) listGET_OWNER_OF_HEAD_ENTRY( pxDelayedTaskList );
		xNextTaskUnblockTime = listGET_LIST_ITEM_VALUE( &( ( pxTCB )->xStateListItem ) );
 8002c16:	601a      	str	r2, [r3, #0]
 8002c18:	4770      	bx	lr
		( pxTCB ) = ( TCB_t * ) listGET_OWNER_OF_HEAD_ENTRY( pxDelayedTaskList );
 8002c1a:	6812      	ldr	r2, [r2, #0]
 8002c1c:	68d2      	ldr	r2, [r2, #12]
		xNextTaskUnblockTime = listGET_LIST_ITEM_VALUE( &( ( pxTCB )->xStateListItem ) );
 8002c1e:	68d2      	ldr	r2, [r2, #12]
 8002c20:	6852      	ldr	r2, [r2, #4]
 8002c22:	e7f8      	b.n	8002c16 <prvResetNextTaskUnblockTime+0xe>
 8002c24:	20005040 	.word	0x20005040
 8002c28:	20005118 	.word	0x20005118

08002c2c <prvAddCurrentTaskToDelayedList>:
#endif /* configUSE_TASK_NOTIFICATIONS */
/*-----------------------------------------------------------*/


static void prvAddCurrentTaskToDelayedList( TickType_t xTicksToWait, const BaseType_t xCanBlockIndefinitely )
{
 8002c2c:	b5f8      	push	{r3, r4, r5, r6, r7, lr}
TickType_t xTimeToWake;
const TickType_t xConstTickCount = xTickCount;
 8002c2e:	4b1b      	ldr	r3, [pc, #108]	; (8002c9c <prvAddCurrentTaskToDelayedList+0x70>)
	}
	#endif

	/* Remove the task from the ready list before adding it to the blocked list
	as the same list item is used for both lists. */
	if( uxListRemove( &( pxCurrentTCB->xStateListItem ) ) == ( UBaseType_t ) 0 )
 8002c30:	4e1b      	ldr	r6, [pc, #108]	; (8002ca0 <prvAddCurrentTaskToDelayedList+0x74>)
const TickType_t xConstTickCount = xTickCount;
 8002c32:	681d      	ldr	r5, [r3, #0]
{
 8002c34:	4604      	mov	r4, r0
	if( uxListRemove( &( pxCurrentTCB->xStateListItem ) ) == ( UBaseType_t ) 0 )
 8002c36:	6830      	ldr	r0, [r6, #0]
{
 8002c38:	460f      	mov	r7, r1
	if( uxListRemove( &( pxCurrentTCB->xStateListItem ) ) == ( UBaseType_t ) 0 )
 8002c3a:	3004      	adds	r0, #4
 8002c3c:	f7ff fae4 	bl	8002208 <uxListRemove>
 8002c40:	4633      	mov	r3, r6
 8002c42:	b940      	cbnz	r0, 8002c56 <prvAddCurrentTaskToDelayedList+0x2a>
	{
		/* The current task must be in a ready list, so there is no need to
		check, and the port reset macro can be called directly. */
		portRESET_READY_PRIORITY( pxCurrentTCB->uxPriority, uxTopReadyPriority );
 8002c44:	2001      	movs	r0, #1
 8002c46:	6831      	ldr	r1, [r6, #0]
 8002c48:	4e16      	ldr	r6, [pc, #88]	; (8002ca4 <prvAddCurrentTaskToDelayedList+0x78>)
 8002c4a:	6ac9      	ldr	r1, [r1, #44]	; 0x2c
 8002c4c:	6832      	ldr	r2, [r6, #0]
 8002c4e:	4088      	lsls	r0, r1
 8002c50:	ea22 0200 	bic.w	r2, r2, r0
 8002c54:	6032      	str	r2, [r6, #0]
		mtCOVERAGE_TEST_MARKER();
	}

	#if ( INCLUDE_vTaskSuspend == 1 )
	{
		if( ( xTicksToWait == portMAX_DELAY ) && ( xCanBlockIndefinitely != pdFALSE ) )
 8002c56:	1c62      	adds	r2, r4, #1
 8002c58:	d107      	bne.n	8002c6a <prvAddCurrentTaskToDelayedList+0x3e>
 8002c5a:	b137      	cbz	r7, 8002c6a <prvAddCurrentTaskToDelayedList+0x3e>
		{
			/* Add the task to the suspended task list instead of a delayed task
			list to ensure it is not woken by a timing event.  It will block
			indefinitely. */
			vListInsertEnd( &xSuspendedTaskList, &( pxCurrentTCB->xStateListItem ) );
 8002c5c:	6819      	ldr	r1, [r3, #0]
 8002c5e:	4812      	ldr	r0, [pc, #72]	; (8002ca8 <prvAddCurrentTaskToDelayedList+0x7c>)
 8002c60:	3104      	adds	r1, #4

		/* Avoid compiler warning when INCLUDE_vTaskSuspend is not 1. */
		( void ) xCanBlockIndefinitely;
	}
	#endif /* INCLUDE_vTaskSuspend */
}
 8002c62:	e8bd 40f8 	ldmia.w	sp!, {r3, r4, r5, r6, r7, lr}
			vListInsertEnd( &xSuspendedTaskList, &( pxCurrentTCB->xStateListItem ) );
 8002c66:	f7ff baac 	b.w	80021c2 <vListInsertEnd>
			xTimeToWake = xConstTickCount + xTicksToWait;
 8002c6a:	442c      	add	r4, r5
			listSET_LIST_ITEM_VALUE( &( pxCurrentTCB->xStateListItem ), xTimeToWake );
 8002c6c:	681a      	ldr	r2, [r3, #0]
			if( xTimeToWake < xConstTickCount )
 8002c6e:	42a5      	cmp	r5, r4
			listSET_LIST_ITEM_VALUE( &( pxCurrentTCB->xStateListItem ), xTimeToWake );
 8002c70:	6054      	str	r4, [r2, #4]
			if( xTimeToWake < xConstTickCount )
 8002c72:	d907      	bls.n	8002c84 <prvAddCurrentTaskToDelayedList+0x58>
				vListInsert( pxOverflowDelayedTaskList, &( pxCurrentTCB->xStateListItem ) );
 8002c74:	4a0d      	ldr	r2, [pc, #52]	; (8002cac <prvAddCurrentTaskToDelayedList+0x80>)
 8002c76:	6810      	ldr	r0, [r2, #0]
 8002c78:	6819      	ldr	r1, [r3, #0]
}
 8002c7a:	e8bd 40f8 	ldmia.w	sp!, {r3, r4, r5, r6, r7, lr}
				vListInsert( pxOverflowDelayedTaskList, &( pxCurrentTCB->xStateListItem ) );
 8002c7e:	3104      	adds	r1, #4
 8002c80:	f7ff baab 	b.w	80021da <vListInsert>
				vListInsert( pxDelayedTaskList, &( pxCurrentTCB->xStateListItem ) );
 8002c84:	4a0a      	ldr	r2, [pc, #40]	; (8002cb0 <prvAddCurrentTaskToDelayedList+0x84>)
 8002c86:	6810      	ldr	r0, [r2, #0]
 8002c88:	6819      	ldr	r1, [r3, #0]
 8002c8a:	3104      	adds	r1, #4
 8002c8c:	f7ff faa5 	bl	80021da <vListInsert>
				if( xTimeToWake < xNextTaskUnblockTime )
 8002c90:	4b08      	ldr	r3, [pc, #32]	; (8002cb4 <prvAddCurrentTaskToDelayedList+0x88>)
 8002c92:	681a      	ldr	r2, [r3, #0]
 8002c94:	4294      	cmp	r4, r2
					xNextTaskUnblockTime = xTimeToWake;
 8002c96:	bf38      	it	cc
 8002c98:	601c      	strcc	r4, [r3, #0]
 8002c9a:	bdf8      	pop	{r3, r4, r5, r6, r7, pc}
 8002c9c:	20005160 	.word	0x20005160
 8002ca0:	2000503c 	.word	0x2000503c
 8002ca4:	200050e8 	.word	0x200050e8
 8002ca8:	20005138 	.word	0x20005138
 8002cac:	20005044 	.word	0x20005044
 8002cb0:	20005040 	.word	0x20005040
 8002cb4:	20005118 	.word	0x20005118

08002cb8 <prvTaskIsTaskSuspended.part.0>:
 8002cb8:	f04f 0350 	mov.w	r3, #80	; 0x50
 8002cbc:	f383 8811 	msr	BASEPRI, r3
 8002cc0:	f3bf 8f6f 	isb	sy
 8002cc4:	f3bf 8f4f 	dsb	sy
 8002cc8:	e7fe      	b.n	8002cc8 <prvTaskIsTaskSuspended.part.0+0x10>
	...

08002ccc <xTaskCreate>:
	{
 8002ccc:	e92d 4ff8 	stmdb	sp!, {r3, r4, r5, r6, r7, r8, r9, sl, fp, lr}
			pxStack = ( StackType_t * ) pvPortMalloc( ( ( ( size_t ) usStackDepth ) * sizeof( StackType_t ) ) ); /*lint !e961 MISRA exception as the casts are only redundant for some ports. */
 8002cd0:	ea4f 0a82 	mov.w	sl, r2, lsl #2
	{
 8002cd4:	4680      	mov	r8, r0
			pxStack = ( StackType_t * ) pvPortMalloc( ( ( ( size_t ) usStackDepth ) * sizeof( StackType_t ) ) ); /*lint !e961 MISRA exception as the casts are only redundant for some ports. */
 8002cd6:	4650      	mov	r0, sl
	{
 8002cd8:	460f      	mov	r7, r1
 8002cda:	4699      	mov	r9, r3
 8002cdc:	9e0b      	ldr	r6, [sp, #44]	; 0x2c
			pxStack = ( StackType_t * ) pvPortMalloc( ( ( ( size_t ) usStackDepth ) * sizeof( StackType_t ) ) ); /*lint !e961 MISRA exception as the casts are only redundant for some ports. */
 8002cde:	f7ff fc0f 	bl	8002500 <pvPortMalloc>
			if( pxStack != NULL )
 8002ce2:	4605      	mov	r5, r0
 8002ce4:	2800      	cmp	r0, #0
 8002ce6:	f000 8096 	beq.w	8002e16 <xTaskCreate+0x14a>
				pxNewTCB = ( TCB_t * ) pvPortMalloc( sizeof( TCB_t ) ); /*lint !e961 MISRA exception as the casts are only redundant for some paths. */
 8002cea:	2054      	movs	r0, #84	; 0x54
 8002cec:	f7ff fc08 	bl	8002500 <pvPortMalloc>
				if( pxNewTCB != NULL )
 8002cf0:	4604      	mov	r4, r0
 8002cf2:	2800      	cmp	r0, #0
 8002cf4:	f000 808c 	beq.w	8002e10 <xTaskCreate+0x144>
		pxTopOfStack = pxNewTCB->pxStack + ( ulStackDepth - ( uint32_t ) 1 );
 8002cf8:	f1aa 0a04 	sub.w	sl, sl, #4
					pxNewTCB->pxStack = pxStack;
 8002cfc:	6305      	str	r5, [r0, #48]	; 0x30
		pxTopOfStack = pxNewTCB->pxStack + ( ulStackDepth - ( uint32_t ) 1 );
 8002cfe:	4455      	add	r5, sl
 8002d00:	1e7b      	subs	r3, r7, #1
		pxTopOfStack = ( StackType_t * ) ( ( ( portPOINTER_SIZE_TYPE ) pxTopOfStack ) & ( ~( ( portPOINTER_SIZE_TYPE ) portBYTE_ALIGNMENT_MASK ) ) ); /*lint !e923 MISRA exception.  Avoiding casts between pointers and integers is not practical.  Size differences accounted for using portPOINTER_SIZE_TYPE type. */
 8002d02:	f025 0a07 	bic.w	sl, r5, #7
 8002d06:	f100 0234 	add.w	r2, r0, #52	; 0x34
 8002d0a:	370f      	adds	r7, #15
		pxNewTCB->pcTaskName[ x ] = pcName[ x ];
 8002d0c:	7859      	ldrb	r1, [r3, #1]
 8002d0e:	f802 1b01 	strb.w	r1, [r2], #1
		if( pcName[ x ] == 0x00 )
 8002d12:	f813 1f01 	ldrb.w	r1, [r3, #1]!
 8002d16:	b109      	cbz	r1, 8002d1c <xTaskCreate+0x50>
	for( x = ( UBaseType_t ) 0; x < ( UBaseType_t ) configMAX_TASK_NAME_LEN; x++ )
 8002d18:	42bb      	cmp	r3, r7
 8002d1a:	d1f7      	bne.n	8002d0c <xTaskCreate+0x40>
 8002d1c:	9d0a      	ldr	r5, [sp, #40]	; 0x28
	pxNewTCB->pcTaskName[ configMAX_TASK_NAME_LEN - 1 ] = '\0';
 8002d1e:	f04f 0b00 	mov.w	fp, #0
 8002d22:	2d06      	cmp	r5, #6
 8002d24:	bf28      	it	cs
 8002d26:	2506      	movcs	r5, #6
	vListInitialiseItem( &( pxNewTCB->xStateListItem ) );
 8002d28:	1d27      	adds	r7, r4, #4
	pxNewTCB->uxPriority = uxPriority;
 8002d2a:	62e5      	str	r5, [r4, #44]	; 0x2c
		pxNewTCB->uxBasePriority = uxPriority;
 8002d2c:	6465      	str	r5, [r4, #68]	; 0x44
	vListInitialiseItem( &( pxNewTCB->xStateListItem ) );
 8002d2e:	4638      	mov	r0, r7
	pxNewTCB->pcTaskName[ configMAX_TASK_NAME_LEN - 1 ] = '\0';
 8002d30:	f884 b043 	strb.w	fp, [r4, #67]	; 0x43
		pxNewTCB->uxMutexesHeld = 0;
 8002d34:	f8c4 b048 	str.w	fp, [r4, #72]	; 0x48
	vListInitialiseItem( &( pxNewTCB->xStateListItem ) );
 8002d38:	f7ff fa40 	bl	80021bc <vListInitialiseItem>
	listSET_LIST_ITEM_VALUE( &( pxNewTCB->xEventListItem ), ( TickType_t ) configMAX_PRIORITIES - ( TickType_t ) uxPriority ); /*lint !e961 MISRA exception as the casts are only redundant for some ports. */
 8002d3c:	f1c5 0507 	rsb	r5, r5, #7
	vListInitialiseItem( &( pxNewTCB->xEventListItem ) );
 8002d40:	f104 0018 	add.w	r0, r4, #24
 8002d44:	f7ff fa3a 	bl	80021bc <vListInitialiseItem>
		pxNewTCB->ulNotifiedValue = 0;
 8002d48:	f8c4 b04c 	str.w	fp, [r4, #76]	; 0x4c
	listSET_LIST_ITEM_OWNER( &( pxNewTCB->xStateListItem ), pxNewTCB );
 8002d4c:	6124      	str	r4, [r4, #16]
	listSET_LIST_ITEM_VALUE( &( pxNewTCB->xEventListItem ), ( TickType_t ) configMAX_PRIORITIES - ( TickType_t ) uxPriority ); /*lint !e961 MISRA exception as the casts are only redundant for some ports. */
 8002d4e:	61a5      	str	r5, [r4, #24]
	listSET_LIST_ITEM_OWNER( &( pxNewTCB->xEventListItem ), pxNewTCB );
 8002d50:	6264      	str	r4, [r4, #36]	; 0x24
		pxNewTCB->ucNotifyState = taskNOT_WAITING_NOTIFICATION;
 8002d52:	f884 b050 	strb.w	fp, [r4, #80]	; 0x50
		pxNewTCB->pxTopOfStack = pxPortInitialiseStack( pxTopOfStack, pxTaskCode, pvParameters );
 8002d56:	464a      	mov	r2, r9
 8002d58:	4641      	mov	r1, r8
 8002d5a:	4650      	mov	r0, sl
 8002d5c:	f7ff fa8c 	bl	8002278 <pxPortInitialiseStack>
 8002d60:	6020      	str	r0, [r4, #0]
	if( ( void * ) pxCreatedTask != NULL )
 8002d62:	b106      	cbz	r6, 8002d66 <xTaskCreate+0x9a>
		*pxCreatedTask = ( TaskHandle_t ) pxNewTCB;
 8002d64:	6034      	str	r4, [r6, #0]
	taskENTER_CRITICAL();
 8002d66:	f7ff faad 	bl	80022c4 <vPortEnterCritical>
		uxCurrentNumberOfTasks++;
 8002d6a:	4b32      	ldr	r3, [pc, #200]	; (8002e34 <xTaskCreate+0x168>)
		if( pxCurrentTCB == NULL )
 8002d6c:	4e32      	ldr	r6, [pc, #200]	; (8002e38 <xTaskCreate+0x16c>)
		uxCurrentNumberOfTasks++;
 8002d6e:	681a      	ldr	r2, [r3, #0]
 8002d70:	f8df 80f0 	ldr.w	r8, [pc, #240]	; 8002e64 <xTaskCreate+0x198>
 8002d74:	3201      	adds	r2, #1
 8002d76:	601a      	str	r2, [r3, #0]
		if( pxCurrentTCB == NULL )
 8002d78:	6835      	ldr	r5, [r6, #0]
 8002d7a:	2d00      	cmp	r5, #0
 8002d7c:	d14e      	bne.n	8002e1c <xTaskCreate+0x150>
			pxCurrentTCB = pxNewTCB;
 8002d7e:	6034      	str	r4, [r6, #0]
			if( uxCurrentNumberOfTasks == ( UBaseType_t ) 1 )
 8002d80:	681b      	ldr	r3, [r3, #0]
 8002d82:	2b01      	cmp	r3, #1
 8002d84:	d11d      	bne.n	8002dc2 <xTaskCreate+0xf6>
		vListInitialise( &( pxReadyTasksLists[ uxPriority ] ) );
 8002d86:	eb08 0005 	add.w	r0, r8, r5
 8002d8a:	3514      	adds	r5, #20
 8002d8c:	f7ff fa0b 	bl	80021a6 <vListInitialise>
	for( uxPriority = ( UBaseType_t ) 0U; uxPriority < ( UBaseType_t ) configMAX_PRIORITIES; uxPriority++ )
 8002d90:	2d8c      	cmp	r5, #140	; 0x8c
 8002d92:	d1f8      	bne.n	8002d86 <xTaskCreate+0xba>
	vListInitialise( &xDelayedTaskList1 );
 8002d94:	f8df 90d0 	ldr.w	r9, [pc, #208]	; 8002e68 <xTaskCreate+0x19c>
	vListInitialise( &xDelayedTaskList2 );
 8002d98:	4d28      	ldr	r5, [pc, #160]	; (8002e3c <xTaskCreate+0x170>)
	vListInitialise( &xDelayedTaskList1 );
 8002d9a:	4648      	mov	r0, r9
 8002d9c:	f7ff fa03 	bl	80021a6 <vListInitialise>
	vListInitialise( &xDelayedTaskList2 );
 8002da0:	4628      	mov	r0, r5
 8002da2:	f7ff fa00 	bl	80021a6 <vListInitialise>
	vListInitialise( &xPendingReadyList );
 8002da6:	4826      	ldr	r0, [pc, #152]	; (8002e40 <xTaskCreate+0x174>)
 8002da8:	f7ff f9fd 	bl	80021a6 <vListInitialise>
		vListInitialise( &xTasksWaitingTermination );
 8002dac:	4825      	ldr	r0, [pc, #148]	; (8002e44 <xTaskCreate+0x178>)
 8002dae:	f7ff f9fa 	bl	80021a6 <vListInitialise>
		vListInitialise( &xSuspendedTaskList );
 8002db2:	4825      	ldr	r0, [pc, #148]	; (8002e48 <xTaskCreate+0x17c>)
 8002db4:	f7ff f9f7 	bl	80021a6 <vListInitialise>
	pxDelayedTaskList = &xDelayedTaskList1;
 8002db8:	4b24      	ldr	r3, [pc, #144]	; (8002e4c <xTaskCreate+0x180>)
 8002dba:	f8c3 9000 	str.w	r9, [r3]
	pxOverflowDelayedTaskList = &xDelayedTaskList2;
 8002dbe:	4b24      	ldr	r3, [pc, #144]	; (8002e50 <xTaskCreate+0x184>)
 8002dc0:	601d      	str	r5, [r3, #0]
		prvAddTaskToReadyList( pxNewTCB );
 8002dc2:	2501      	movs	r5, #1
		uxTaskNumber++;
 8002dc4:	4a23      	ldr	r2, [pc, #140]	; (8002e54 <xTaskCreate+0x188>)
		prvAddTaskToReadyList( pxNewTCB );
 8002dc6:	4924      	ldr	r1, [pc, #144]	; (8002e58 <xTaskCreate+0x18c>)
		uxTaskNumber++;
 8002dc8:	6813      	ldr	r3, [r2, #0]
		prvAddTaskToReadyList( pxNewTCB );
 8002dca:	6808      	ldr	r0, [r1, #0]
		uxTaskNumber++;
 8002dcc:	3301      	adds	r3, #1
 8002dce:	6013      	str	r3, [r2, #0]
		prvAddTaskToReadyList( pxNewTCB );
 8002dd0:	6ae2      	ldr	r2, [r4, #44]	; 0x2c
 8002dd2:	fa05 f302 	lsl.w	r3, r5, r2
 8002dd6:	4303      	orrs	r3, r0
 8002dd8:	2014      	movs	r0, #20
 8002dda:	600b      	str	r3, [r1, #0]
 8002ddc:	fb00 8002 	mla	r0, r0, r2, r8
 8002de0:	4639      	mov	r1, r7
 8002de2:	f7ff f9ee 	bl	80021c2 <vListInsertEnd>
	taskEXIT_CRITICAL();
 8002de6:	f7ff fa8f 	bl	8002308 <vPortExitCritical>
	if( xSchedulerRunning != pdFALSE )
 8002dea:	4b1c      	ldr	r3, [pc, #112]	; (8002e5c <xTaskCreate+0x190>)
 8002dec:	681b      	ldr	r3, [r3, #0]
 8002dee:	b163      	cbz	r3, 8002e0a <xTaskCreate+0x13e>
		if( pxCurrentTCB->uxPriority < pxNewTCB->uxPriority )
 8002df0:	6833      	ldr	r3, [r6, #0]
 8002df2:	6ada      	ldr	r2, [r3, #44]	; 0x2c
 8002df4:	6ae3      	ldr	r3, [r4, #44]	; 0x2c
 8002df6:	429a      	cmp	r2, r3
 8002df8:	d207      	bcs.n	8002e0a <xTaskCreate+0x13e>
			taskYIELD_IF_USING_PREEMPTION();
 8002dfa:	f04f 5280 	mov.w	r2, #268435456	; 0x10000000
 8002dfe:	4b18      	ldr	r3, [pc, #96]	; (8002e60 <xTaskCreate+0x194>)
 8002e00:	601a      	str	r2, [r3, #0]
 8002e02:	f3bf 8f4f 	dsb	sy
 8002e06:	f3bf 8f6f 	isb	sy
	}
 8002e0a:	4628      	mov	r0, r5
 8002e0c:	e8bd 8ff8 	ldmia.w	sp!, {r3, r4, r5, r6, r7, r8, r9, sl, fp, pc}
					vPortFree( pxStack );
 8002e10:	4628      	mov	r0, r5
 8002e12:	f7ff fc03 	bl	800261c <vPortFree>
			xReturn = errCOULD_NOT_ALLOCATE_REQUIRED_MEMORY;
 8002e16:	f04f 35ff 	mov.w	r5, #4294967295
 8002e1a:	e7f6      	b.n	8002e0a <xTaskCreate+0x13e>
			if( xSchedulerRunning == pdFALSE )
 8002e1c:	4b0f      	ldr	r3, [pc, #60]	; (8002e5c <xTaskCreate+0x190>)
 8002e1e:	681b      	ldr	r3, [r3, #0]
 8002e20:	2b00      	cmp	r3, #0
 8002e22:	d1ce      	bne.n	8002dc2 <xTaskCreate+0xf6>
				if( pxCurrentTCB->uxPriority <= pxNewTCB->uxPriority )
 8002e24:	6833      	ldr	r3, [r6, #0]
 8002e26:	6ada      	ldr	r2, [r3, #44]	; 0x2c
 8002e28:	6ae3      	ldr	r3, [r4, #44]	; 0x2c
 8002e2a:	429a      	cmp	r2, r3
					pxCurrentTCB = pxNewTCB;
 8002e2c:	bf98      	it	ls
 8002e2e:	6034      	strls	r4, [r6, #0]
 8002e30:	e7c7      	b.n	8002dc2 <xTaskCreate+0xf6>
 8002e32:	bf00      	nop
 8002e34:	200050d4 	.word	0x200050d4
 8002e38:	2000503c 	.word	0x2000503c
 8002e3c:	20005100 	.word	0x20005100
 8002e40:	20005120 	.word	0x20005120
 8002e44:	2000514c 	.word	0x2000514c
 8002e48:	20005138 	.word	0x20005138
 8002e4c:	20005040 	.word	0x20005040
 8002e50:	20005044 	.word	0x20005044
 8002e54:	200050e4 	.word	0x200050e4
 8002e58:	200050e8 	.word	0x200050e8
 8002e5c:	20005134 	.word	0x20005134
 8002e60:	e000ed04 	.word	0xe000ed04
 8002e64:	20005048 	.word	0x20005048
 8002e68:	200050ec 	.word	0x200050ec

08002e6c <vTaskStartScheduler>:
{
 8002e6c:	b513      	push	{r0, r1, r4, lr}
		xReturn = xTaskCreate(	prvIdleTask,
 8002e6e:	2400      	movs	r4, #0
 8002e70:	4b16      	ldr	r3, [pc, #88]	; (8002ecc <vTaskStartScheduler+0x60>)
 8002e72:	9400      	str	r4, [sp, #0]
 8002e74:	9301      	str	r3, [sp, #4]
 8002e76:	2280      	movs	r2, #128	; 0x80
 8002e78:	4623      	mov	r3, r4
 8002e7a:	4915      	ldr	r1, [pc, #84]	; (8002ed0 <vTaskStartScheduler+0x64>)
 8002e7c:	4815      	ldr	r0, [pc, #84]	; (8002ed4 <vTaskStartScheduler+0x68>)
 8002e7e:	f7ff ff25 	bl	8002ccc <xTaskCreate>
	if( xReturn == pdPASS )
 8002e82:	2801      	cmp	r0, #1
 8002e84:	d114      	bne.n	8002eb0 <vTaskStartScheduler+0x44>
 8002e86:	f04f 0350 	mov.w	r3, #80	; 0x50
 8002e8a:	f383 8811 	msr	BASEPRI, r3
 8002e8e:	f3bf 8f6f 	isb	sy
 8002e92:	f3bf 8f4f 	dsb	sy
		xNextTaskUnblockTime = portMAX_DELAY;
 8002e96:	f04f 32ff 	mov.w	r2, #4294967295
 8002e9a:	4b0f      	ldr	r3, [pc, #60]	; (8002ed8 <vTaskStartScheduler+0x6c>)
 8002e9c:	601a      	str	r2, [r3, #0]
		xSchedulerRunning = pdTRUE;
 8002e9e:	4b0f      	ldr	r3, [pc, #60]	; (8002edc <vTaskStartScheduler+0x70>)
 8002ea0:	6018      	str	r0, [r3, #0]
		xTickCount = ( TickType_t ) 0U;
 8002ea2:	4b0f      	ldr	r3, [pc, #60]	; (8002ee0 <vTaskStartScheduler+0x74>)
 8002ea4:	601c      	str	r4, [r3, #0]
}
 8002ea6:	b002      	add	sp, #8
 8002ea8:	e8bd 4010 	ldmia.w	sp!, {r4, lr}
		if( xPortStartScheduler() != pdFALSE )
 8002eac:	f7ff ba8c 	b.w	80023c8 <xPortStartScheduler>
		configASSERT( xReturn != errCOULD_NOT_ALLOCATE_REQUIRED_MEMORY );
 8002eb0:	3001      	adds	r0, #1
 8002eb2:	d108      	bne.n	8002ec6 <vTaskStartScheduler+0x5a>
 8002eb4:	f04f 0350 	mov.w	r3, #80	; 0x50
 8002eb8:	f383 8811 	msr	BASEPRI, r3
 8002ebc:	f3bf 8f6f 	isb	sy
 8002ec0:	f3bf 8f4f 	dsb	sy
 8002ec4:	e7fe      	b.n	8002ec4 <vTaskStartScheduler+0x58>
}
 8002ec6:	b002      	add	sp, #8
 8002ec8:	bd10      	pop	{r4, pc}
 8002eca:	bf00      	nop
 8002ecc:	20005114 	.word	0x20005114
 8002ed0:	08005608 	.word	0x08005608
 8002ed4:	08003151 	.word	0x08003151
 8002ed8:	20005118 	.word	0x20005118
 8002edc:	20005134 	.word	0x20005134
 8002ee0:	20005160 	.word	0x20005160

08002ee4 <vTaskSuspendAll>:
	++uxSchedulerSuspended;
 8002ee4:	4a02      	ldr	r2, [pc, #8]	; (8002ef0 <vTaskSuspendAll+0xc>)
 8002ee6:	6813      	ldr	r3, [r2, #0]
 8002ee8:	3301      	adds	r3, #1
 8002eea:	6013      	str	r3, [r2, #0]
 8002eec:	4770      	bx	lr
 8002eee:	bf00      	nop
 8002ef0:	200050e0 	.word	0x200050e0

08002ef4 <xTaskIncrementTick>:
{
 8002ef4:	e92d 4ff8 	stmdb	sp!, {r3, r4, r5, r6, r7, r8, r9, sl, fp, lr}
	if( uxSchedulerSuspended == ( UBaseType_t ) pdFALSE )
 8002ef8:	4b3c      	ldr	r3, [pc, #240]	; (8002fec <xTaskIncrementTick+0xf8>)
 8002efa:	681b      	ldr	r3, [r3, #0]
 8002efc:	2b00      	cmp	r3, #0
 8002efe:	d153      	bne.n	8002fa8 <xTaskIncrementTick+0xb4>
		const TickType_t xConstTickCount = xTickCount + 1;
 8002f00:	4b3b      	ldr	r3, [pc, #236]	; (8002ff0 <xTaskIncrementTick+0xfc>)
 8002f02:	681c      	ldr	r4, [r3, #0]
 8002f04:	3401      	adds	r4, #1
		xTickCount = xConstTickCount;
 8002f06:	601c      	str	r4, [r3, #0]
		if( xConstTickCount == ( TickType_t ) 0U )
 8002f08:	b9bc      	cbnz	r4, 8002f3a <xTaskIncrementTick+0x46>
			taskSWITCH_DELAYED_LISTS();
 8002f0a:	4b3a      	ldr	r3, [pc, #232]	; (8002ff4 <xTaskIncrementTick+0x100>)
 8002f0c:	681a      	ldr	r2, [r3, #0]
 8002f0e:	6812      	ldr	r2, [r2, #0]
 8002f10:	b142      	cbz	r2, 8002f24 <xTaskIncrementTick+0x30>
 8002f12:	f04f 0350 	mov.w	r3, #80	; 0x50
 8002f16:	f383 8811 	msr	BASEPRI, r3
 8002f1a:	f3bf 8f6f 	isb	sy
 8002f1e:	f3bf 8f4f 	dsb	sy
 8002f22:	e7fe      	b.n	8002f22 <xTaskIncrementTick+0x2e>
 8002f24:	4a34      	ldr	r2, [pc, #208]	; (8002ff8 <xTaskIncrementTick+0x104>)
 8002f26:	6819      	ldr	r1, [r3, #0]
 8002f28:	6810      	ldr	r0, [r2, #0]
 8002f2a:	6018      	str	r0, [r3, #0]
 8002f2c:	6011      	str	r1, [r2, #0]
 8002f2e:	4a33      	ldr	r2, [pc, #204]	; (8002ffc <xTaskIncrementTick+0x108>)
 8002f30:	6813      	ldr	r3, [r2, #0]
 8002f32:	3301      	adds	r3, #1
 8002f34:	6013      	str	r3, [r2, #0]
 8002f36:	f7ff fe67 	bl	8002c08 <prvResetNextTaskUnblockTime>
		if( xConstTickCount >= xNextTaskUnblockTime )
 8002f3a:	4d31      	ldr	r5, [pc, #196]	; (8003000 <xTaskIncrementTick+0x10c>)
 8002f3c:	f04f 0b00 	mov.w	fp, #0
 8002f40:	682b      	ldr	r3, [r5, #0]
 8002f42:	4f30      	ldr	r7, [pc, #192]	; (8003004 <xTaskIncrementTick+0x110>)
 8002f44:	429c      	cmp	r4, r3
 8002f46:	d33e      	bcc.n	8002fc6 <xTaskIncrementTick+0xd2>
				if( listLIST_IS_EMPTY( pxDelayedTaskList ) != pdFALSE )
 8002f48:	f8df 80a8 	ldr.w	r8, [pc, #168]	; 8002ff4 <xTaskIncrementTick+0x100>
					prvAddTaskToReadyList( pxTCB );
 8002f4c:	f8df 90c4 	ldr.w	r9, [pc, #196]	; 8003014 <xTaskIncrementTick+0x120>
				if( listLIST_IS_EMPTY( pxDelayedTaskList ) != pdFALSE )
 8002f50:	f8d8 2000 	ldr.w	r2, [r8]
 8002f54:	6812      	ldr	r2, [r2, #0]
 8002f56:	bb72      	cbnz	r2, 8002fb6 <xTaskIncrementTick+0xc2>
					xNextTaskUnblockTime = portMAX_DELAY; /*lint !e961 MISRA exception as the casts are only redundant for some ports. */
 8002f58:	f04f 32ff 	mov.w	r2, #4294967295
 8002f5c:	602a      	str	r2, [r5, #0]
					break;
 8002f5e:	e032      	b.n	8002fc6 <xTaskIncrementTick+0xd2>
					( void ) uxListRemove( &( pxTCB->xStateListItem ) );
 8002f60:	f106 0a04 	add.w	sl, r6, #4
 8002f64:	4650      	mov	r0, sl
 8002f66:	f7ff f94f 	bl	8002208 <uxListRemove>
					if( listLIST_ITEM_CONTAINER( &( pxTCB->xEventListItem ) ) != NULL )
 8002f6a:	6ab1      	ldr	r1, [r6, #40]	; 0x28
 8002f6c:	b119      	cbz	r1, 8002f76 <xTaskIncrementTick+0x82>
						( void ) uxListRemove( &( pxTCB->xEventListItem ) );
 8002f6e:	f106 0018 	add.w	r0, r6, #24
 8002f72:	f7ff f949 	bl	8002208 <uxListRemove>
					prvAddTaskToReadyList( pxTCB );
 8002f76:	2201      	movs	r2, #1
 8002f78:	f04f 0e14 	mov.w	lr, #20
 8002f7c:	6af0      	ldr	r0, [r6, #44]	; 0x2c
 8002f7e:	f8d9 3000 	ldr.w	r3, [r9]
 8002f82:	fa02 f100 	lsl.w	r1, r2, r0
 8002f86:	4319      	orrs	r1, r3
 8002f88:	4b1f      	ldr	r3, [pc, #124]	; (8003008 <xTaskIncrementTick+0x114>)
 8002f8a:	f8c9 1000 	str.w	r1, [r9]
 8002f8e:	fb0e 3000 	mla	r0, lr, r0, r3
 8002f92:	4651      	mov	r1, sl
 8002f94:	f7ff f915 	bl	80021c2 <vListInsertEnd>
						if( pxTCB->uxPriority >= pxCurrentTCB->uxPriority )
 8002f98:	6838      	ldr	r0, [r7, #0]
 8002f9a:	6af1      	ldr	r1, [r6, #44]	; 0x2c
 8002f9c:	6ac2      	ldr	r2, [r0, #44]	; 0x2c
							xSwitchRequired = pdTRUE;
 8002f9e:	4291      	cmp	r1, r2
 8002fa0:	bf28      	it	cs
 8002fa2:	f04f 0b01 	movcs.w	fp, #1
 8002fa6:	e7d3      	b.n	8002f50 <xTaskIncrementTick+0x5c>
		++uxPendedTicks;
 8002fa8:	4a18      	ldr	r2, [pc, #96]	; (800300c <xTaskIncrementTick+0x118>)
BaseType_t xSwitchRequired = pdFALSE;
 8002faa:	f04f 0b00 	mov.w	fp, #0
		++uxPendedTicks;
 8002fae:	6813      	ldr	r3, [r2, #0]
 8002fb0:	3301      	adds	r3, #1
 8002fb2:	6013      	str	r3, [r2, #0]
 8002fb4:	e011      	b.n	8002fda <xTaskIncrementTick+0xe6>
					pxTCB = ( TCB_t * ) listGET_OWNER_OF_HEAD_ENTRY( pxDelayedTaskList );
 8002fb6:	f8d8 2000 	ldr.w	r2, [r8]
 8002fba:	68d2      	ldr	r2, [r2, #12]
 8002fbc:	68d6      	ldr	r6, [r2, #12]
					xItemValue = listGET_LIST_ITEM_VALUE( &( pxTCB->xStateListItem ) );
 8002fbe:	6871      	ldr	r1, [r6, #4]
					if( xConstTickCount < xItemValue )
 8002fc0:	428c      	cmp	r4, r1
 8002fc2:	d2cd      	bcs.n	8002f60 <xTaskIncrementTick+0x6c>
						xNextTaskUnblockTime = xItemValue;
 8002fc4:	6029      	str	r1, [r5, #0]
			if( listCURRENT_LIST_LENGTH( &( pxReadyTasksLists[ pxCurrentTCB->uxPriority ] ) ) > ( UBaseType_t ) 1 )
 8002fc6:	683a      	ldr	r2, [r7, #0]
 8002fc8:	4b0f      	ldr	r3, [pc, #60]	; (8003008 <xTaskIncrementTick+0x114>)
 8002fca:	6ad1      	ldr	r1, [r2, #44]	; 0x2c
 8002fcc:	2214      	movs	r2, #20
 8002fce:	434a      	muls	r2, r1
 8002fd0:	589a      	ldr	r2, [r3, r2]
				xSwitchRequired = pdTRUE;
 8002fd2:	2a02      	cmp	r2, #2
 8002fd4:	bf28      	it	cs
 8002fd6:	f04f 0b01 	movcs.w	fp, #1
		if( xYieldPending != pdFALSE )
 8002fda:	4a0d      	ldr	r2, [pc, #52]	; (8003010 <xTaskIncrementTick+0x11c>)
 8002fdc:	6812      	ldr	r2, [r2, #0]
			xSwitchRequired = pdTRUE;
 8002fde:	2a00      	cmp	r2, #0
 8002fe0:	bf18      	it	ne
 8002fe2:	f04f 0b01 	movne.w	fp, #1
}
 8002fe6:	4658      	mov	r0, fp
 8002fe8:	e8bd 8ff8 	ldmia.w	sp!, {r3, r4, r5, r6, r7, r8, r9, sl, fp, pc}
 8002fec:	200050e0 	.word	0x200050e0
 8002ff0:	20005160 	.word	0x20005160
 8002ff4:	20005040 	.word	0x20005040
 8002ff8:	20005044 	.word	0x20005044
 8002ffc:	2000511c 	.word	0x2000511c
 8003000:	20005118 	.word	0x20005118
 8003004:	2000503c 	.word	0x2000503c
 8003008:	20005048 	.word	0x20005048
 800300c:	200050dc 	.word	0x200050dc
 8003010:	20005164 	.word	0x20005164
 8003014:	200050e8 	.word	0x200050e8

08003018 <xTaskResumeAll>:
{
 8003018:	e92d 43f8 	stmdb	sp!, {r3, r4, r5, r6, r7, r8, r9, lr}
	configASSERT( uxSchedulerSuspended );
 800301c:	4c31      	ldr	r4, [pc, #196]	; (80030e4 <xTaskResumeAll+0xcc>)
 800301e:	6823      	ldr	r3, [r4, #0]
 8003020:	b943      	cbnz	r3, 8003034 <xTaskResumeAll+0x1c>
 8003022:	f04f 0350 	mov.w	r3, #80	; 0x50
 8003026:	f383 8811 	msr	BASEPRI, r3
 800302a:	f3bf 8f6f 	isb	sy
 800302e:	f3bf 8f4f 	dsb	sy
 8003032:	e7fe      	b.n	8003032 <xTaskResumeAll+0x1a>
	taskENTER_CRITICAL();
 8003034:	f7ff f946 	bl	80022c4 <vPortEnterCritical>
		--uxSchedulerSuspended;
 8003038:	6823      	ldr	r3, [r4, #0]
 800303a:	3b01      	subs	r3, #1
 800303c:	6023      	str	r3, [r4, #0]
		if( uxSchedulerSuspended == ( UBaseType_t ) pdFALSE )
 800303e:	6824      	ldr	r4, [r4, #0]
 8003040:	b12c      	cbz	r4, 800304e <xTaskResumeAll+0x36>
BaseType_t xAlreadyYielded = pdFALSE;
 8003042:	2400      	movs	r4, #0
	taskEXIT_CRITICAL();
 8003044:	f7ff f960 	bl	8002308 <vPortExitCritical>
}
 8003048:	4620      	mov	r0, r4
 800304a:	e8bd 83f8 	ldmia.w	sp!, {r3, r4, r5, r6, r7, r8, r9, pc}
			if( uxCurrentNumberOfTasks > ( UBaseType_t ) 0U )
 800304e:	4b26      	ldr	r3, [pc, #152]	; (80030e8 <xTaskResumeAll+0xd0>)
 8003050:	681b      	ldr	r3, [r3, #0]
 8003052:	2b00      	cmp	r3, #0
 8003054:	d0f5      	beq.n	8003042 <xTaskResumeAll+0x2a>
				while( listLIST_IS_EMPTY( &xPendingReadyList ) == pdFALSE )
 8003056:	f8df 90a8 	ldr.w	r9, [pc, #168]	; 8003100 <xTaskResumeAll+0xe8>
					prvAddTaskToReadyList( pxTCB );
 800305a:	4f24      	ldr	r7, [pc, #144]	; (80030ec <xTaskResumeAll+0xd4>)
 800305c:	f8df 80a4 	ldr.w	r8, [pc, #164]	; 8003104 <xTaskResumeAll+0xec>
				while( listLIST_IS_EMPTY( &xPendingReadyList ) == pdFALSE )
 8003060:	f8d9 3000 	ldr.w	r3, [r9]
 8003064:	b9e3      	cbnz	r3, 80030a0 <xTaskResumeAll+0x88>
				if( pxTCB != NULL )
 8003066:	b10c      	cbz	r4, 800306c <xTaskResumeAll+0x54>
					prvResetNextTaskUnblockTime();
 8003068:	f7ff fdce 	bl	8002c08 <prvResetNextTaskUnblockTime>
					UBaseType_t uxPendedCounts = uxPendedTicks; /* Non-volatile copy. */
 800306c:	4d20      	ldr	r5, [pc, #128]	; (80030f0 <xTaskResumeAll+0xd8>)
 800306e:	682c      	ldr	r4, [r5, #0]
					if( uxPendedCounts > ( UBaseType_t ) 0U )
 8003070:	b144      	cbz	r4, 8003084 <xTaskResumeAll+0x6c>
								xYieldPending = pdTRUE;
 8003072:	2701      	movs	r7, #1
 8003074:	4e1f      	ldr	r6, [pc, #124]	; (80030f4 <xTaskResumeAll+0xdc>)
							if( xTaskIncrementTick() != pdFALSE )
 8003076:	f7ff ff3d 	bl	8002ef4 <xTaskIncrementTick>
 800307a:	b100      	cbz	r0, 800307e <xTaskResumeAll+0x66>
								xYieldPending = pdTRUE;
 800307c:	6037      	str	r7, [r6, #0]
						} while( uxPendedCounts > ( UBaseType_t ) 0U );
 800307e:	3c01      	subs	r4, #1
 8003080:	d1f9      	bne.n	8003076 <xTaskResumeAll+0x5e>
						uxPendedTicks = 0;
 8003082:	602c      	str	r4, [r5, #0]
				if( xYieldPending != pdFALSE )
 8003084:	4b1b      	ldr	r3, [pc, #108]	; (80030f4 <xTaskResumeAll+0xdc>)
 8003086:	681b      	ldr	r3, [r3, #0]
 8003088:	2b00      	cmp	r3, #0
 800308a:	d0da      	beq.n	8003042 <xTaskResumeAll+0x2a>
					taskYIELD_IF_USING_PREEMPTION();
 800308c:	f04f 5280 	mov.w	r2, #268435456	; 0x10000000
 8003090:	4b19      	ldr	r3, [pc, #100]	; (80030f8 <xTaskResumeAll+0xe0>)
 8003092:	601a      	str	r2, [r3, #0]
 8003094:	f3bf 8f4f 	dsb	sy
 8003098:	f3bf 8f6f 	isb	sy
						xAlreadyYielded = pdTRUE;
 800309c:	2401      	movs	r4, #1
 800309e:	e7d1      	b.n	8003044 <xTaskResumeAll+0x2c>
					pxTCB = ( TCB_t * ) listGET_OWNER_OF_HEAD_ENTRY( ( &xPendingReadyList ) );
 80030a0:	f8d9 300c 	ldr.w	r3, [r9, #12]
					prvAddTaskToReadyList( pxTCB );
 80030a4:	2501      	movs	r5, #1
					pxTCB = ( TCB_t * ) listGET_OWNER_OF_HEAD_ENTRY( ( &xPendingReadyList ) );
 80030a6:	68dc      	ldr	r4, [r3, #12]
					( void ) uxListRemove( &( pxTCB->xStateListItem ) );
 80030a8:	1d26      	adds	r6, r4, #4
					( void ) uxListRemove( &( pxTCB->xEventListItem ) );
 80030aa:	f104 0018 	add.w	r0, r4, #24
 80030ae:	f7ff f8ab 	bl	8002208 <uxListRemove>
					( void ) uxListRemove( &( pxTCB->xStateListItem ) );
 80030b2:	4630      	mov	r0, r6
 80030b4:	f7ff f8a8 	bl	8002208 <uxListRemove>
					prvAddTaskToReadyList( pxTCB );
 80030b8:	2014      	movs	r0, #20
 80030ba:	6ae2      	ldr	r2, [r4, #44]	; 0x2c
 80030bc:	6839      	ldr	r1, [r7, #0]
 80030be:	fa05 f302 	lsl.w	r3, r5, r2
 80030c2:	430b      	orrs	r3, r1
 80030c4:	fb00 8002 	mla	r0, r0, r2, r8
 80030c8:	4631      	mov	r1, r6
 80030ca:	603b      	str	r3, [r7, #0]
 80030cc:	f7ff f879 	bl	80021c2 <vListInsertEnd>
					if( pxTCB->uxPriority >= pxCurrentTCB->uxPriority )
 80030d0:	4b0a      	ldr	r3, [pc, #40]	; (80030fc <xTaskResumeAll+0xe4>)
 80030d2:	6ae2      	ldr	r2, [r4, #44]	; 0x2c
 80030d4:	681b      	ldr	r3, [r3, #0]
 80030d6:	6adb      	ldr	r3, [r3, #44]	; 0x2c
 80030d8:	429a      	cmp	r2, r3
						xYieldPending = pdTRUE;
 80030da:	bf24      	itt	cs
 80030dc:	4b05      	ldrcs	r3, [pc, #20]	; (80030f4 <xTaskResumeAll+0xdc>)
 80030de:	601d      	strcs	r5, [r3, #0]
 80030e0:	e7be      	b.n	8003060 <xTaskResumeAll+0x48>
 80030e2:	bf00      	nop
 80030e4:	200050e0 	.word	0x200050e0
 80030e8:	200050d4 	.word	0x200050d4
 80030ec:	200050e8 	.word	0x200050e8
 80030f0:	200050dc 	.word	0x200050dc
 80030f4:	20005164 	.word	0x20005164
 80030f8:	e000ed04 	.word	0xe000ed04
 80030fc:	2000503c 	.word	0x2000503c
 8003100:	20005120 	.word	0x20005120
 8003104:	20005048 	.word	0x20005048

08003108 <vTaskDelay>:
	{
 8003108:	b508      	push	{r3, lr}
		if( xTicksToDelay > ( TickType_t ) 0U )
 800310a:	b940      	cbnz	r0, 800311e <vTaskDelay+0x16>
			portYIELD_WITHIN_API();
 800310c:	f04f 5280 	mov.w	r2, #268435456	; 0x10000000
 8003110:	4b0d      	ldr	r3, [pc, #52]	; (8003148 <vTaskDelay+0x40>)
 8003112:	601a      	str	r2, [r3, #0]
 8003114:	f3bf 8f4f 	dsb	sy
 8003118:	f3bf 8f6f 	isb	sy
 800311c:	bd08      	pop	{r3, pc}
			configASSERT( uxSchedulerSuspended == 0 );
 800311e:	4b0b      	ldr	r3, [pc, #44]	; (800314c <vTaskDelay+0x44>)
 8003120:	6819      	ldr	r1, [r3, #0]
 8003122:	b141      	cbz	r1, 8003136 <vTaskDelay+0x2e>
 8003124:	f04f 0350 	mov.w	r3, #80	; 0x50
 8003128:	f383 8811 	msr	BASEPRI, r3
 800312c:	f3bf 8f6f 	isb	sy
 8003130:	f3bf 8f4f 	dsb	sy
 8003134:	e7fe      	b.n	8003134 <vTaskDelay+0x2c>
			vTaskSuspendAll();
 8003136:	f7ff fed5 	bl	8002ee4 <vTaskSuspendAll>
				prvAddCurrentTaskToDelayedList( xTicksToDelay, pdFALSE );
 800313a:	f7ff fd77 	bl	8002c2c <prvAddCurrentTaskToDelayedList>
			xAlreadyYielded = xTaskResumeAll();
 800313e:	f7ff ff6b 	bl	8003018 <xTaskResumeAll>
		if( xAlreadyYielded == pdFALSE )
 8003142:	2800      	cmp	r0, #0
 8003144:	d0e2      	beq.n	800310c <vTaskDelay+0x4>
 8003146:	bd08      	pop	{r3, pc}
 8003148:	e000ed04 	.word	0xe000ed04
 800314c:	200050e0 	.word	0x200050e0

08003150 <prvIdleTask>:
{
 8003150:	b508      	push	{r3, lr}
				xListIsEmpty = listLIST_IS_EMPTY( &xTasksWaitingTermination );
 8003152:	4e17      	ldr	r6, [pc, #92]	; (80031b0 <prvIdleTask+0x60>)
		while( uxDeletedTasksWaitingCleanUp > ( UBaseType_t ) 0U )
 8003154:	4c17      	ldr	r4, [pc, #92]	; (80031b4 <prvIdleTask+0x64>)
 8003156:	6823      	ldr	r3, [r4, #0]
 8003158:	b963      	cbnz	r3, 8003174 <prvIdleTask+0x24>
			if( listCURRENT_LIST_LENGTH( &( pxReadyTasksLists[ tskIDLE_PRIORITY ] ) ) > ( UBaseType_t ) 1 )
 800315a:	4b17      	ldr	r3, [pc, #92]	; (80031b8 <prvIdleTask+0x68>)
 800315c:	681b      	ldr	r3, [r3, #0]
 800315e:	2b01      	cmp	r3, #1
 8003160:	d9f8      	bls.n	8003154 <prvIdleTask+0x4>
				taskYIELD();
 8003162:	f04f 5280 	mov.w	r2, #268435456	; 0x10000000
 8003166:	4b15      	ldr	r3, [pc, #84]	; (80031bc <prvIdleTask+0x6c>)
 8003168:	601a      	str	r2, [r3, #0]
 800316a:	f3bf 8f4f 	dsb	sy
 800316e:	f3bf 8f6f 	isb	sy
 8003172:	e7ef      	b.n	8003154 <prvIdleTask+0x4>
			vTaskSuspendAll();
 8003174:	f7ff feb6 	bl	8002ee4 <vTaskSuspendAll>
				xListIsEmpty = listLIST_IS_EMPTY( &xTasksWaitingTermination );
 8003178:	6835      	ldr	r5, [r6, #0]
			( void ) xTaskResumeAll();
 800317a:	f7ff ff4d 	bl	8003018 <xTaskResumeAll>
			if( xListIsEmpty == pdFALSE )
 800317e:	2d00      	cmp	r5, #0
 8003180:	d0e9      	beq.n	8003156 <prvIdleTask+0x6>
				taskENTER_CRITICAL();
 8003182:	f7ff f89f 	bl	80022c4 <vPortEnterCritical>
					pxTCB = ( TCB_t * ) listGET_OWNER_OF_HEAD_ENTRY( ( &xTasksWaitingTermination ) );
 8003186:	68f3      	ldr	r3, [r6, #12]
 8003188:	68dd      	ldr	r5, [r3, #12]
					( void ) uxListRemove( &( pxTCB->xStateListItem ) );
 800318a:	1d28      	adds	r0, r5, #4
 800318c:	f7ff f83c 	bl	8002208 <uxListRemove>
					--uxCurrentNumberOfTasks;
 8003190:	4a0b      	ldr	r2, [pc, #44]	; (80031c0 <prvIdleTask+0x70>)
 8003192:	6813      	ldr	r3, [r2, #0]
 8003194:	3b01      	subs	r3, #1
 8003196:	6013      	str	r3, [r2, #0]
					--uxDeletedTasksWaitingCleanUp;
 8003198:	6823      	ldr	r3, [r4, #0]
 800319a:	3b01      	subs	r3, #1
 800319c:	6023      	str	r3, [r4, #0]
				taskEXIT_CRITICAL();
 800319e:	f7ff f8b3 	bl	8002308 <vPortExitCritical>
			vPortFree( pxTCB->pxStack );
 80031a2:	6b28      	ldr	r0, [r5, #48]	; 0x30
 80031a4:	f7ff fa3a 	bl	800261c <vPortFree>
			vPortFree( pxTCB );
 80031a8:	4628      	mov	r0, r5
 80031aa:	f7ff fa37 	bl	800261c <vPortFree>
 80031ae:	e7d2      	b.n	8003156 <prvIdleTask+0x6>
 80031b0:	2000514c 	.word	0x2000514c
 80031b4:	200050d8 	.word	0x200050d8
 80031b8:	20005048 	.word	0x20005048
 80031bc:	e000ed04 	.word	0xe000ed04
 80031c0:	200050d4 	.word	0x200050d4

080031c4 <vTaskSwitchContext>:
	if( uxSchedulerSuspended != ( UBaseType_t ) pdFALSE )
 80031c4:	4b17      	ldr	r3, [pc, #92]	; (8003224 <vTaskSwitchContext+0x60>)
{
 80031c6:	b510      	push	{r4, lr}
	if( uxSchedulerSuspended != ( UBaseType_t ) pdFALSE )
 80031c8:	681a      	ldr	r2, [r3, #0]
 80031ca:	4b17      	ldr	r3, [pc, #92]	; (8003228 <vTaskSwitchContext+0x64>)
 80031cc:	b112      	cbz	r2, 80031d4 <vTaskSwitchContext+0x10>
		xYieldPending = pdTRUE;
 80031ce:	2201      	movs	r2, #1
		taskSELECT_HIGHEST_PRIORITY_TASK();
 80031d0:	601a      	str	r2, [r3, #0]
 80031d2:	bd10      	pop	{r4, pc}
		xYieldPending = pdFALSE;
 80031d4:	601a      	str	r2, [r3, #0]
		taskSELECT_HIGHEST_PRIORITY_TASK();
 80031d6:	4b15      	ldr	r3, [pc, #84]	; (800322c <vTaskSwitchContext+0x68>)
 80031d8:	681b      	ldr	r3, [r3, #0]
		__asm volatile ( "clz %0, %1" : "=r" ( ucReturn ) : "r" ( ulBitmap ) );
 80031da:	fab3 f383 	clz	r3, r3
 80031de:	2214      	movs	r2, #20
 80031e0:	b2db      	uxtb	r3, r3
 80031e2:	f1c3 031f 	rsb	r3, r3, #31
 80031e6:	435a      	muls	r2, r3
 80031e8:	4911      	ldr	r1, [pc, #68]	; (8003230 <vTaskSwitchContext+0x6c>)
 80031ea:	588c      	ldr	r4, [r1, r2]
 80031ec:	1888      	adds	r0, r1, r2
 80031ee:	b944      	cbnz	r4, 8003202 <vTaskSwitchContext+0x3e>
	__asm volatile
 80031f0:	f04f 0350 	mov.w	r3, #80	; 0x50
 80031f4:	f383 8811 	msr	BASEPRI, r3
 80031f8:	f3bf 8f6f 	isb	sy
 80031fc:	f3bf 8f4f 	dsb	sy
 8003200:	e7fe      	b.n	8003200 <vTaskSwitchContext+0x3c>
 8003202:	6844      	ldr	r4, [r0, #4]
 8003204:	3208      	adds	r2, #8
 8003206:	6864      	ldr	r4, [r4, #4]
 8003208:	440a      	add	r2, r1
 800320a:	4294      	cmp	r4, r2
 800320c:	bf08      	it	eq
 800320e:	6862      	ldreq	r2, [r4, #4]
 8003210:	6044      	str	r4, [r0, #4]
 8003212:	bf08      	it	eq
 8003214:	6042      	streq	r2, [r0, #4]
 8003216:	2214      	movs	r2, #20
 8003218:	fb02 1303 	mla	r3, r2, r3, r1
 800321c:	685b      	ldr	r3, [r3, #4]
 800321e:	68da      	ldr	r2, [r3, #12]
 8003220:	4b04      	ldr	r3, [pc, #16]	; (8003234 <vTaskSwitchContext+0x70>)
 8003222:	e7d5      	b.n	80031d0 <vTaskSwitchContext+0xc>
 8003224:	200050e0 	.word	0x200050e0
 8003228:	20005164 	.word	0x20005164
 800322c:	200050e8 	.word	0x200050e8
 8003230:	20005048 	.word	0x20005048
 8003234:	2000503c 	.word	0x2000503c

08003238 <vTaskPlaceOnEventList>:
{
 8003238:	b510      	push	{r4, lr}
 800323a:	460c      	mov	r4, r1
	configASSERT( pxEventList );
 800323c:	b940      	cbnz	r0, 8003250 <vTaskPlaceOnEventList+0x18>
 800323e:	f04f 0350 	mov.w	r3, #80	; 0x50
 8003242:	f383 8811 	msr	BASEPRI, r3
 8003246:	f3bf 8f6f 	isb	sy
 800324a:	f3bf 8f4f 	dsb	sy
 800324e:	e7fe      	b.n	800324e <vTaskPlaceOnEventList+0x16>
	vListInsert( pxEventList, &( pxCurrentTCB->xEventListItem ) );
 8003250:	4b05      	ldr	r3, [pc, #20]	; (8003268 <vTaskPlaceOnEventList+0x30>)
 8003252:	6819      	ldr	r1, [r3, #0]
 8003254:	3118      	adds	r1, #24
 8003256:	f7fe ffc0 	bl	80021da <vListInsert>
	prvAddCurrentTaskToDelayedList( xTicksToWait, pdTRUE );
 800325a:	4620      	mov	r0, r4
}
 800325c:	e8bd 4010 	ldmia.w	sp!, {r4, lr}
	prvAddCurrentTaskToDelayedList( xTicksToWait, pdTRUE );
 8003260:	2101      	movs	r1, #1
 8003262:	f7ff bce3 	b.w	8002c2c <prvAddCurrentTaskToDelayedList>
 8003266:	bf00      	nop
 8003268:	2000503c 	.word	0x2000503c

0800326c <xTaskRemoveFromEventList>:
{
 800326c:	b538      	push	{r3, r4, r5, lr}
	pxUnblockedTCB = ( TCB_t * ) listGET_OWNER_OF_HEAD_ENTRY( pxEventList );
 800326e:	68c3      	ldr	r3, [r0, #12]
 8003270:	68dc      	ldr	r4, [r3, #12]
	configASSERT( pxUnblockedTCB );
 8003272:	b944      	cbnz	r4, 8003286 <xTaskRemoveFromEventList+0x1a>
 8003274:	f04f 0350 	mov.w	r3, #80	; 0x50
 8003278:	f383 8811 	msr	BASEPRI, r3
 800327c:	f3bf 8f6f 	isb	sy
 8003280:	f3bf 8f4f 	dsb	sy
 8003284:	e7fe      	b.n	8003284 <xTaskRemoveFromEventList+0x18>
	( void ) uxListRemove( &( pxUnblockedTCB->xEventListItem ) );
 8003286:	f104 0518 	add.w	r5, r4, #24
 800328a:	4628      	mov	r0, r5
 800328c:	f7fe ffbc 	bl	8002208 <uxListRemove>
	if( uxSchedulerSuspended == ( UBaseType_t ) pdFALSE )
 8003290:	4b11      	ldr	r3, [pc, #68]	; (80032d8 <xTaskRemoveFromEventList+0x6c>)
 8003292:	681b      	ldr	r3, [r3, #0]
 8003294:	b9e3      	cbnz	r3, 80032d0 <xTaskRemoveFromEventList+0x64>
		( void ) uxListRemove( &( pxUnblockedTCB->xStateListItem ) );
 8003296:	1d25      	adds	r5, r4, #4
 8003298:	4628      	mov	r0, r5
 800329a:	f7fe ffb5 	bl	8002208 <uxListRemove>
		prvAddTaskToReadyList( pxUnblockedTCB );
 800329e:	2301      	movs	r3, #1
 80032a0:	490e      	ldr	r1, [pc, #56]	; (80032dc <xTaskRemoveFromEventList+0x70>)
 80032a2:	6ae2      	ldr	r2, [r4, #44]	; 0x2c
 80032a4:	6808      	ldr	r0, [r1, #0]
 80032a6:	4093      	lsls	r3, r2
 80032a8:	4303      	orrs	r3, r0
 80032aa:	2014      	movs	r0, #20
 80032ac:	600b      	str	r3, [r1, #0]
 80032ae:	4629      	mov	r1, r5
 80032b0:	4b0b      	ldr	r3, [pc, #44]	; (80032e0 <xTaskRemoveFromEventList+0x74>)
 80032b2:	fb00 3002 	mla	r0, r0, r2, r3
		vListInsertEnd( &( xPendingReadyList ), &( pxUnblockedTCB->xEventListItem ) );
 80032b6:	f7fe ff84 	bl	80021c2 <vListInsertEnd>
	if( pxUnblockedTCB->uxPriority > pxCurrentTCB->uxPriority )
 80032ba:	4b0a      	ldr	r3, [pc, #40]	; (80032e4 <xTaskRemoveFromEventList+0x78>)
 80032bc:	6ae2      	ldr	r2, [r4, #44]	; 0x2c
 80032be:	681b      	ldr	r3, [r3, #0]
 80032c0:	6adb      	ldr	r3, [r3, #44]	; 0x2c
 80032c2:	429a      	cmp	r2, r3
		xYieldPending = pdTRUE;
 80032c4:	bf85      	ittet	hi
 80032c6:	2001      	movhi	r0, #1
 80032c8:	4b07      	ldrhi	r3, [pc, #28]	; (80032e8 <xTaskRemoveFromEventList+0x7c>)
		xReturn = pdFALSE;
 80032ca:	2000      	movls	r0, #0
		xYieldPending = pdTRUE;
 80032cc:	6018      	strhi	r0, [r3, #0]
}
 80032ce:	bd38      	pop	{r3, r4, r5, pc}
		vListInsertEnd( &( xPendingReadyList ), &( pxUnblockedTCB->xEventListItem ) );
 80032d0:	4629      	mov	r1, r5
 80032d2:	4806      	ldr	r0, [pc, #24]	; (80032ec <xTaskRemoveFromEventList+0x80>)
 80032d4:	e7ef      	b.n	80032b6 <xTaskRemoveFromEventList+0x4a>
 80032d6:	bf00      	nop
 80032d8:	200050e0 	.word	0x200050e0
 80032dc:	200050e8 	.word	0x200050e8
 80032e0:	20005048 	.word	0x20005048
 80032e4:	2000503c 	.word	0x2000503c
 80032e8:	20005164 	.word	0x20005164
 80032ec:	20005120 	.word	0x20005120

080032f0 <vTaskSetTimeOutState>:
{
 80032f0:	b508      	push	{r3, lr}
	configASSERT( pxTimeOut );
 80032f2:	b908      	cbnz	r0, 80032f8 <vTaskSetTimeOutState+0x8>
 80032f4:	f7ff fce0 	bl	8002cb8 <prvTaskIsTaskSuspended.part.0>
	pxTimeOut->xOverflowCount = xNumOfOverflows;
 80032f8:	4b03      	ldr	r3, [pc, #12]	; (8003308 <vTaskSetTimeOutState+0x18>)
 80032fa:	681b      	ldr	r3, [r3, #0]
 80032fc:	6003      	str	r3, [r0, #0]
	pxTimeOut->xTimeOnEntering = xTickCount;
 80032fe:	4b03      	ldr	r3, [pc, #12]	; (800330c <vTaskSetTimeOutState+0x1c>)
 8003300:	681b      	ldr	r3, [r3, #0]
 8003302:	6043      	str	r3, [r0, #4]
 8003304:	bd08      	pop	{r3, pc}
 8003306:	bf00      	nop
 8003308:	2000511c 	.word	0x2000511c
 800330c:	20005160 	.word	0x20005160

08003310 <xTaskCheckForTimeOut>:
{
 8003310:	b538      	push	{r3, r4, r5, lr}
 8003312:	460d      	mov	r5, r1
	configASSERT( pxTimeOut );
 8003314:	4604      	mov	r4, r0
 8003316:	b940      	cbnz	r0, 800332a <xTaskCheckForTimeOut+0x1a>
 8003318:	f04f 0350 	mov.w	r3, #80	; 0x50
 800331c:	f383 8811 	msr	BASEPRI, r3
 8003320:	f3bf 8f6f 	isb	sy
 8003324:	f3bf 8f4f 	dsb	sy
 8003328:	e7fe      	b.n	8003328 <xTaskCheckForTimeOut+0x18>
	configASSERT( pxTicksToWait );
 800332a:	b941      	cbnz	r1, 800333e <xTaskCheckForTimeOut+0x2e>
 800332c:	f04f 0350 	mov.w	r3, #80	; 0x50
 8003330:	f383 8811 	msr	BASEPRI, r3
 8003334:	f3bf 8f6f 	isb	sy
 8003338:	f3bf 8f4f 	dsb	sy
 800333c:	e7fe      	b.n	800333c <xTaskCheckForTimeOut+0x2c>
	taskENTER_CRITICAL();
 800333e:	f7fe ffc1 	bl	80022c4 <vPortEnterCritical>
		const TickType_t xConstTickCount = xTickCount;
 8003342:	4b0e      	ldr	r3, [pc, #56]	; (800337c <xTaskCheckForTimeOut+0x6c>)
 8003344:	6819      	ldr	r1, [r3, #0]
			if( *pxTicksToWait == portMAX_DELAY )
 8003346:	682b      	ldr	r3, [r5, #0]
 8003348:	1c5a      	adds	r2, r3, #1
 800334a:	d010      	beq.n	800336e <xTaskCheckForTimeOut+0x5e>
		if( ( xNumOfOverflows != pxTimeOut->xOverflowCount ) && ( xConstTickCount >= pxTimeOut->xTimeOnEntering ) ) /*lint !e525 Indentation preferred as is to make code within pre-processor directives clearer. */
 800334c:	4a0c      	ldr	r2, [pc, #48]	; (8003380 <xTaskCheckForTimeOut+0x70>)
 800334e:	6820      	ldr	r0, [r4, #0]
 8003350:	6812      	ldr	r2, [r2, #0]
 8003352:	4290      	cmp	r0, r2
 8003354:	6862      	ldr	r2, [r4, #4]
 8003356:	d001      	beq.n	800335c <xTaskCheckForTimeOut+0x4c>
 8003358:	4291      	cmp	r1, r2
 800335a:	d20d      	bcs.n	8003378 <xTaskCheckForTimeOut+0x68>
		else if( ( ( TickType_t ) ( xConstTickCount - pxTimeOut->xTimeOnEntering ) ) < *pxTicksToWait ) /*lint !e961 Explicit casting is only redundant with some compilers, whereas others require it to prevent integer conversion errors. */
 800335c:	1a88      	subs	r0, r1, r2
 800335e:	4283      	cmp	r3, r0
 8003360:	d90a      	bls.n	8003378 <xTaskCheckForTimeOut+0x68>
			*pxTicksToWait -= ( xConstTickCount - pxTimeOut->xTimeOnEntering );
 8003362:	1a5b      	subs	r3, r3, r1
 8003364:	4413      	add	r3, r2
 8003366:	602b      	str	r3, [r5, #0]
			vTaskSetTimeOutState( pxTimeOut );
 8003368:	4620      	mov	r0, r4
 800336a:	f7ff ffc1 	bl	80032f0 <vTaskSetTimeOutState>
				xReturn = pdFALSE;
 800336e:	2400      	movs	r4, #0
	taskEXIT_CRITICAL();
 8003370:	f7fe ffca 	bl	8002308 <vPortExitCritical>
}
 8003374:	4620      	mov	r0, r4
 8003376:	bd38      	pop	{r3, r4, r5, pc}
			xReturn = pdTRUE;
 8003378:	2401      	movs	r4, #1
 800337a:	e7f9      	b.n	8003370 <xTaskCheckForTimeOut+0x60>
 800337c:	20005160 	.word	0x20005160
 8003380:	2000511c 	.word	0x2000511c

08003384 <vTaskMissedYield>:
	xYieldPending = pdTRUE;
 8003384:	2201      	movs	r2, #1
 8003386:	4b01      	ldr	r3, [pc, #4]	; (800338c <vTaskMissedYield+0x8>)
 8003388:	601a      	str	r2, [r3, #0]
 800338a:	4770      	bx	lr
 800338c:	20005164 	.word	0x20005164

08003390 <xTaskGetSchedulerState>:
		if( xSchedulerRunning == pdFALSE )
 8003390:	4b05      	ldr	r3, [pc, #20]	; (80033a8 <xTaskGetSchedulerState+0x18>)
 8003392:	681b      	ldr	r3, [r3, #0]
 8003394:	b133      	cbz	r3, 80033a4 <xTaskGetSchedulerState+0x14>
			if( uxSchedulerSuspended == ( UBaseType_t ) pdFALSE )
 8003396:	4b05      	ldr	r3, [pc, #20]	; (80033ac <xTaskGetSchedulerState+0x1c>)
 8003398:	681b      	ldr	r3, [r3, #0]
 800339a:	2b00      	cmp	r3, #0
				xReturn = taskSCHEDULER_SUSPENDED;
 800339c:	bf0c      	ite	eq
 800339e:	2002      	moveq	r0, #2
 80033a0:	2000      	movne	r0, #0
 80033a2:	4770      	bx	lr
			xReturn = taskSCHEDULER_NOT_STARTED;
 80033a4:	2001      	movs	r0, #1
	}
 80033a6:	4770      	bx	lr
 80033a8:	20005134 	.word	0x20005134
 80033ac:	200050e0 	.word	0x200050e0

080033b0 <vTaskPriorityInherit>:
	{
 80033b0:	e92d 41f0 	stmdb	sp!, {r4, r5, r6, r7, r8, lr}
		if( pxMutexHolder != NULL )
 80033b4:	4604      	mov	r4, r0
 80033b6:	2800      	cmp	r0, #0
 80033b8:	d039      	beq.n	800342e <vTaskPriorityInherit+0x7e>
			if( pxTCB->uxPriority < pxCurrentTCB->uxPriority )
 80033ba:	4d1e      	ldr	r5, [pc, #120]	; (8003434 <vTaskPriorityInherit+0x84>)
 80033bc:	6ac3      	ldr	r3, [r0, #44]	; 0x2c
 80033be:	682a      	ldr	r2, [r5, #0]
 80033c0:	6ad2      	ldr	r2, [r2, #44]	; 0x2c
 80033c2:	4293      	cmp	r3, r2
 80033c4:	d233      	bcs.n	800342e <vTaskPriorityInherit+0x7e>
				if( listIS_CONTAINED_WITHIN( &( pxReadyTasksLists[ pxTCB->uxPriority ] ), &( pxTCB->xStateListItem ) ) != pdFALSE )
 80033c6:	2714      	movs	r7, #20
				if( ( listGET_LIST_ITEM_VALUE( &( pxTCB->xEventListItem ) ) & taskEVENT_LIST_ITEM_VALUE_IN_USE ) == 0UL )
 80033c8:	6982      	ldr	r2, [r0, #24]
				if( listIS_CONTAINED_WITHIN( &( pxReadyTasksLists[ pxTCB->uxPriority ] ), &( pxTCB->xStateListItem ) ) != pdFALSE )
 80033ca:	4e1b      	ldr	r6, [pc, #108]	; (8003438 <vTaskPriorityInherit+0x88>)
				if( ( listGET_LIST_ITEM_VALUE( &( pxTCB->xEventListItem ) ) & taskEVENT_LIST_ITEM_VALUE_IN_USE ) == 0UL )
 80033cc:	2a00      	cmp	r2, #0
					listSET_LIST_ITEM_VALUE( &( pxTCB->xEventListItem ), ( TickType_t ) configMAX_PRIORITIES - ( TickType_t ) pxCurrentTCB->uxPriority ); /*lint !e961 MISRA exception as the casts are only redundant for some ports. */
 80033ce:	bfa8      	it	ge
 80033d0:	682a      	ldrge	r2, [r5, #0]
				if( listIS_CONTAINED_WITHIN( &( pxReadyTasksLists[ pxTCB->uxPriority ] ), &( pxTCB->xStateListItem ) ) != pdFALSE )
 80033d2:	fb07 6303 	mla	r3, r7, r3, r6
					listSET_LIST_ITEM_VALUE( &( pxTCB->xEventListItem ), ( TickType_t ) configMAX_PRIORITIES - ( TickType_t ) pxCurrentTCB->uxPriority ); /*lint !e961 MISRA exception as the casts are only redundant for some ports. */
 80033d6:	bfa2      	ittt	ge
 80033d8:	6ad2      	ldrge	r2, [r2, #44]	; 0x2c
 80033da:	f1c2 0207 	rsbge	r2, r2, #7
 80033de:	6182      	strge	r2, [r0, #24]
				if( listIS_CONTAINED_WITHIN( &( pxReadyTasksLists[ pxTCB->uxPriority ] ), &( pxTCB->xStateListItem ) ) != pdFALSE )
 80033e0:	6942      	ldr	r2, [r0, #20]
 80033e2:	429a      	cmp	r2, r3
 80033e4:	d120      	bne.n	8003428 <vTaskPriorityInherit+0x78>
					if( uxListRemove( &( pxTCB->xStateListItem ) ) == ( UBaseType_t ) 0 )
 80033e6:	f100 0804 	add.w	r8, r0, #4
 80033ea:	4640      	mov	r0, r8
 80033ec:	f7fe ff0c 	bl	8002208 <uxListRemove>
 80033f0:	4a12      	ldr	r2, [pc, #72]	; (800343c <vTaskPriorityInherit+0x8c>)
 80033f2:	b948      	cbnz	r0, 8003408 <vTaskPriorityInherit+0x58>
						taskRESET_READY_PRIORITY( pxTCB->uxPriority );
 80033f4:	6ae0      	ldr	r0, [r4, #44]	; 0x2c
 80033f6:	4347      	muls	r7, r0
 80033f8:	59f3      	ldr	r3, [r6, r7]
 80033fa:	b92b      	cbnz	r3, 8003408 <vTaskPriorityInherit+0x58>
 80033fc:	2101      	movs	r1, #1
 80033fe:	6813      	ldr	r3, [r2, #0]
 8003400:	4081      	lsls	r1, r0
 8003402:	ea23 0301 	bic.w	r3, r3, r1
 8003406:	6013      	str	r3, [r2, #0]
					pxTCB->uxPriority = pxCurrentTCB->uxPriority;
 8003408:	682b      	ldr	r3, [r5, #0]
					prvAddTaskToReadyList( pxTCB );
 800340a:	6811      	ldr	r1, [r2, #0]
					pxTCB->uxPriority = pxCurrentTCB->uxPriority;
 800340c:	6ad8      	ldr	r0, [r3, #44]	; 0x2c
					prvAddTaskToReadyList( pxTCB );
 800340e:	2301      	movs	r3, #1
 8003410:	4083      	lsls	r3, r0
 8003412:	430b      	orrs	r3, r1
 8003414:	6013      	str	r3, [r2, #0]
 8003416:	2314      	movs	r3, #20
					pxTCB->uxPriority = pxCurrentTCB->uxPriority;
 8003418:	62e0      	str	r0, [r4, #44]	; 0x2c
					prvAddTaskToReadyList( pxTCB );
 800341a:	4641      	mov	r1, r8
 800341c:	fb03 6000 	mla	r0, r3, r0, r6
	}
 8003420:	e8bd 41f0 	ldmia.w	sp!, {r4, r5, r6, r7, r8, lr}
					prvAddTaskToReadyList( pxTCB );
 8003424:	f7fe becd 	b.w	80021c2 <vListInsertEnd>
					pxTCB->uxPriority = pxCurrentTCB->uxPriority;
 8003428:	682b      	ldr	r3, [r5, #0]
 800342a:	6adb      	ldr	r3, [r3, #44]	; 0x2c
 800342c:	62c3      	str	r3, [r0, #44]	; 0x2c
 800342e:	e8bd 81f0 	ldmia.w	sp!, {r4, r5, r6, r7, r8, pc}
 8003432:	bf00      	nop
 8003434:	2000503c 	.word	0x2000503c
 8003438:	20005048 	.word	0x20005048
 800343c:	200050e8 	.word	0x200050e8

08003440 <xTaskPriorityDisinherit>:
	{
 8003440:	b5f8      	push	{r3, r4, r5, r6, r7, lr}
		if( pxMutexHolder != NULL )
 8003442:	4604      	mov	r4, r0
 8003444:	b908      	cbnz	r0, 800344a <xTaskPriorityDisinherit+0xa>
	BaseType_t xReturn = pdFALSE;
 8003446:	2000      	movs	r0, #0
 8003448:	bdf8      	pop	{r3, r4, r5, r6, r7, pc}
			configASSERT( pxTCB == pxCurrentTCB );
 800344a:	4b22      	ldr	r3, [pc, #136]	; (80034d4 <xTaskPriorityDisinherit+0x94>)
 800344c:	681b      	ldr	r3, [r3, #0]
 800344e:	4298      	cmp	r0, r3
 8003450:	d008      	beq.n	8003464 <xTaskPriorityDisinherit+0x24>
 8003452:	f04f 0350 	mov.w	r3, #80	; 0x50
 8003456:	f383 8811 	msr	BASEPRI, r3
 800345a:	f3bf 8f6f 	isb	sy
 800345e:	f3bf 8f4f 	dsb	sy
 8003462:	e7fe      	b.n	8003462 <xTaskPriorityDisinherit+0x22>
			configASSERT( pxTCB->uxMutexesHeld );
 8003464:	6c83      	ldr	r3, [r0, #72]	; 0x48
 8003466:	b943      	cbnz	r3, 800347a <xTaskPriorityDisinherit+0x3a>
 8003468:	f04f 0350 	mov.w	r3, #80	; 0x50
 800346c:	f383 8811 	msr	BASEPRI, r3
 8003470:	f3bf 8f6f 	isb	sy
 8003474:	f3bf 8f4f 	dsb	sy
 8003478:	e7fe      	b.n	8003478 <xTaskPriorityDisinherit+0x38>
			if( pxTCB->uxPriority != pxTCB->uxBasePriority )
 800347a:	6ac1      	ldr	r1, [r0, #44]	; 0x2c
 800347c:	6c42      	ldr	r2, [r0, #68]	; 0x44
			( pxTCB->uxMutexesHeld )--;
 800347e:	3b01      	subs	r3, #1
			if( pxTCB->uxPriority != pxTCB->uxBasePriority )
 8003480:	4291      	cmp	r1, r2
			( pxTCB->uxMutexesHeld )--;
 8003482:	6483      	str	r3, [r0, #72]	; 0x48
			if( pxTCB->uxPriority != pxTCB->uxBasePriority )
 8003484:	d0df      	beq.n	8003446 <xTaskPriorityDisinherit+0x6>
				if( pxTCB->uxMutexesHeld == ( UBaseType_t ) 0 )
 8003486:	2b00      	cmp	r3, #0
 8003488:	d1dd      	bne.n	8003446 <xTaskPriorityDisinherit+0x6>
					if( uxListRemove( &( pxTCB->xStateListItem ) ) == ( UBaseType_t ) 0 )
 800348a:	1d05      	adds	r5, r0, #4
 800348c:	4628      	mov	r0, r5
 800348e:	f7fe febb 	bl	8002208 <uxListRemove>
 8003492:	4e11      	ldr	r6, [pc, #68]	; (80034d8 <xTaskPriorityDisinherit+0x98>)
 8003494:	4a11      	ldr	r2, [pc, #68]	; (80034dc <xTaskPriorityDisinherit+0x9c>)
 8003496:	b950      	cbnz	r0, 80034ae <xTaskPriorityDisinherit+0x6e>
						taskRESET_READY_PRIORITY( pxTCB->uxPriority );
 8003498:	2114      	movs	r1, #20
 800349a:	6ae7      	ldr	r7, [r4, #44]	; 0x2c
 800349c:	4379      	muls	r1, r7
 800349e:	5873      	ldr	r3, [r6, r1]
 80034a0:	b92b      	cbnz	r3, 80034ae <xTaskPriorityDisinherit+0x6e>
 80034a2:	2001      	movs	r0, #1
 80034a4:	6813      	ldr	r3, [r2, #0]
 80034a6:	40b8      	lsls	r0, r7
 80034a8:	ea23 0300 	bic.w	r3, r3, r0
 80034ac:	6013      	str	r3, [r2, #0]
					pxTCB->uxPriority = pxTCB->uxBasePriority;
 80034ae:	6c63      	ldr	r3, [r4, #68]	; 0x44
					listSET_LIST_ITEM_VALUE( &( pxTCB->xEventListItem ), ( TickType_t ) configMAX_PRIORITIES - ( TickType_t ) pxTCB->uxPriority ); /*lint !e961 MISRA exception as the casts are only redundant for some ports. */
 80034b0:	f1c3 0107 	rsb	r1, r3, #7
					pxTCB->uxPriority = pxTCB->uxBasePriority;
 80034b4:	62e3      	str	r3, [r4, #44]	; 0x2c
					listSET_LIST_ITEM_VALUE( &( pxTCB->xEventListItem ), ( TickType_t ) configMAX_PRIORITIES - ( TickType_t ) pxTCB->uxPriority ); /*lint !e961 MISRA exception as the casts are only redundant for some ports. */
 80034b6:	61a1      	str	r1, [r4, #24]
					prvAddTaskToReadyList( pxTCB );
 80034b8:	2401      	movs	r4, #1
 80034ba:	6811      	ldr	r1, [r2, #0]
 80034bc:	fa04 f003 	lsl.w	r0, r4, r3
 80034c0:	4308      	orrs	r0, r1
 80034c2:	6010      	str	r0, [r2, #0]
 80034c4:	2014      	movs	r0, #20
 80034c6:	4629      	mov	r1, r5
 80034c8:	fb00 6003 	mla	r0, r0, r3, r6
 80034cc:	f7fe fe79 	bl	80021c2 <vListInsertEnd>
					xReturn = pdTRUE;
 80034d0:	4620      	mov	r0, r4
	}
 80034d2:	bdf8      	pop	{r3, r4, r5, r6, r7, pc}
 80034d4:	2000503c 	.word	0x2000503c
 80034d8:	20005048 	.word	0x20005048
 80034dc:	200050e8 	.word	0x200050e8

080034e0 <pvTaskIncrementMutexHeldCount>:
		if( pxCurrentTCB != NULL )
 80034e0:	4b04      	ldr	r3, [pc, #16]	; (80034f4 <pvTaskIncrementMutexHeldCount+0x14>)
 80034e2:	681a      	ldr	r2, [r3, #0]
 80034e4:	b11a      	cbz	r2, 80034ee <pvTaskIncrementMutexHeldCount+0xe>
			( pxCurrentTCB->uxMutexesHeld )++;
 80034e6:	6819      	ldr	r1, [r3, #0]
 80034e8:	6c8a      	ldr	r2, [r1, #72]	; 0x48
 80034ea:	3201      	adds	r2, #1
 80034ec:	648a      	str	r2, [r1, #72]	; 0x48
		return pxCurrentTCB;
 80034ee:	6818      	ldr	r0, [r3, #0]
	}
 80034f0:	4770      	bx	lr
 80034f2:	bf00      	nop
 80034f4:	2000503c 	.word	0x2000503c

080034f8 <xScanButtonsTask>:
#include "globals.h"
#include "structures.h"

extern UART_HandleTypeDef huart1;

void xScanButtonsTask(void* arguments){
 80034f8:	e92d 41f0 	stmdb	sp!, {r4, r5, r6, r7, r8, lr}

	uint8_t prevBtnState = 0;
 80034fc:	2500      	movs	r5, #0
	uint8_t curBtnState = 0;

	for(;;){
		curBtnState = HAL_GPIO_ReadPin(BTN_PORT, BTN_PIN);
 80034fe:	4e1b      	ldr	r6, [pc, #108]	; (800356c <xScanButtonsTask+0x74>)
			if (curBtnState != prevBtnState){
				prevBtnState = curBtnState;
				if (prevBtnState){
					//TODO:    
					HAL_GPIO_WritePin(A_LED_PORT, A_LED_PIN, GPIO_PIN_SET);
					CMD_RF_ON;
 8003500:	4f1b      	ldr	r7, [pc, #108]	; (8003570 <xScanButtonsTask+0x78>)
					vTaskDelay(50 / portTICK_RATE_MS);

					HAL_UART_Transmit(&huart1, (uint8_t*) "AT+C001\r", 8, 0x2000);
 8003502:	f8df 8074 	ldr.w	r8, [pc, #116]	; 8003578 <xScanButtonsTask+0x80>
		curBtnState = HAL_GPIO_ReadPin(BTN_PORT, BTN_PIN);
 8003506:	2120      	movs	r1, #32
 8003508:	4630      	mov	r0, r6
 800350a:	f7fd ff63 	bl	80013d4 <HAL_GPIO_ReadPin>
		if (curBtnState != prevBtnState){
 800350e:	4285      	cmp	r5, r0
		curBtnState = HAL_GPIO_ReadPin(BTN_PORT, BTN_PIN);
 8003510:	4604      	mov	r4, r0
		if (curBtnState != prevBtnState){
 8003512:	d026      	beq.n	8003562 <xScanButtonsTask+0x6a>
			vTaskDelay(1 / portTICK_RATE_MS);
 8003514:	2001      	movs	r0, #1
 8003516:	f7ff fdf7 	bl	8003108 <vTaskDelay>
			curBtnState = HAL_GPIO_ReadPin(BTN_PORT, BTN_PIN);
 800351a:	2120      	movs	r1, #32
 800351c:	4630      	mov	r0, r6
 800351e:	f7fd ff59 	bl	80013d4 <HAL_GPIO_ReadPin>
			if (curBtnState != prevBtnState){
 8003522:	4285      	cmp	r5, r0
			curBtnState = HAL_GPIO_ReadPin(BTN_PORT, BTN_PIN);
 8003524:	4604      	mov	r4, r0
			if (curBtnState != prevBtnState){
 8003526:	d01c      	beq.n	8003562 <xScanButtonsTask+0x6a>
				if (prevBtnState){
 8003528:	b1d8      	cbz	r0, 8003562 <xScanButtonsTask+0x6a>
					HAL_GPIO_WritePin(A_LED_PORT, A_LED_PIN, GPIO_PIN_SET);
 800352a:	2201      	movs	r2, #1
 800352c:	2180      	movs	r1, #128	; 0x80
 800352e:	4630      	mov	r0, r6
 8003530:	f7fd ff56 	bl	80013e0 <HAL_GPIO_WritePin>
					CMD_RF_ON;
 8003534:	2200      	movs	r2, #0
 8003536:	2104      	movs	r1, #4
 8003538:	4638      	mov	r0, r7
 800353a:	f7fd ff51 	bl	80013e0 <HAL_GPIO_WritePin>
					vTaskDelay(50 / portTICK_RATE_MS);
 800353e:	2032      	movs	r0, #50	; 0x32
 8003540:	f7ff fde2 	bl	8003108 <vTaskDelay>
					HAL_UART_Transmit(&huart1, (uint8_t*) "AT+C001\r", 8, 0x2000);
 8003544:	2208      	movs	r2, #8
 8003546:	4641      	mov	r1, r8
 8003548:	f44f 5300 	mov.w	r3, #8192	; 0x2000
 800354c:	4809      	ldr	r0, [pc, #36]	; (8003574 <xScanButtonsTask+0x7c>)
 800354e:	f7fe fc31 	bl	8001db4 <HAL_UART_Transmit>

					vTaskDelay(50 / portTICK_RATE_MS);
 8003552:	2032      	movs	r0, #50	; 0x32
 8003554:	f7ff fdd8 	bl	8003108 <vTaskDelay>
					CMD_RF_OFF;
 8003558:	2201      	movs	r2, #1
 800355a:	2104      	movs	r1, #4
 800355c:	4638      	mov	r0, r7
 800355e:	f7fd ff3f 	bl	80013e0 <HAL_GPIO_WritePin>
				}
			}
		}

		vTaskDelay(5 / portTICK_RATE_MS);
 8003562:	2005      	movs	r0, #5
 8003564:	f7ff fdd0 	bl	8003108 <vTaskDelay>
		curBtnState = HAL_GPIO_ReadPin(BTN_PORT, BTN_PIN);
 8003568:	4625      	mov	r5, r4
 800356a:	e7cc      	b.n	8003506 <xScanButtonsTask+0xe>
 800356c:	40010c00 	.word	0x40010c00
 8003570:	40011400 	.word	0x40011400
 8003574:	2000536c 	.word	0x2000536c
 8003578:	0800560d 	.word	0x0800560d

0800357c <xAnalyzeTask>:
extern xSemaphoreHandle xPressureCompensationSemaphore;
extern UART_HandleTypeDef huart1;

uint8_t analyzeCounter[4] = {0};

void xAnalyzeTask(void *arguments){
 800357c:	e92d 4ff8 	stmdb	sp!, {r3, r4, r5, r6, r7, r8, r9, sl, fp, lr}
	uint8_t prescalerCounter = 10;
	uint8_t analyzeCounterRef[4] = {5};
//	char messageDebug[16] = {0};
//	uint8_t mesDebugLen = 0;

	xStatus = xSemaphoreTake(xPressureCompensationSemaphore, portMAX_DELAY);
 8003580:	2300      	movs	r3, #0
 8003582:	4f50      	ldr	r7, [pc, #320]	; (80036c4 <xAnalyzeTask+0x148>)
 8003584:	f04f 32ff 	mov.w	r2, #4294967295
 8003588:	4619      	mov	r1, r3
 800358a:	6838      	ldr	r0, [r7, #0]
 800358c:	f7ff fa78 	bl	8002a80 <xQueueGenericReceive>
	for(;;){
		xStatus = xSemaphoreTake(xPressureCompensationSemaphore, portMAX_DELAY);
 8003590:	f04f 0b00 	mov.w	fp, #0
					workState = WORKING;
				}
			}
			else{
				if (filteredData.sens_1 > nessPressure[0]){
					C1_UP_OFF;
 8003594:	4c4c      	ldr	r4, [pc, #304]	; (80036c8 <xAnalyzeTask+0x14c>)
		xStatus = xSemaphoreTake(xPressureCompensationSemaphore, portMAX_DELAY);
 8003596:	2300      	movs	r3, #0
 8003598:	f04f 32ff 	mov.w	r2, #4294967295
 800359c:	4619      	mov	r1, r3
 800359e:	6838      	ldr	r0, [r7, #0]
 80035a0:	f7ff fa6e 	bl	8002a80 <xQueueGenericReceive>
		if (xStatus == pdPASS){
 80035a4:	2801      	cmp	r0, #1
		xStatus = xSemaphoreTake(xPressureCompensationSemaphore, portMAX_DELAY);
 80035a6:	4606      	mov	r6, r0
		if (xStatus == pdPASS){
 80035a8:	d1f5      	bne.n	8003596 <xAnalyzeTask+0x1a>
			if (pressIsLower[0]){
 80035aa:	f8df 912c 	ldr.w	r9, [pc, #300]	; 80036d8 <xAnalyzeTask+0x15c>
			workState = FREE;
 80035ae:	4d47      	ldr	r5, [pc, #284]	; (80036cc <xAnalyzeTask+0x150>)
			if (pressIsLower[0]){
 80035b0:	f899 2000 	ldrb.w	r2, [r9]
			workState = FREE;
 80035b4:	f885 b000 	strb.w	fp, [r5]
 80035b8:	f8df a120 	ldr.w	sl, [pc, #288]	; 80036dc <xAnalyzeTask+0x160>
 80035bc:	f8df 8120 	ldr.w	r8, [pc, #288]	; 80036e0 <xAnalyzeTask+0x164>
			if (pressIsLower[0]){
 80035c0:	2a00      	cmp	r2, #0
 80035c2:	d064      	beq.n	800368e <xAnalyzeTask+0x112>
				if (filteredData.sens_1 < nessPressure[0]){
 80035c4:	f8ba 1000 	ldrh.w	r1, [sl]
 80035c8:	f8b8 2000 	ldrh.w	r2, [r8]
 80035cc:	4291      	cmp	r1, r2
 80035ce:	d20a      	bcs.n	80035e6 <xAnalyzeTask+0x6a>
					C1_UP_ON;
 80035d0:	4602      	mov	r2, r0
 80035d2:	2108      	movs	r1, #8
 80035d4:	4620      	mov	r0, r4
 80035d6:	f7fd ff03 	bl	80013e0 <HAL_GPIO_WritePin>
					C1_DOWN_OFF;
 80035da:	2200      	movs	r2, #0
					C1_DOWN_ON;
 80035dc:	2104      	movs	r1, #4
 80035de:	4620      	mov	r0, r4
 80035e0:	f7fd fefe 	bl	80013e0 <HAL_GPIO_WritePin>
					workState = WORKING;
 80035e4:	702e      	strb	r6, [r5, #0]
				}
			}

			if (pressIsLower[1]){
 80035e6:	f899 2001 	ldrb.w	r2, [r9, #1]
 80035ea:	2a00      	cmp	r2, #0
 80035ec:	d05b      	beq.n	80036a6 <xAnalyzeTask+0x12a>
							if (filteredData.sens_2 < nessPressure[1]){
 80035ee:	f8ba 2002 	ldrh.w	r2, [sl, #2]
 80035f2:	f8b8 3002 	ldrh.w	r3, [r8, #2]
 80035f6:	429a      	cmp	r2, r3
 80035f8:	d20b      	bcs.n	8003612 <xAnalyzeTask+0x96>
								C2_UP_ON;
 80035fa:	2201      	movs	r2, #1
 80035fc:	2102      	movs	r1, #2
 80035fe:	4620      	mov	r0, r4
 8003600:	f7fd feee 	bl	80013e0 <HAL_GPIO_WritePin>
								C2_DOWN_OFF;
 8003604:	2200      	movs	r2, #0
 8003606:	2101      	movs	r1, #1
							}
						}
						else{
							if (filteredData.sens_2 > nessPressure[1]){
								C2_UP_OFF;
								C2_DOWN_ON;
 8003608:	4620      	mov	r0, r4
 800360a:	f7fd fee9 	bl	80013e0 <HAL_GPIO_WritePin>
								workState = WORKING;
 800360e:	2301      	movs	r3, #1
 8003610:	702b      	strb	r3, [r5, #0]
							}
						}


			if (workState == FREE){
 8003612:	782a      	ldrb	r2, [r5, #0]
 8003614:	4b2e      	ldr	r3, [pc, #184]	; (80036d0 <xAnalyzeTask+0x154>)
 8003616:	2a00      	cmp	r2, #0
 8003618:	d152      	bne.n	80036c0 <xAnalyzeTask+0x144>
			else{
				pressureCompensation = ON;
			}

			// 
			vTaskDelay(500 / portTICK_RATE_MS);
 800361a:	f44f 70fa 	mov.w	r0, #500	; 0x1f4
				pressureCompensation = ON;
 800361e:	701a      	strb	r2, [r3, #0]
			vTaskDelay(500 / portTICK_RATE_MS);
 8003620:	f7ff fd72 	bl	8003108 <vTaskDelay>
			C1_DOWN_OFF;
 8003624:	4620      	mov	r0, r4
 8003626:	2200      	movs	r2, #0
 8003628:	2104      	movs	r1, #4
 800362a:	f7fd fed9 	bl	80013e0 <HAL_GPIO_WritePin>
			C2_DOWN_OFF;
 800362e:	4620      	mov	r0, r4
 8003630:	2200      	movs	r2, #0
 8003632:	2101      	movs	r1, #1
 8003634:	f7fd fed4 	bl	80013e0 <HAL_GPIO_WritePin>
			C3_DOWN_OFF;
 8003638:	4620      	mov	r0, r4
 800363a:	2200      	movs	r2, #0
 800363c:	f44f 6100 	mov.w	r1, #2048	; 0x800
 8003640:	f7fd fece 	bl	80013e0 <HAL_GPIO_WritePin>
			C4_DOWN_OFF;
 8003644:	2200      	movs	r2, #0
 8003646:	f44f 4100 	mov.w	r1, #32768	; 0x8000
 800364a:	4822      	ldr	r0, [pc, #136]	; (80036d4 <xAnalyzeTask+0x158>)
 800364c:	f7fd fec8 	bl	80013e0 <HAL_GPIO_WritePin>

			vTaskDelay(500 / portTICK_RATE_MS);
 8003650:	f44f 70fa 	mov.w	r0, #500	; 0x1f4
 8003654:	f7ff fd58 	bl	8003108 <vTaskDelay>
			C1_UP_OFF;
 8003658:	4620      	mov	r0, r4
 800365a:	2200      	movs	r2, #0
 800365c:	2108      	movs	r1, #8
 800365e:	f7fd febf 	bl	80013e0 <HAL_GPIO_WritePin>
			C2_UP_OFF;
 8003662:	4620      	mov	r0, r4
 8003664:	2200      	movs	r2, #0
 8003666:	2102      	movs	r1, #2
 8003668:	f7fd feba 	bl	80013e0 <HAL_GPIO_WritePin>
			C3_UP_OFF;
 800366c:	4620      	mov	r0, r4
 800366e:	2200      	movs	r2, #0
 8003670:	f44f 5180 	mov.w	r1, #4096	; 0x1000
 8003674:	f7fd feb4 	bl	80013e0 <HAL_GPIO_WritePin>
			C4_UP_OFF;
 8003678:	4620      	mov	r0, r4
 800367a:	2200      	movs	r2, #0
 800367c:	f44f 6180 	mov.w	r1, #1024	; 0x400
 8003680:	f7fd feae 	bl	80013e0 <HAL_GPIO_WritePin>
			// 
			vTaskDelay(1000 / portTICK_RATE_MS);
 8003684:	f44f 707a 	mov.w	r0, #1000	; 0x3e8
 8003688:	f7ff fd3e 	bl	8003108 <vTaskDelay>
 800368c:	e783      	b.n	8003596 <xAnalyzeTask+0x1a>
				if (filteredData.sens_1 > nessPressure[0]){
 800368e:	f8ba 0000 	ldrh.w	r0, [sl]
 8003692:	f8b8 1000 	ldrh.w	r1, [r8]
 8003696:	4288      	cmp	r0, r1
 8003698:	d9a5      	bls.n	80035e6 <xAnalyzeTask+0x6a>
					C1_UP_OFF;
 800369a:	2108      	movs	r1, #8
 800369c:	4620      	mov	r0, r4
 800369e:	f7fd fe9f 	bl	80013e0 <HAL_GPIO_WritePin>
					C1_DOWN_ON;
 80036a2:	4632      	mov	r2, r6
 80036a4:	e79a      	b.n	80035dc <xAnalyzeTask+0x60>
							if (filteredData.sens_2 > nessPressure[1]){
 80036a6:	f8ba 1002 	ldrh.w	r1, [sl, #2]
 80036aa:	f8b8 3002 	ldrh.w	r3, [r8, #2]
 80036ae:	4299      	cmp	r1, r3
 80036b0:	d9af      	bls.n	8003612 <xAnalyzeTask+0x96>
								C2_UP_OFF;
 80036b2:	2102      	movs	r1, #2
 80036b4:	4620      	mov	r0, r4
 80036b6:	f7fd fe93 	bl	80013e0 <HAL_GPIO_WritePin>
								C2_DOWN_ON;
 80036ba:	2201      	movs	r2, #1
 80036bc:	4611      	mov	r1, r2
 80036be:	e7a3      	b.n	8003608 <xAnalyzeTask+0x8c>
				pressureCompensation = ON;
 80036c0:	2201      	movs	r2, #1
 80036c2:	e7aa      	b.n	800361a <xAnalyzeTask+0x9e>
 80036c4:	200052f4 	.word	0x200052f4
 80036c8:	40011000 	.word	0x40011000
 80036cc:	2000522c 	.word	0x2000522c
 80036d0:	20005228 	.word	0x20005228
 80036d4:	40010800 	.word	0x40010800
 80036d8:	2000522d 	.word	0x2000522d
 80036dc:	20005198 	.word	0x20005198
 80036e0:	20005220 	.word	0x20005220

080036e4 <xBlynkTask>:
extern struct controllerData controllerSettings;

extern uint16_t server_UID;
uint32_t unique_ID[3] = {0};

void xBlynkTask(void* arguments){
 80036e4:	b508      	push	{r3, lr}
	for(;;){
		HAL_GPIO_TogglePin(BLYNK_LED_PORT, BLYNK_LED_PIN);
 80036e6:	4c05      	ldr	r4, [pc, #20]	; (80036fc <xBlynkTask+0x18>)
 80036e8:	4620      	mov	r0, r4
 80036ea:	2140      	movs	r1, #64	; 0x40
 80036ec:	f7fd fe7d 	bl	80013ea <HAL_GPIO_TogglePin>
		vTaskDelay(500 / portTICK_RATE_MS);
 80036f0:	f44f 70fa 	mov.w	r0, #500	; 0x1f4
 80036f4:	f7ff fd08 	bl	8003108 <vTaskDelay>
 80036f8:	e7f6      	b.n	80036e8 <xBlynkTask+0x4>
 80036fa:	bf00      	nop
 80036fc:	40010c00 	.word	0x40010c00

08003700 <init_RF433>:
	}
	vTaskDelete(NULL);
}

void init_RF433(){
	CMD_RF_OFF;
 8003700:	2201      	movs	r2, #1
 8003702:	2104      	movs	r1, #4
 8003704:	4801      	ldr	r0, [pc, #4]	; (800370c <init_RF433+0xc>)
 8003706:	f7fd be6b 	b.w	80013e0 <HAL_GPIO_WritePin>
 800370a:	bf00      	nop
 800370c:	40011400 	.word	0x40011400

08003710 <controller_initialize>:
	return;
}

void controller_initialize(){
 8003710:	b537      	push	{r0, r1, r2, r4, r5, lr}

	// 
	HAL_UART_Receive_IT(&huart1, &recCommandByte, 1);
 8003712:	492e      	ldr	r1, [pc, #184]	; (80037cc <controller_initialize+0xbc>)
 8003714:	2201      	movs	r2, #1
	HAL_ADCEx_InjectedStart_IT(&hadc1);

	//   
	mRead_flash();

	  HAL_GetUID(unique_ID);
 8003716:	4c2e      	ldr	r4, [pc, #184]	; (80037d0 <controller_initialize+0xc0>)
	HAL_UART_Receive_IT(&huart1, &recCommandByte, 1);
 8003718:	482e      	ldr	r0, [pc, #184]	; (80037d4 <controller_initialize+0xc4>)
 800371a:	f7fe fba7 	bl	8001e6c <HAL_UART_Receive_IT>
	HAL_ADCEx_InjectedStart_IT(&hadc1);
 800371e:	482e      	ldr	r0, [pc, #184]	; (80037d8 <controller_initialize+0xc8>)
 8003720:	f7fd f8cc 	bl	80008bc <HAL_ADCEx_InjectedStart_IT>
	mRead_flash();
 8003724:	f000 f89c 	bl	8003860 <mRead_flash>
	  HAL_GetUID(unique_ID);
 8003728:	4620      	mov	r0, r4
 800372a:	f7fc ff65 	bl	80005f8 <HAL_GetUID>
	  server_UID = (unique_ID[0] + unique_ID[1] + unique_ID[2]) / 65536;
 800372e:	e894 000c 	ldmia.w	r4, {r2, r3}
 8003732:	4413      	add	r3, r2
 8003734:	68a2      	ldr	r2, [r4, #8]
 8003736:	4413      	add	r3, r2
 8003738:	4a28      	ldr	r2, [pc, #160]	; (80037dc <controller_initialize+0xcc>)
 800373a:	0c1b      	lsrs	r3, r3, #16
 800373c:	8013      	strh	r3, [r2, #0]
#if DEBUG_SERIAL
	print_settings();
#endif

	// 
	init_RF433();
 800373e:	f7ff ffdf 	bl	8003700 <init_RF433>

	vSemaphoreCreateBinary(xPressureCompensationSemaphore);
 8003742:	2203      	movs	r2, #3
 8003744:	2100      	movs	r1, #0
 8003746:	2001      	movs	r0, #1
 8003748:	f7ff f860 	bl	800280c <xQueueGenericCreate>
 800374c:	4a24      	ldr	r2, [pc, #144]	; (80037e0 <controller_initialize+0xd0>)
 800374e:	6010      	str	r0, [r2, #0]
 8003750:	b120      	cbz	r0, 800375c <controller_initialize+0x4c>
 8003752:	2300      	movs	r3, #0
 8003754:	461a      	mov	r2, r3
 8003756:	4619      	mov	r1, r3
 8003758:	f7ff f87a 	bl	8002850 <xQueueGenericSend>
		uint32_t fre=xPortGetFreeHeapSize();
		sprintf(message, "Free heap: %ld\r\n", fre);
		HAL_UART_Transmit(&huart1, (uint8_t*)message, strlen(message), 0xFFFF);
	#endif

	xTaskCreate(xBlynkTask,
 800375c:	2400      	movs	r4, #0
 800375e:	2501      	movs	r5, #1
 8003760:	4623      	mov	r3, r4
 8003762:	9401      	str	r4, [sp, #4]
 8003764:	9500      	str	r5, [sp, #0]
 8003766:	22c8      	movs	r2, #200	; 0xc8
 8003768:	491e      	ldr	r1, [pc, #120]	; (80037e4 <controller_initialize+0xd4>)
 800376a:	481f      	ldr	r0, [pc, #124]	; (80037e8 <controller_initialize+0xd8>)
 800376c:	f7ff faae 	bl	8002ccc <xTaskCreate>
		fre=xPortGetFreeHeapSize();
		sprintf(message, "heap after Blynk: %ld\r\n", fre);
		HAL_UART_Transmit(&huart1, (uint8_t*)message, strlen(message), 0xFFFF);
	#endif

	xTaskCreate(xScanButtonsTask,
 8003770:	4623      	mov	r3, r4
 8003772:	9401      	str	r4, [sp, #4]
 8003774:	9500      	str	r5, [sp, #0]
 8003776:	22c8      	movs	r2, #200	; 0xc8
 8003778:	491c      	ldr	r1, [pc, #112]	; (80037ec <controller_initialize+0xdc>)
 800377a:	481d      	ldr	r0, [pc, #116]	; (80037f0 <controller_initialize+0xe0>)
 800377c:	f7ff faa6 	bl	8002ccc <xTaskCreate>
		fre=xPortGetFreeHeapSize();
		sprintf(message, "heap after Scan: %ld\r\n", fre);
		HAL_UART_Transmit(&huart1, (uint8_t*) str, strlen(str), 0xFFFF);
	#endif

	xTaskCreate(xStoreADCDataTask,
 8003780:	4623      	mov	r3, r4
 8003782:	9401      	str	r4, [sp, #4]
 8003784:	9500      	str	r5, [sp, #0]
 8003786:	f44f 7200 	mov.w	r2, #512	; 0x200
 800378a:	491a      	ldr	r1, [pc, #104]	; (80037f4 <controller_initialize+0xe4>)
 800378c:	481a      	ldr	r0, [pc, #104]	; (80037f8 <controller_initialize+0xe8>)
 800378e:	f7ff fa9d 	bl	8002ccc <xTaskCreate>
		fre=xPortGetFreeHeapSize();
		sprintf(message, "heap after SADCData: %ld\r\n", fre);
		HAL_UART_Transmit(&huart1, (uint8_t*)message, strlen(message), 0xFFFF);
	#endif

	xTaskCreate(xProcessCommandTask,
 8003792:	2303      	movs	r3, #3
 8003794:	9401      	str	r4, [sp, #4]
 8003796:	9300      	str	r3, [sp, #0]
 8003798:	f44f 7200 	mov.w	r2, #512	; 0x200
 800379c:	4623      	mov	r3, r4
 800379e:	4917      	ldr	r1, [pc, #92]	; (80037fc <controller_initialize+0xec>)
 80037a0:	4817      	ldr	r0, [pc, #92]	; (8003800 <controller_initialize+0xf0>)
 80037a2:	f7ff fa93 	bl	8002ccc <xTaskCreate>
		fre=xPortGetFreeHeapSize();
		sprintf(message, "heap after ProcCmd: %ld\r\n", fre);
		HAL_UART_Transmit(&huart1, (uint8_t*)message, strlen(message), 0xFFFF);
	#endif

	xTaskCreate(xAnalyzeTask,
 80037a6:	4623      	mov	r3, r4
 80037a8:	9401      	str	r4, [sp, #4]
 80037aa:	9500      	str	r5, [sp, #0]
 80037ac:	f44f 72c8 	mov.w	r2, #400	; 0x190
 80037b0:	4914      	ldr	r1, [pc, #80]	; (8003804 <controller_initialize+0xf4>)
 80037b2:	4815      	ldr	r0, [pc, #84]	; (8003808 <controller_initialize+0xf8>)
 80037b4:	f7ff fa8a 	bl	8002ccc <xTaskCreate>
		fre=xPortGetFreeHeapSize();
		sprintf(message, "heap after AnTask: %ld\r\n", fre);
		HAL_UART_Transmit(&huart1, (uint8_t*) message, strlen(message), 0xFFFF);
	#endif

  	xRecCommandQueue = xQueueCreate(COMMAND_QUEUE_SIZE, MAX_COMMAND_LENGTH);
 80037b8:	4622      	mov	r2, r4
 80037ba:	2140      	movs	r1, #64	; 0x40
 80037bc:	2002      	movs	r0, #2
 80037be:	f7ff f825 	bl	800280c <xQueueGenericCreate>
 80037c2:	4b12      	ldr	r3, [pc, #72]	; (800380c <controller_initialize+0xfc>)
 80037c4:	6018      	str	r0, [r3, #0]
  	#if DEBUG_SERIAL
  		fre=xPortGetFreeHeapSize();
  		sprintf(message, "heap after queue: %ld\r\n", fre);
  		HAL_UART_Transmit(&huart1, (uint8_t*)message, strlen(message), 0xFFFF);
  	#endif
}
 80037c6:	b003      	add	sp, #12
 80037c8:	bd30      	pop	{r4, r5, pc}
 80037ca:	bf00      	nop
 80037cc:	200053bc 	.word	0x200053bc
 80037d0:	20005168 	.word	0x20005168
 80037d4:	2000536c 	.word	0x2000536c
 80037d8:	2000533c 	.word	0x2000533c
 80037dc:	2000522a 	.word	0x2000522a
 80037e0:	200052f4 	.word	0x200052f4
 80037e4:	08005616 	.word	0x08005616
 80037e8:	080036e5 	.word	0x080036e5
 80037ec:	0800561c 	.word	0x0800561c
 80037f0:	080034f9 	.word	0x080034f9
 80037f4:	08005621 	.word	0x08005621
 80037f8:	080040d1 	.word	0x080040d1
 80037fc:	0800562a 	.word	0x0800562a
 8003800:	08003b85 	.word	0x08003b85
 8003804:	08005632 	.word	0x08005632
 8003808:	0800357d 	.word	0x0800357d
 800380c:	200053b8 	.word	0x200053b8

08003810 <mWrite_flash>:

extern UART_HandleTypeDef huart1;

extern struct controllerData controllerSettings;

void mWrite_flash(void){
 8003810:	b570      	push	{r4, r5, r6, lr}
 8003812:	b086      	sub	sp, #24
	FLASH_EraseInitTypeDef EraseInitStruct;
	uint32_t pageError;
	uint16_t i;

	HAL_FLASH_Unlock();
 8003814:	f7fd fc00 	bl	8001018 <HAL_FLASH_Unlock>

	EraseInitStruct.TypeErase = FLASH_TYPEERASE_PAGES;
 8003818:	2300      	movs	r3, #0
 800381a:	9302      	str	r3, [sp, #8]
	EraseInitStruct.PageAddress = SETTINGS_FLASH_PAGE_ADDR;
	EraseInitStruct.NbPages = 1;
 800381c:	2301      	movs	r3, #1
	EraseInitStruct.PageAddress = SETTINGS_FLASH_PAGE_ADDR;
 800381e:	4c0d      	ldr	r4, [pc, #52]	; (8003854 <mWrite_flash+0x44>)

	if(HAL_FLASHEx_Erase(&EraseInitStruct, &pageError) != HAL_OK){
 8003820:	a901      	add	r1, sp, #4
 8003822:	a802      	add	r0, sp, #8
	EraseInitStruct.PageAddress = SETTINGS_FLASH_PAGE_ADDR;
 8003824:	9404      	str	r4, [sp, #16]
	EraseInitStruct.NbPages = 1;
 8003826:	9305      	str	r3, [sp, #20]
	if(HAL_FLASHEx_Erase(&EraseInitStruct, &pageError) != HAL_OK){
 8003828:	f7fd fca6 	bl	8001178 <HAL_FLASHEx_Erase>
	}

	uint32_t *source_addr = (void *)&controllerSettings;
	uint32_t *dest_addr = (uint32_t *) SETTINGS_FLASH_PAGE_ADDR;
	for (i=0; i<CONTROLLER_LENGTH_WORDS; i++) {
		if (HAL_FLASH_Program(FLASH_TYPEPROGRAM_WORD,(uint32_t)dest_addr, *source_addr)!= HAL_OK){
 800382c:	4e0a      	ldr	r6, [pc, #40]	; (8003858 <mWrite_flash+0x48>)
	for (i=0; i<CONTROLLER_LENGTH_WORDS; i++) {
 800382e:	4d0b      	ldr	r5, [pc, #44]	; (800385c <mWrite_flash+0x4c>)
		if (HAL_FLASH_Program(FLASH_TYPEPROGRAM_WORD,(uint32_t)dest_addr, *source_addr)!= HAL_OK){
 8003830:	f104 4378 	add.w	r3, r4, #4160749568	; 0xf8000000
 8003834:	f5a3 33fe 	sub.w	r3, r3, #130048	; 0x1fc00
 8003838:	599a      	ldr	r2, [r3, r6]
 800383a:	4621      	mov	r1, r4
 800383c:	2300      	movs	r3, #0
 800383e:	2002      	movs	r0, #2
			#if DEBUG_SERIAL
				HAL_UART_Transmit(&huart1, (uint8_t*) "Write Flash Error\r\n", 19, 0x1000);
			#endif
		}
		source_addr++;
		dest_addr++;
 8003840:	3404      	adds	r4, #4
		if (HAL_FLASH_Program(FLASH_TYPEPROGRAM_WORD,(uint32_t)dest_addr, *source_addr)!= HAL_OK){
 8003842:	f7fd fc2f 	bl	80010a4 <HAL_FLASH_Program>
	for (i=0; i<CONTROLLER_LENGTH_WORDS; i++) {
 8003846:	42ac      	cmp	r4, r5
 8003848:	d1f2      	bne.n	8003830 <mWrite_flash+0x20>
	}

	HAL_FLASH_Lock();
 800384a:	f7fd fbf7 	bl	800103c <HAL_FLASH_Lock>

	#if DEBUG_SERIAL
		HAL_UART_Transmit(&huart1, (uint8_t*) "Flash ok\r\n", 10, 0x1000);
	#endif
}
 800384e:	b006      	add	sp, #24
 8003850:	bd70      	pop	{r4, r5, r6, pc}
 8003852:	bf00      	nop
 8003854:	0801fc00 	.word	0x0801fc00
 8003858:	20005174 	.word	0x20005174
 800385c:	0801fc24 	.word	0x0801fc24

08003860 <mRead_flash>:

void mRead_flash(void){
 8003860:	b510      	push	{r4, lr}
	#if DEBUG_SERIAL
		HAL_UART_Transmit(&huart1, (uint8_t*) "reading flash\r\n", 15, 0x1000);
	#endif
	uint32_t *source_addr = (uint32_t *)SETTINGS_FLASH_PAGE_ADDR;
 8003862:	4b06      	ldr	r3, [pc, #24]	; (800387c <mRead_flash+0x1c>)
    uint32_t *dest_addr = (void*)&controllerSettings;

    for (uint16_t i=0; i<CONTROLLER_LENGTH_WORDS; i++) {
        *dest_addr = *(__IO uint32_t*)source_addr;
 8003864:	4806      	ldr	r0, [pc, #24]	; (8003880 <mRead_flash+0x20>)
    for (uint16_t i=0; i<CONTROLLER_LENGTH_WORDS; i++) {
 8003866:	4907      	ldr	r1, [pc, #28]	; (8003884 <mRead_flash+0x24>)
        *dest_addr = *(__IO uint32_t*)source_addr;
 8003868:	681c      	ldr	r4, [r3, #0]
 800386a:	f103 4278 	add.w	r2, r3, #4160749568	; 0xf8000000
        source_addr++;
 800386e:	3304      	adds	r3, #4
        *dest_addr = *(__IO uint32_t*)source_addr;
 8003870:	f5a2 32fe 	sub.w	r2, r2, #130048	; 0x1fc00
    for (uint16_t i=0; i<CONTROLLER_LENGTH_WORDS; i++) {
 8003874:	428b      	cmp	r3, r1
        *dest_addr = *(__IO uint32_t*)source_addr;
 8003876:	5014      	str	r4, [r2, r0]
    for (uint16_t i=0; i<CONTROLLER_LENGTH_WORDS; i++) {
 8003878:	d1f6      	bne.n	8003868 <mRead_flash+0x8>
    }

	#if DEBUG_SERIAL
		HAL_UART_Transmit(&huart1, (uint8_t*) "Flash read\r\n", 12, 0x1000);
	#endif
}
 800387a:	bd10      	pop	{r4, pc}
 800387c:	0801fc00 	.word	0x0801fc00
 8003880:	20005174 	.word	0x20005174
 8003884:	0801fc24 	.word	0x0801fc24

08003888 <SystemClock_Config>:
  * @brief System Clock Configuration
  * @retval None
  */
void SystemClock_Config(void)
{
  RCC_OscInitTypeDef RCC_OscInitStruct = {0};
 8003888:	2238      	movs	r2, #56	; 0x38
{
 800388a:	b530      	push	{r4, r5, lr}
 800388c:	b09d      	sub	sp, #116	; 0x74
  RCC_OscInitTypeDef RCC_OscInitStruct = {0};
 800388e:	eb0d 0002 	add.w	r0, sp, r2
 8003892:	2100      	movs	r1, #0
 8003894:	f000 fd6b 	bl	800436e <memset>
  RCC_ClkInitTypeDef RCC_ClkInitStruct = {0};
 8003898:	2214      	movs	r2, #20
 800389a:	2100      	movs	r1, #0
 800389c:	a801      	add	r0, sp, #4
 800389e:	f000 fd66 	bl	800436e <memset>
  RCC_PeriphCLKInitTypeDef PeriphClkInit = {0};
 80038a2:	2220      	movs	r2, #32
 80038a4:	2100      	movs	r1, #0
 80038a6:	a806      	add	r0, sp, #24
 80038a8:	f000 fd61 	bl	800436e <memset>

  /** Initializes the CPU, AHB and APB busses clocks 
  */
  RCC_OscInitStruct.OscillatorType = RCC_OSCILLATORTYPE_HSE;
  RCC_OscInitStruct.HSEState = RCC_HSE_ON;
 80038ac:	f44f 3380 	mov.w	r3, #65536	; 0x10000
  RCC_OscInitStruct.HSEPredivValue = RCC_HSE_PREDIV_DIV1;
  RCC_OscInitStruct.HSIState = RCC_HSI_ON;
  RCC_OscInitStruct.Prediv1Source = RCC_PREDIV1_SOURCE_HSE;
  RCC_OscInitStruct.PLL.PLLState = RCC_PLL_ON;
 80038b0:	2402      	movs	r4, #2
  RCC_OscInitStruct.OscillatorType = RCC_OSCILLATORTYPE_HSE;
 80038b2:	2501      	movs	r5, #1
  RCC_OscInitStruct.HSEState = RCC_HSE_ON;
 80038b4:	9310      	str	r3, [sp, #64]	; 0x40
  RCC_OscInitStruct.PLL.PLLSource = RCC_PLLSOURCE_HSE;
 80038b6:	9317      	str	r3, [sp, #92]	; 0x5c
  RCC_OscInitStruct.PLL.PLLMUL = RCC_PLL_MUL8;
 80038b8:	f44f 13c0 	mov.w	r3, #1572864	; 0x180000
  RCC_OscInitStruct.PLL2.PLL2State = RCC_PLL_NONE;
  if (HAL_RCC_OscConfig(&RCC_OscInitStruct) != HAL_OK)
 80038bc:	a80e      	add	r0, sp, #56	; 0x38
  RCC_OscInitStruct.PLL.PLLMUL = RCC_PLL_MUL8;
 80038be:	9318      	str	r3, [sp, #96]	; 0x60
  RCC_OscInitStruct.OscillatorType = RCC_OSCILLATORTYPE_HSE;
 80038c0:	950e      	str	r5, [sp, #56]	; 0x38
  RCC_OscInitStruct.HSIState = RCC_HSI_ON;
 80038c2:	9513      	str	r5, [sp, #76]	; 0x4c
  RCC_OscInitStruct.PLL.PLLState = RCC_PLL_ON;
 80038c4:	9416      	str	r4, [sp, #88]	; 0x58
  if (HAL_RCC_OscConfig(&RCC_OscInitStruct) != HAL_OK)
 80038c6:	f7fd fd95 	bl	80013f4 <HAL_RCC_OscConfig>
  {
    Error_Handler();
  }
  /** Initializes the CPU, AHB and APB busses clocks 
  */
  RCC_ClkInitStruct.ClockType = RCC_CLOCKTYPE_HCLK|RCC_CLOCKTYPE_SYSCLK
 80038ca:	230f      	movs	r3, #15
 80038cc:	9301      	str	r3, [sp, #4]
                              |RCC_CLOCKTYPE_PCLK1|RCC_CLOCKTYPE_PCLK2;
  RCC_ClkInitStruct.SYSCLKSource = RCC_SYSCLKSOURCE_PLLCLK;
  RCC_ClkInitStruct.AHBCLKDivider = RCC_SYSCLK_DIV1;
 80038ce:	2300      	movs	r3, #0
 80038d0:	9303      	str	r3, [sp, #12]
  RCC_ClkInitStruct.APB1CLKDivider = RCC_HCLK_DIV2;
 80038d2:	f44f 6380 	mov.w	r3, #1024	; 0x400
  RCC_ClkInitStruct.APB2CLKDivider = RCC_HCLK_DIV2;

  if (HAL_RCC_ClockConfig(&RCC_ClkInitStruct, FLASH_LATENCY_2) != HAL_OK)
 80038d6:	4621      	mov	r1, r4
 80038d8:	a801      	add	r0, sp, #4
  RCC_ClkInitStruct.APB1CLKDivider = RCC_HCLK_DIV2;
 80038da:	9304      	str	r3, [sp, #16]
  RCC_ClkInitStruct.APB2CLKDivider = RCC_HCLK_DIV2;
 80038dc:	9305      	str	r3, [sp, #20]
  RCC_ClkInitStruct.SYSCLKSource = RCC_SYSCLKSOURCE_PLLCLK;
 80038de:	9402      	str	r4, [sp, #8]
  if (HAL_RCC_ClockConfig(&RCC_ClkInitStruct, FLASH_LATENCY_2) != HAL_OK)
 80038e0:	f7fd ffd6 	bl	8001890 <HAL_RCC_ClockConfig>
  {
    Error_Handler();
  }
  PeriphClkInit.PeriphClockSelection = RCC_PERIPHCLK_ADC;
  PeriphClkInit.AdcClockSelection = RCC_ADCPCLK2_DIV4;
 80038e4:	f44f 4380 	mov.w	r3, #16384	; 0x4000
  if (HAL_RCCEx_PeriphCLKConfig(&PeriphClkInit) != HAL_OK)
 80038e8:	a806      	add	r0, sp, #24
  PeriphClkInit.AdcClockSelection = RCC_ADCPCLK2_DIV4;
 80038ea:	9308      	str	r3, [sp, #32]
  PeriphClkInit.PeriphClockSelection = RCC_PERIPHCLK_ADC;
 80038ec:	9406      	str	r4, [sp, #24]
  if (HAL_RCCEx_PeriphCLKConfig(&PeriphClkInit) != HAL_OK)
 80038ee:	f7fe f8a1 	bl	8001a34 <HAL_RCCEx_PeriphCLKConfig>
  {
    Error_Handler();
  }
  /** Configure the Systick interrupt time 
  */
  __HAL_RCC_PLLI2S_ENABLE();
 80038f2:	4b02      	ldr	r3, [pc, #8]	; (80038fc <SystemClock_Config+0x74>)
 80038f4:	601d      	str	r5, [r3, #0]
}
 80038f6:	b01d      	add	sp, #116	; 0x74
 80038f8:	bd30      	pop	{r4, r5, pc}
 80038fa:	bf00      	nop
 80038fc:	42420070 	.word	0x42420070

08003900 <main>:
{
 8003900:	b580      	push	{r7, lr}
static void MX_GPIO_Init(void)
{
  GPIO_InitTypeDef GPIO_InitStruct = {0};

  /* GPIO Ports Clock Enable */
  __HAL_RCC_GPIOD_CLK_ENABLE();
 8003902:	4d6b      	ldr	r5, [pc, #428]	; (8003ab0 <main+0x1b0>)
{
 8003904:	b08e      	sub	sp, #56	; 0x38
  HAL_Init();
 8003906:	f7fc fe53 	bl	80005b0 <HAL_Init>
  SystemClock_Config();
 800390a:	f7ff ffbd 	bl	8003888 <SystemClock_Config>
  GPIO_InitTypeDef GPIO_InitStruct = {0};
 800390e:	2210      	movs	r2, #16
 8003910:	2100      	movs	r1, #0
 8003912:	a806      	add	r0, sp, #24
 8003914:	f000 fd2b 	bl	800436e <memset>
  __HAL_RCC_GPIOD_CLK_ENABLE();
 8003918:	69ab      	ldr	r3, [r5, #24]
  __HAL_RCC_GPIOC_CLK_ENABLE();
  __HAL_RCC_GPIOA_CLK_ENABLE();
  __HAL_RCC_GPIOB_CLK_ENABLE();

  /*Configure GPIO pin Output Level */
  HAL_GPIO_WritePin(GPIOC, GPIO_PIN_0|GPIO_PIN_1|GPIO_PIN_2|GPIO_PIN_3 
 800391a:	2200      	movs	r2, #0
  __HAL_RCC_GPIOD_CLK_ENABLE();
 800391c:	f043 0320 	orr.w	r3, r3, #32
 8003920:	61ab      	str	r3, [r5, #24]
 8003922:	69ab      	ldr	r3, [r5, #24]
  HAL_GPIO_WritePin(GPIOC, GPIO_PIN_0|GPIO_PIN_1|GPIO_PIN_2|GPIO_PIN_3 
 8003924:	f641 410f 	movw	r1, #7183	; 0x1c0f
  __HAL_RCC_GPIOD_CLK_ENABLE();
 8003928:	f003 0320 	and.w	r3, r3, #32
 800392c:	9302      	str	r3, [sp, #8]
 800392e:	9b02      	ldr	r3, [sp, #8]
  __HAL_RCC_GPIOC_CLK_ENABLE();
 8003930:	69ab      	ldr	r3, [r5, #24]
  HAL_GPIO_WritePin(GPIOC, GPIO_PIN_0|GPIO_PIN_1|GPIO_PIN_2|GPIO_PIN_3 
 8003932:	4860      	ldr	r0, [pc, #384]	; (8003ab4 <main+0x1b4>)
  __HAL_RCC_GPIOC_CLK_ENABLE();
 8003934:	f043 0310 	orr.w	r3, r3, #16
 8003938:	61ab      	str	r3, [r5, #24]
 800393a:	69ab      	ldr	r3, [r5, #24]
  /*Configure GPIO pins : PC0 PC1 PC2 PC3 
                           PC10 PC11 PC12 */
  GPIO_InitStruct.Pin = GPIO_PIN_0|GPIO_PIN_1|GPIO_PIN_2|GPIO_PIN_3 
                          |GPIO_PIN_10|GPIO_PIN_11|GPIO_PIN_12;
  GPIO_InitStruct.Mode = GPIO_MODE_OUTPUT_PP;
  GPIO_InitStruct.Pull = GPIO_NOPULL;
 800393c:	2400      	movs	r4, #0
  __HAL_RCC_GPIOC_CLK_ENABLE();
 800393e:	f003 0310 	and.w	r3, r3, #16
 8003942:	9303      	str	r3, [sp, #12]
 8003944:	9b03      	ldr	r3, [sp, #12]
  __HAL_RCC_GPIOA_CLK_ENABLE();
 8003946:	69ab      	ldr	r3, [r5, #24]
  GPIO_InitStruct.Mode = GPIO_MODE_OUTPUT_PP;
 8003948:	2601      	movs	r6, #1
  __HAL_RCC_GPIOA_CLK_ENABLE();
 800394a:	f043 0304 	orr.w	r3, r3, #4
 800394e:	61ab      	str	r3, [r5, #24]
 8003950:	69ab      	ldr	r3, [r5, #24]

  /*Configure GPIO pin : PA15 */
  GPIO_InitStruct.Pin = GPIO_PIN_15;
  GPIO_InitStruct.Mode = GPIO_MODE_OUTPUT_PP;
  GPIO_InitStruct.Pull = GPIO_NOPULL;
  GPIO_InitStruct.Speed = GPIO_SPEED_FREQ_LOW;
 8003952:	f04f 0802 	mov.w	r8, #2
  __HAL_RCC_GPIOA_CLK_ENABLE();
 8003956:	f003 0304 	and.w	r3, r3, #4
 800395a:	9304      	str	r3, [sp, #16]
 800395c:	9b04      	ldr	r3, [sp, #16]
  __HAL_RCC_GPIOB_CLK_ENABLE();
 800395e:	69ab      	ldr	r3, [r5, #24]
  HAL_GPIO_Init(GPIOA, &GPIO_InitStruct);

  /*Configure GPIO pin : PD2 */
  GPIO_InitStruct.Pin = GPIO_PIN_2;
 8003960:	2704      	movs	r7, #4
  __HAL_RCC_GPIOB_CLK_ENABLE();
 8003962:	f043 0308 	orr.w	r3, r3, #8
 8003966:	61ab      	str	r3, [r5, #24]
 8003968:	69ab      	ldr	r3, [r5, #24]
 800396a:	f003 0308 	and.w	r3, r3, #8
 800396e:	9305      	str	r3, [sp, #20]
 8003970:	9b05      	ldr	r3, [sp, #20]
  HAL_GPIO_WritePin(GPIOC, GPIO_PIN_0|GPIO_PIN_1|GPIO_PIN_2|GPIO_PIN_3 
 8003972:	f7fd fd35 	bl	80013e0 <HAL_GPIO_WritePin>
  HAL_GPIO_WritePin(GPIOA, GPIO_PIN_15, GPIO_PIN_RESET);
 8003976:	2200      	movs	r2, #0
 8003978:	f44f 4100 	mov.w	r1, #32768	; 0x8000
 800397c:	484e      	ldr	r0, [pc, #312]	; (8003ab8 <main+0x1b8>)
 800397e:	f7fd fd2f 	bl	80013e0 <HAL_GPIO_WritePin>
  HAL_GPIO_WritePin(GPIOD, GPIO_PIN_2, GPIO_PIN_SET);
 8003982:	2201      	movs	r2, #1
 8003984:	2104      	movs	r1, #4
 8003986:	484d      	ldr	r0, [pc, #308]	; (8003abc <main+0x1bc>)
 8003988:	f7fd fd2a 	bl	80013e0 <HAL_GPIO_WritePin>
  HAL_GPIO_WritePin(GPIOB, GPIO_PIN_6|GPIO_PIN_7|GPIO_PIN_8|GPIO_PIN_9, GPIO_PIN_RESET);
 800398c:	2200      	movs	r2, #0
 800398e:	f44f 7170 	mov.w	r1, #960	; 0x3c0
 8003992:	484b      	ldr	r0, [pc, #300]	; (8003ac0 <main+0x1c0>)
 8003994:	f7fd fd24 	bl	80013e0 <HAL_GPIO_WritePin>
  GPIO_InitStruct.Pin = GPIO_PIN_0|GPIO_PIN_1|GPIO_PIN_2|GPIO_PIN_3 
 8003998:	f641 430f 	movw	r3, #7183	; 0x1c0f
  HAL_GPIO_Init(GPIOC, &GPIO_InitStruct);
 800399c:	a906      	add	r1, sp, #24
 800399e:	4845      	ldr	r0, [pc, #276]	; (8003ab4 <main+0x1b4>)
  GPIO_InitStruct.Pin = GPIO_PIN_0|GPIO_PIN_1|GPIO_PIN_2|GPIO_PIN_3 
 80039a0:	9306      	str	r3, [sp, #24]
  GPIO_InitStruct.Mode = GPIO_MODE_OUTPUT_PP;
 80039a2:	9607      	str	r6, [sp, #28]
  GPIO_InitStruct.Pull = GPIO_NOPULL;
 80039a4:	9408      	str	r4, [sp, #32]
  GPIO_InitStruct.Speed = GPIO_SPEED_FREQ_MEDIUM;
 80039a6:	9609      	str	r6, [sp, #36]	; 0x24
  HAL_GPIO_Init(GPIOC, &GPIO_InitStruct);
 80039a8:	f7fd fc34 	bl	8001214 <HAL_GPIO_Init>
  GPIO_InitStruct.Pin = GPIO_PIN_8|GPIO_PIN_9;
 80039ac:	f44f 7340 	mov.w	r3, #768	; 0x300
  HAL_GPIO_Init(GPIOC, &GPIO_InitStruct);
 80039b0:	a906      	add	r1, sp, #24
 80039b2:	4840      	ldr	r0, [pc, #256]	; (8003ab4 <main+0x1b4>)
  GPIO_InitStruct.Pin = GPIO_PIN_8|GPIO_PIN_9;
 80039b4:	9306      	str	r3, [sp, #24]
  GPIO_InitStruct.Mode = GPIO_MODE_INPUT;
 80039b6:	9407      	str	r4, [sp, #28]
  GPIO_InitStruct.Pull = GPIO_NOPULL;
 80039b8:	9408      	str	r4, [sp, #32]
  HAL_GPIO_Init(GPIOC, &GPIO_InitStruct);
 80039ba:	f7fd fc2b 	bl	8001214 <HAL_GPIO_Init>
  GPIO_InitStruct.Pin = GPIO_PIN_15;
 80039be:	f44f 4300 	mov.w	r3, #32768	; 0x8000
  HAL_GPIO_Init(GPIOA, &GPIO_InitStruct);
 80039c2:	a906      	add	r1, sp, #24
 80039c4:	483c      	ldr	r0, [pc, #240]	; (8003ab8 <main+0x1b8>)
  GPIO_InitStruct.Pin = GPIO_PIN_15;
 80039c6:	9306      	str	r3, [sp, #24]
  GPIO_InitStruct.Mode = GPIO_MODE_OUTPUT_PP;
 80039c8:	9607      	str	r6, [sp, #28]
  GPIO_InitStruct.Pull = GPIO_NOPULL;
 80039ca:	9408      	str	r4, [sp, #32]
  GPIO_InitStruct.Speed = GPIO_SPEED_FREQ_LOW;
 80039cc:	f8cd 8024 	str.w	r8, [sp, #36]	; 0x24
  HAL_GPIO_Init(GPIOA, &GPIO_InitStruct);
 80039d0:	f7fd fc20 	bl	8001214 <HAL_GPIO_Init>
  GPIO_InitStruct.Mode = GPIO_MODE_OUTPUT_PP;
  GPIO_InitStruct.Pull = GPIO_NOPULL;
  GPIO_InitStruct.Speed = GPIO_SPEED_FREQ_MEDIUM;
  HAL_GPIO_Init(GPIOD, &GPIO_InitStruct);
 80039d4:	a906      	add	r1, sp, #24
 80039d6:	4839      	ldr	r0, [pc, #228]	; (8003abc <main+0x1bc>)
  GPIO_InitStruct.Pin = GPIO_PIN_2;
 80039d8:	9706      	str	r7, [sp, #24]
  GPIO_InitStruct.Mode = GPIO_MODE_OUTPUT_PP;
 80039da:	9607      	str	r6, [sp, #28]
  GPIO_InitStruct.Pull = GPIO_NOPULL;
 80039dc:	9408      	str	r4, [sp, #32]
  GPIO_InitStruct.Speed = GPIO_SPEED_FREQ_MEDIUM;
 80039de:	9609      	str	r6, [sp, #36]	; 0x24
  HAL_GPIO_Init(GPIOD, &GPIO_InitStruct);
 80039e0:	f7fd fc18 	bl	8001214 <HAL_GPIO_Init>

  /*Configure GPIO pins : PB6 PB7 PB8 PB9 */
  GPIO_InitStruct.Pin = GPIO_PIN_6|GPIO_PIN_7|GPIO_PIN_8|GPIO_PIN_9;
 80039e4:	f44f 7370 	mov.w	r3, #960	; 0x3c0
  GPIO_InitStruct.Mode = GPIO_MODE_OUTPUT_PP;
  GPIO_InitStruct.Pull = GPIO_NOPULL;
  GPIO_InitStruct.Speed = GPIO_SPEED_FREQ_MEDIUM;
  HAL_GPIO_Init(GPIOB, &GPIO_InitStruct);
 80039e8:	a906      	add	r1, sp, #24
 80039ea:	4835      	ldr	r0, [pc, #212]	; (8003ac0 <main+0x1c0>)
  GPIO_InitStruct.Pin = GPIO_PIN_6|GPIO_PIN_7|GPIO_PIN_8|GPIO_PIN_9;
 80039ec:	9306      	str	r3, [sp, #24]
  GPIO_InitStruct.Mode = GPIO_MODE_OUTPUT_PP;
 80039ee:	9607      	str	r6, [sp, #28]
  GPIO_InitStruct.Pull = GPIO_NOPULL;
 80039f0:	9408      	str	r4, [sp, #32]
  GPIO_InitStruct.Speed = GPIO_SPEED_FREQ_MEDIUM;
 80039f2:	9609      	str	r6, [sp, #36]	; 0x24
  HAL_GPIO_Init(GPIOB, &GPIO_InitStruct);
 80039f4:	f7fd fc0e 	bl	8001214 <HAL_GPIO_Init>
  __HAL_RCC_DMA1_CLK_ENABLE();
 80039f8:	696b      	ldr	r3, [r5, #20]
  HAL_NVIC_SetPriority(DMA1_Channel4_IRQn, 5, 0);
 80039fa:	4622      	mov	r2, r4
  __HAL_RCC_DMA1_CLK_ENABLE();
 80039fc:	4333      	orrs	r3, r6
 80039fe:	616b      	str	r3, [r5, #20]
 8003a00:	696b      	ldr	r3, [r5, #20]
  HAL_NVIC_SetPriority(DMA1_Channel4_IRQn, 5, 0);
 8003a02:	2105      	movs	r1, #5
  __HAL_RCC_DMA1_CLK_ENABLE();
 8003a04:	4033      	ands	r3, r6
 8003a06:	9301      	str	r3, [sp, #4]
  HAL_NVIC_SetPriority(DMA1_Channel4_IRQn, 5, 0);
 8003a08:	200e      	movs	r0, #14
  __HAL_RCC_DMA1_CLK_ENABLE();
 8003a0a:	9b01      	ldr	r3, [sp, #4]
  HAL_NVIC_SetPriority(DMA1_Channel4_IRQn, 5, 0);
 8003a0c:	f7fd f8be 	bl	8000b8c <HAL_NVIC_SetPriority>
  HAL_NVIC_EnableIRQ(DMA1_Channel4_IRQn);
 8003a10:	200e      	movs	r0, #14
 8003a12:	f7fd f8ef 	bl	8000bf4 <HAL_NVIC_EnableIRQ>
  ADC_InjectionConfTypeDef sConfigInjected = {0};
 8003a16:	2220      	movs	r2, #32
 8003a18:	4621      	mov	r1, r4
 8003a1a:	a806      	add	r0, sp, #24
 8003a1c:	f000 fca7 	bl	800436e <memset>
  hadc1.Instance = ADC1;
 8003a20:	4d28      	ldr	r5, [pc, #160]	; (8003ac4 <main+0x1c4>)
 8003a22:	4b29      	ldr	r3, [pc, #164]	; (8003ac8 <main+0x1c8>)
  if (HAL_ADC_Init(&hadc1) != HAL_OK)
 8003a24:	4628      	mov	r0, r5
  hadc1.Instance = ADC1;
 8003a26:	602b      	str	r3, [r5, #0]
  hadc1.Init.ScanConvMode = ADC_SCAN_ENABLE;
 8003a28:	f44f 7380 	mov.w	r3, #256	; 0x100
 8003a2c:	60ab      	str	r3, [r5, #8]
  hadc1.Init.ExternalTrigConv = ADC_SOFTWARE_START;
 8003a2e:	f44f 2360 	mov.w	r3, #917504	; 0xe0000
  hadc1.Init.ContinuousConvMode = DISABLE;
 8003a32:	60ec      	str	r4, [r5, #12]
  hadc1.Init.ExternalTrigConv = ADC_SOFTWARE_START;
 8003a34:	61eb      	str	r3, [r5, #28]
  hadc1.Init.DiscontinuousConvMode = DISABLE;
 8003a36:	616c      	str	r4, [r5, #20]
  hadc1.Init.DataAlign = ADC_DATAALIGN_RIGHT;
 8003a38:	606c      	str	r4, [r5, #4]
  hadc1.Init.NbrOfConversion = 1;
 8003a3a:	612e      	str	r6, [r5, #16]
  if (HAL_ADC_Init(&hadc1) != HAL_OK)
 8003a3c:	f7fc febe 	bl	80007bc <HAL_ADC_Init>
  sConfigInjected.InjectedSamplingTime = ADC_SAMPLETIME_71CYCLES_5;
 8003a40:	2306      	movs	r3, #6
 8003a42:	9308      	str	r3, [sp, #32]
  sConfigInjected.ExternalTrigInjecConv = ADC_INJECTED_SOFTWARE_START;
 8003a44:	f44f 43e0 	mov.w	r3, #28672	; 0x7000
  if (HAL_ADCEx_InjectedConfigChannel(&hadc1, &sConfigInjected) != HAL_OK)
 8003a48:	a906      	add	r1, sp, #24
 8003a4a:	4628      	mov	r0, r5
  sConfigInjected.ExternalTrigInjecConv = ADC_INJECTED_SOFTWARE_START;
 8003a4c:	930d      	str	r3, [sp, #52]	; 0x34
  sConfigInjected.InjectedChannel = ADC_CHANNEL_1;
 8003a4e:	9606      	str	r6, [sp, #24]
  sConfigInjected.InjectedRank = ADC_INJECTED_RANK_1;
 8003a50:	9607      	str	r6, [sp, #28]
  sConfigInjected.InjectedNbrOfConversion = 4;
 8003a52:	970a      	str	r7, [sp, #40]	; 0x28
  sConfigInjected.AutoInjectedConv = DISABLE;
 8003a54:	940c      	str	r4, [sp, #48]	; 0x30
  sConfigInjected.InjectedDiscontinuousConvMode = DISABLE;
 8003a56:	940b      	str	r4, [sp, #44]	; 0x2c
  sConfigInjected.InjectedOffset = 0;
 8003a58:	9409      	str	r4, [sp, #36]	; 0x24
  if (HAL_ADCEx_InjectedConfigChannel(&hadc1, &sConfigInjected) != HAL_OK)
 8003a5a:	f7fc ff99 	bl	8000990 <HAL_ADCEx_InjectedConfigChannel>
  if (HAL_ADCEx_InjectedConfigChannel(&hadc1, &sConfigInjected) != HAL_OK)
 8003a5e:	a906      	add	r1, sp, #24
 8003a60:	4628      	mov	r0, r5
  sConfigInjected.InjectedChannel = ADC_CHANNEL_2;
 8003a62:	f8cd 8018 	str.w	r8, [sp, #24]
  sConfigInjected.InjectedRank = ADC_INJECTED_RANK_2;
 8003a66:	f8cd 801c 	str.w	r8, [sp, #28]
  if (HAL_ADCEx_InjectedConfigChannel(&hadc1, &sConfigInjected) != HAL_OK)
 8003a6a:	f7fc ff91 	bl	8000990 <HAL_ADCEx_InjectedConfigChannel>
  sConfigInjected.InjectedChannel = ADC_CHANNEL_3;
 8003a6e:	2303      	movs	r3, #3
  if (HAL_ADCEx_InjectedConfigChannel(&hadc1, &sConfigInjected) != HAL_OK)
 8003a70:	a906      	add	r1, sp, #24
 8003a72:	4628      	mov	r0, r5
  sConfigInjected.InjectedChannel = ADC_CHANNEL_3;
 8003a74:	9306      	str	r3, [sp, #24]
  sConfigInjected.InjectedRank = ADC_INJECTED_RANK_3;
 8003a76:	9307      	str	r3, [sp, #28]
  if (HAL_ADCEx_InjectedConfigChannel(&hadc1, &sConfigInjected) != HAL_OK)
 8003a78:	f7fc ff8a 	bl	8000990 <HAL_ADCEx_InjectedConfigChannel>
  if (HAL_ADCEx_InjectedConfigChannel(&hadc1, &sConfigInjected) != HAL_OK)
 8003a7c:	a906      	add	r1, sp, #24
 8003a7e:	4628      	mov	r0, r5
  sConfigInjected.InjectedChannel = ADC_CHANNEL_4;
 8003a80:	9706      	str	r7, [sp, #24]
  sConfigInjected.InjectedRank = ADC_INJECTED_RANK_4;
 8003a82:	9707      	str	r7, [sp, #28]
  if (HAL_ADCEx_InjectedConfigChannel(&hadc1, &sConfigInjected) != HAL_OK)
 8003a84:	f7fc ff84 	bl	8000990 <HAL_ADCEx_InjectedConfigChannel>
  huart1.Init.BaudRate = 19200;//9600;
 8003a88:	f44f 4396 	mov.w	r3, #19200	; 0x4b00
  huart1.Instance = USART1;
 8003a8c:	480f      	ldr	r0, [pc, #60]	; (8003acc <main+0x1cc>)
  huart1.Init.BaudRate = 19200;//9600;
 8003a8e:	4a10      	ldr	r2, [pc, #64]	; (8003ad0 <main+0x1d0>)
  huart1.Init.WordLength = UART_WORDLENGTH_8B;
 8003a90:	6084      	str	r4, [r0, #8]
  huart1.Init.BaudRate = 19200;//9600;
 8003a92:	e880 000c 	stmia.w	r0, {r2, r3}
  huart1.Init.Mode = UART_MODE_TX_RX;
 8003a96:	230c      	movs	r3, #12
  huart1.Init.StopBits = UART_STOPBITS_1;
 8003a98:	60c4      	str	r4, [r0, #12]
  huart1.Init.Mode = UART_MODE_TX_RX;
 8003a9a:	6143      	str	r3, [r0, #20]
  huart1.Init.Parity = UART_PARITY_NONE;
 8003a9c:	6104      	str	r4, [r0, #16]
  huart1.Init.HwFlowCtl = UART_HWCONTROL_NONE;
 8003a9e:	6184      	str	r4, [r0, #24]
  huart1.Init.OverSampling = UART_OVERSAMPLING_16;
 8003aa0:	61c4      	str	r4, [r0, #28]
  if (HAL_UART_Init(&huart1) != HAL_OK)
 8003aa2:	f7fe f959 	bl	8001d58 <HAL_UART_Init>
  controller_initialize();
 8003aa6:	f7ff fe33 	bl	8003710 <controller_initialize>
  osKernelStart();
 8003aaa:	f7fe fb6d 	bl	8002188 <osKernelStart>
 8003aae:	e7fe      	b.n	8003aae <main+0x1ae>
 8003ab0:	40021000 	.word	0x40021000
 8003ab4:	40011000 	.word	0x40011000
 8003ab8:	40010800 	.word	0x40010800
 8003abc:	40011400 	.word	0x40011400
 8003ac0:	40010c00 	.word	0x40010c00
 8003ac4:	2000533c 	.word	0x2000533c
 8003ac8:	40012400 	.word	0x40012400
 8003acc:	2000536c 	.word	0x2000536c
 8003ad0:	40013800 	.word	0x40013800

08003ad4 <HAL_UART_RxCpltCallback>:
}

/* USER CODE BEGIN 4 */

void HAL_UART_RxCpltCallback(UART_HandleTypeDef *huart){
	if(huart->Instance == USART1){
 8003ad4:	6802      	ldr	r2, [r0, #0]
 8003ad6:	4b16      	ldr	r3, [pc, #88]	; (8003b30 <HAL_UART_RxCpltCallback+0x5c>)
void HAL_UART_RxCpltCallback(UART_HandleTypeDef *huart){
 8003ad8:	b513      	push	{r0, r1, r4, lr}
	if(huart->Instance == USART1){
 8003ada:	429a      	cmp	r2, r3
 8003adc:	d125      	bne.n	8003b2a <HAL_UART_RxCpltCallback+0x56>
		if (recCommandByte != '\r'){
 8003ade:	4b15      	ldr	r3, [pc, #84]	; (8003b34 <HAL_UART_RxCpltCallback+0x60>)
 8003ae0:	781a      	ldrb	r2, [r3, #0]
 8003ae2:	2a0d      	cmp	r2, #13
 8003ae4:	d01c      	beq.n	8003b20 <HAL_UART_RxCpltCallback+0x4c>
			recCommandBuffer[p_recCommandBuffer] = recCommandByte;
 8003ae6:	4c14      	ldr	r4, [pc, #80]	; (8003b38 <HAL_UART_RxCpltCallback+0x64>)
 8003ae8:	4914      	ldr	r1, [pc, #80]	; (8003b3c <HAL_UART_RxCpltCallback+0x68>)
 8003aea:	7823      	ldrb	r3, [r4, #0]
 8003aec:	54ca      	strb	r2, [r1, r3]
			p_recCommandBuffer++;
 8003aee:	3301      	adds	r3, #1
 8003af0:	b2db      	uxtb	r3, r3

			if (p_recCommandBuffer == MAX_COMMAND_LENGTH) p_recCommandBuffer = 0;
 8003af2:	2b40      	cmp	r3, #64	; 0x40
 8003af4:	bf08      	it	eq
 8003af6:	2300      	moveq	r3, #0

			if(recCommandByte == '\n'){
 8003af8:	2a0a      	cmp	r2, #10
			if (p_recCommandBuffer == MAX_COMMAND_LENGTH) p_recCommandBuffer = 0;
 8003afa:	7023      	strb	r3, [r4, #0]
			if(recCommandByte == '\n'){
 8003afc:	d10e      	bne.n	8003b1c <HAL_UART_RxCpltCallback+0x48>
				memcpy(commandToProcessBuffer, recCommandBuffer, p_recCommandBuffer);
 8003afe:	7822      	ldrb	r2, [r4, #0]
 8003b00:	490e      	ldr	r1, [pc, #56]	; (8003b3c <HAL_UART_RxCpltCallback+0x68>)
 8003b02:	480f      	ldr	r0, [pc, #60]	; (8003b40 <HAL_UART_RxCpltCallback+0x6c>)
 8003b04:	f000 fc28 	bl	8004358 <memcpy>
				portBASE_TYPE r1;
				xQueueSendToBackFromISR(xRecCommandQueue, &commandToProcessBuffer, &r1);
 8003b08:	480e      	ldr	r0, [pc, #56]	; (8003b44 <HAL_UART_RxCpltCallback+0x70>)
 8003b0a:	2300      	movs	r3, #0
 8003b0c:	aa01      	add	r2, sp, #4
 8003b0e:	490c      	ldr	r1, [pc, #48]	; (8003b40 <HAL_UART_RxCpltCallback+0x6c>)
 8003b10:	6800      	ldr	r0, [r0, #0]
 8003b12:	f7fe ff53 	bl	80029bc <xQueueGenericSendFromISR>
				p_recCommandBuffer = 0;
			}
			else if (recCommandByte == 0xFF) {
				p_recCommandBuffer = 0;
 8003b16:	2300      	movs	r3, #0
 8003b18:	7023      	strb	r3, [r4, #0]
 8003b1a:	e001      	b.n	8003b20 <HAL_UART_RxCpltCallback+0x4c>
			else if (recCommandByte == 0xFF) {
 8003b1c:	2aff      	cmp	r2, #255	; 0xff
 8003b1e:	d0fa      	beq.n	8003b16 <HAL_UART_RxCpltCallback+0x42>
			}
		}

		HAL_UART_Receive_IT(&huart1, &recCommandByte, 1);
 8003b20:	2201      	movs	r2, #1
 8003b22:	4904      	ldr	r1, [pc, #16]	; (8003b34 <HAL_UART_RxCpltCallback+0x60>)
 8003b24:	4808      	ldr	r0, [pc, #32]	; (8003b48 <HAL_UART_RxCpltCallback+0x74>)
 8003b26:	f7fe f9a1 	bl	8001e6c <HAL_UART_Receive_IT>
	}
}
 8003b2a:	b002      	add	sp, #8
 8003b2c:	bd10      	pop	{r4, pc}
 8003b2e:	bf00      	nop
 8003b30:	40013800 	.word	0x40013800
 8003b34:	200053bc 	.word	0x200053bc
 8003b38:	200053b6 	.word	0x200053b6
 8003b3c:	20005268 	.word	0x20005268
 8003b40:	200052a8 	.word	0x200052a8
 8003b44:	200053b8 	.word	0x200053b8
 8003b48:	2000536c 	.word	0x2000536c

08003b4c <HAL_ADCEx_InjectedConvCpltCallback>:

void HAL_ADCEx_InjectedConvCpltCallback(ADC_HandleTypeDef* hadc1){
 8003b4c:	b538      	push	{r3, r4, r5, lr}
	  ADCRawData[0]=HAL_ADCEx_InjectedGetValue(hadc1,ADC_INJECTED_RANK_1);
 8003b4e:	2101      	movs	r1, #1
void HAL_ADCEx_InjectedConvCpltCallback(ADC_HandleTypeDef* hadc1){
 8003b50:	4605      	mov	r5, r0
	  ADCRawData[0]=HAL_ADCEx_InjectedGetValue(hadc1,ADC_INJECTED_RANK_1);
 8003b52:	f7fc ff0d 	bl	8000970 <HAL_ADCEx_InjectedGetValue>
 8003b56:	4c09      	ldr	r4, [pc, #36]	; (8003b7c <HAL_ADCEx_InjectedConvCpltCallback+0x30>)
	  ADCRawData[1]=HAL_ADCEx_InjectedGetValue(hadc1,ADC_INJECTED_RANK_2);
 8003b58:	2102      	movs	r1, #2
	  ADCRawData[0]=HAL_ADCEx_InjectedGetValue(hadc1,ADC_INJECTED_RANK_1);
 8003b5a:	8020      	strh	r0, [r4, #0]
	  ADCRawData[1]=HAL_ADCEx_InjectedGetValue(hadc1,ADC_INJECTED_RANK_2);
 8003b5c:	4628      	mov	r0, r5
 8003b5e:	f7fc ff07 	bl	8000970 <HAL_ADCEx_InjectedGetValue>
	  ADCRawData[2]=HAL_ADCEx_InjectedGetValue(hadc1,ADC_INJECTED_RANK_3);
 8003b62:	2103      	movs	r1, #3
	  ADCRawData[1]=HAL_ADCEx_InjectedGetValue(hadc1,ADC_INJECTED_RANK_2);
 8003b64:	8060      	strh	r0, [r4, #2]
	  ADCRawData[2]=HAL_ADCEx_InjectedGetValue(hadc1,ADC_INJECTED_RANK_3);
 8003b66:	4628      	mov	r0, r5
 8003b68:	f7fc ff02 	bl	8000970 <HAL_ADCEx_InjectedGetValue>
	  ADCRawData[3]=HAL_ADCEx_InjectedGetValue(hadc1,ADC_INJECTED_RANK_4);
 8003b6c:	2104      	movs	r1, #4
	  ADCRawData[2]=HAL_ADCEx_InjectedGetValue(hadc1,ADC_INJECTED_RANK_3);
 8003b6e:	80a0      	strh	r0, [r4, #4]
	  ADCRawData[3]=HAL_ADCEx_InjectedGetValue(hadc1,ADC_INJECTED_RANK_4);
 8003b70:	4628      	mov	r0, r5
 8003b72:	f7fc fefd 	bl	8000970 <HAL_ADCEx_InjectedGetValue>
 8003b76:	80e0      	strh	r0, [r4, #6]
 8003b78:	bd38      	pop	{r3, r4, r5, pc}
 8003b7a:	bf00      	nop
 8003b7c:	200052ec 	.word	0x200052ec

08003b80 <Error_Handler>:
/**
  * @brief  This function is executed in case of error occurrence.
  * @retval None
  */
void Error_Handler(void)
{
 8003b80:	4770      	bx	lr
	...

08003b84 <xProcessCommandTask>:
uint8_t pressIsLower[4] = {0};
extern uint8_t lastTimeCommand;

extern uint16_t server_UID;

void xProcessCommandTask(void* arguments){
 8003b84:	e92d 47f0 	stmdb	sp!, {r4, r5, r6, r7, r8, r9, sl, lr}
 8003b88:	b096      	sub	sp, #88	; 0x58
		portBASE_TYPE xStatus;

		uint8_t command[MAX_COMMAND_LENGTH] = {0};
 8003b8a:	2240      	movs	r2, #64	; 0x40
 8003b8c:	2100      	movs	r1, #0
 8003b8e:	a806      	add	r0, sp, #24
 8003b90:	f000 fbed 	bl	800436e <memset>
//		uint32_t delayCounter = 0;
//		char messageDebug[128] = {0};
//		uint8_t mesDebugLen = 0;
		uint8_t messageLength = 0;

		uint16_t id = 0;
 8003b94:	2300      	movs	r3, #0
		char co = 0;
		char valve = 0;
		uint16_t channel = 0;

		char prev_command = 0;
 8003b96:	461d      	mov	r5, r3
							if (id == server_UID){
								pressureCompensation = OFF;
							}
						}
						else if (command[1] == ','){
							sscanf((char*)command, "s,%hu,%hu,%hu,%hu,%hu,\n", &id, &nessPressure[0], &nessPressure[1],&nessPressure[2],&nessPressure[3]);
 8003b98:	4eb2      	ldr	r6, [pc, #712]	; (8003e64 <xProcessCommandTask+0x2e0>)
							else 				   			C4_DOWN_OFF;
 8003b9a:	4fb3      	ldr	r7, [pc, #716]	; (8003e68 <xProcessCommandTask+0x2e4>)
		uint16_t id = 0;
 8003b9c:	f8ad 3014 	strh.w	r3, [sp, #20]
		char co = 0;
 8003ba0:	f88d 3012 	strb.w	r3, [sp, #18]
		char valve = 0;
 8003ba4:	f88d 3013 	strb.w	r3, [sp, #19]
		uint16_t channel = 0;
 8003ba8:	f8ad 3016 	strh.w	r3, [sp, #22]
							sscanf((char*)command, "s,%hu,%hu,%hu,%hu,%hu,\n", &id, &nessPressure[0], &nessPressure[1],&nessPressure[2],&nessPressure[3]);
 8003bac:	f106 0806 	add.w	r8, r6, #6
			xStatus = xQueueReceive(xRecCommandQueue, command, portMAX_DELAY);
 8003bb0:	4cae      	ldr	r4, [pc, #696]	; (8003e6c <xProcessCommandTask+0x2e8>)
 8003bb2:	2300      	movs	r3, #0
 8003bb4:	f04f 32ff 	mov.w	r2, #4294967295
 8003bb8:	a906      	add	r1, sp, #24
 8003bba:	6820      	ldr	r0, [r4, #0]
 8003bbc:	f7fe ff60 	bl	8002a80 <xQueueGenericReceive>
			if (xStatus == pdPASS){
 8003bc0:	2801      	cmp	r0, #1
			xStatus = xQueueReceive(xRecCommandQueue, command, portMAX_DELAY);
 8003bc2:	4681      	mov	r9, r0
			if (xStatus == pdPASS){
 8003bc4:	d1f5      	bne.n	8003bb2 <xProcessCommandTask+0x2e>
				lastTimeCommand = 0;
 8003bc6:	2400      	movs	r4, #0
 8003bc8:	4ba9      	ldr	r3, [pc, #676]	; (8003e70 <xProcessCommandTask+0x2ec>)
 8003bca:	701c      	strb	r4, [r3, #0]
				switch(command[0]){
 8003bcc:	f89d 3018 	ldrb.w	r3, [sp, #24]
 8003bd0:	2b73      	cmp	r3, #115	; 0x73
 8003bd2:	f000 808a 	beq.w	8003cea <xProcessCommandTask+0x166>
 8003bd6:	2b78      	cmp	r3, #120	; 0x78
 8003bd8:	f000 80d1 	beq.w	8003d7e <xProcessCommandTask+0x1fa>
 8003bdc:	2b6d      	cmp	r3, #109	; 0x6d
 8003bde:	d1e7      	bne.n	8003bb0 <xProcessCommandTask+0x2c>
						sscanf((char*)command, "m,%hu,%c,%c,\n", &id, &co, &valve);
 8003be0:	f10d 0313 	add.w	r3, sp, #19
 8003be4:	9300      	str	r3, [sp, #0]
 8003be6:	aa05      	add	r2, sp, #20
 8003be8:	f10d 0312 	add.w	r3, sp, #18
 8003bec:	49a1      	ldr	r1, [pc, #644]	; (8003e74 <xProcessCommandTask+0x2f0>)
 8003bee:	a806      	add	r0, sp, #24
 8003bf0:	f000 fbea 	bl	80043c8 <siscanf>
						valve = command[10];
 8003bf4:	f89d 3022 	ldrb.w	r3, [sp, #34]	; 0x22
						if (id == server_UID){
 8003bf8:	f8bd 2014 	ldrh.w	r2, [sp, #20]
						valve = command[10];
 8003bfc:	f88d 3013 	strb.w	r3, [sp, #19]
						co = co - '0';
 8003c00:	f89d 3012 	ldrb.w	r3, [sp, #18]
 8003c04:	3b30      	subs	r3, #48	; 0x30
 8003c06:	f88d 3012 	strb.w	r3, [sp, #18]
						if (id == server_UID){
 8003c0a:	4b9b      	ldr	r3, [pc, #620]	; (8003e78 <xProcessCommandTask+0x2f4>)
 8003c0c:	881b      	ldrh	r3, [r3, #0]
 8003c0e:	429a      	cmp	r2, r3
 8003c10:	d112      	bne.n	8003c38 <xProcessCommandTask+0xb4>
							sendData[0] = filteredData.sens_1;
 8003c12:	499a      	ldr	r1, [pc, #616]	; (8003e7c <xProcessCommandTask+0x2f8>)
							messageLength = sprintf(message, "m,%hu,%hu,%hu,%hu,%hu,\n", controllerSettings.clientID,sendData[0],sendData[1],sendData[2],sendData[3]);
 8003c14:	4a9a      	ldr	r2, [pc, #616]	; (8003e80 <xProcessCommandTask+0x2fc>)
 8003c16:	88c8      	ldrh	r0, [r1, #6]
 8003c18:	880b      	ldrh	r3, [r1, #0]
 8003c1a:	8892      	ldrh	r2, [r2, #4]
 8003c1c:	9002      	str	r0, [sp, #8]
 8003c1e:	8888      	ldrh	r0, [r1, #4]
 8003c20:	9001      	str	r0, [sp, #4]
 8003c22:	8849      	ldrh	r1, [r1, #2]
 8003c24:	4897      	ldr	r0, [pc, #604]	; (8003e84 <xProcessCommandTask+0x300>)
 8003c26:	9100      	str	r1, [sp, #0]
 8003c28:	4997      	ldr	r1, [pc, #604]	; (8003e88 <xProcessCommandTask+0x304>)
 8003c2a:	f000 fba9 	bl	8004380 <siprintf>
							HAL_UART_Transmit_DMA(&huart1, (uint8_t*) message, messageLength);
 8003c2e:	4995      	ldr	r1, [pc, #596]	; (8003e84 <xProcessCommandTask+0x300>)
 8003c30:	b2c2      	uxtb	r2, r0
 8003c32:	4896      	ldr	r0, [pc, #600]	; (8003e8c <xProcessCommandTask+0x308>)
 8003c34:	f7fe f942 	bl	8001ebc <HAL_UART_Transmit_DMA>
						if (valve != prev_command){
 8003c38:	f89d 2013 	ldrb.w	r2, [sp, #19]
 8003c3c:	42aa      	cmp	r2, r5
 8003c3e:	d0b7      	beq.n	8003bb0 <xProcessCommandTask+0x2c>
							if (valve & 0b00000001) 	C1_UP_ON;
 8003c40:	f012 0201 	ands.w	r2, r2, #1
 8003c44:	bf18      	it	ne
 8003c46:	2201      	movne	r2, #1
							else 				   			C1_UP_OFF;
 8003c48:	2108      	movs	r1, #8
 8003c4a:	4891      	ldr	r0, [pc, #580]	; (8003e90 <xProcessCommandTask+0x30c>)
 8003c4c:	f7fd fbc8 	bl	80013e0 <HAL_GPIO_WritePin>
							if (valve & 0b00000010) 	C1_DOWN_ON;
 8003c50:	f89d 2013 	ldrb.w	r2, [sp, #19]
							else 				   			C1_DOWN_OFF;
 8003c54:	2104      	movs	r1, #4
							if (valve & 0b00000010) 	C1_DOWN_ON;
 8003c56:	f012 0202 	ands.w	r2, r2, #2
 8003c5a:	bf18      	it	ne
 8003c5c:	2201      	movne	r2, #1
							else 				   			C1_DOWN_OFF;
 8003c5e:	488c      	ldr	r0, [pc, #560]	; (8003e90 <xProcessCommandTask+0x30c>)
 8003c60:	f7fd fbbe 	bl	80013e0 <HAL_GPIO_WritePin>
							if (valve & 0b00000100) 	C2_UP_ON;
 8003c64:	f89d 2013 	ldrb.w	r2, [sp, #19]
							else 				   			C2_UP_OFF;
 8003c68:	2102      	movs	r1, #2
							if (valve & 0b00000100) 	C2_UP_ON;
 8003c6a:	f012 0204 	ands.w	r2, r2, #4
 8003c6e:	bf18      	it	ne
 8003c70:	2201      	movne	r2, #1
							else 				   			C2_UP_OFF;
 8003c72:	4887      	ldr	r0, [pc, #540]	; (8003e90 <xProcessCommandTask+0x30c>)
 8003c74:	f7fd fbb4 	bl	80013e0 <HAL_GPIO_WritePin>
							if (valve & 0b00001000) 	C2_DOWN_ON;
 8003c78:	f89d 2013 	ldrb.w	r2, [sp, #19]
							else 				   			C2_DOWN_OFF;
 8003c7c:	2101      	movs	r1, #1
							if (valve & 0b00001000) 	C2_DOWN_ON;
 8003c7e:	f012 0208 	ands.w	r2, r2, #8
 8003c82:	bf18      	it	ne
 8003c84:	2201      	movne	r2, #1
							else 				   			C2_DOWN_OFF;
 8003c86:	4882      	ldr	r0, [pc, #520]	; (8003e90 <xProcessCommandTask+0x30c>)
 8003c88:	f7fd fbaa 	bl	80013e0 <HAL_GPIO_WritePin>
							if (valve & 0b00010000) 	C3_UP_ON;
 8003c8c:	f89d 2013 	ldrb.w	r2, [sp, #19]
							else 				   			C3_UP_OFF;
 8003c90:	f44f 5180 	mov.w	r1, #4096	; 0x1000
							if (valve & 0b00010000) 	C3_UP_ON;
 8003c94:	f012 0210 	ands.w	r2, r2, #16
 8003c98:	bf18      	it	ne
 8003c9a:	2201      	movne	r2, #1
							else 				   			C3_UP_OFF;
 8003c9c:	487c      	ldr	r0, [pc, #496]	; (8003e90 <xProcessCommandTask+0x30c>)
 8003c9e:	f7fd fb9f 	bl	80013e0 <HAL_GPIO_WritePin>
							if (valve & 0b00100000) 	C3_DOWN_ON;
 8003ca2:	f89d 2013 	ldrb.w	r2, [sp, #19]
							else 				   			C3_DOWN_OFF;
 8003ca6:	f44f 6100 	mov.w	r1, #2048	; 0x800
							if (valve & 0b00100000) 	C3_DOWN_ON;
 8003caa:	f012 0220 	ands.w	r2, r2, #32
 8003cae:	bf18      	it	ne
 8003cb0:	2201      	movne	r2, #1
							else 				   			C3_DOWN_OFF;
 8003cb2:	4877      	ldr	r0, [pc, #476]	; (8003e90 <xProcessCommandTask+0x30c>)
 8003cb4:	f7fd fb94 	bl	80013e0 <HAL_GPIO_WritePin>
							if (valve & 0b01000000) 	C4_UP_ON;
 8003cb8:	f89d 2013 	ldrb.w	r2, [sp, #19]
							else 				   			C4_UP_OFF;
 8003cbc:	f44f 6180 	mov.w	r1, #1024	; 0x400
							if (valve & 0b01000000) 	C4_UP_ON;
 8003cc0:	f012 0240 	ands.w	r2, r2, #64	; 0x40
 8003cc4:	bf18      	it	ne
 8003cc6:	2201      	movne	r2, #1
							else 				   			C4_UP_OFF;
 8003cc8:	4871      	ldr	r0, [pc, #452]	; (8003e90 <xProcessCommandTask+0x30c>)
 8003cca:	f7fd fb89 	bl	80013e0 <HAL_GPIO_WritePin>
							if (valve & 0b10000000) 	C4_DOWN_ON;
 8003cce:	f99d 3013 	ldrsb.w	r3, [sp, #19]
							else 				   			C4_DOWN_OFF;
 8003cd2:	f44f 4100 	mov.w	r1, #32768	; 0x8000
							if (valve & 0b10000000) 	C4_DOWN_ON;
 8003cd6:	2b00      	cmp	r3, #0
 8003cd8:	bfb4      	ite	lt
 8003cda:	2201      	movlt	r2, #1
							else 				   			C4_DOWN_OFF;
 8003cdc:	2200      	movge	r2, #0
 8003cde:	4638      	mov	r0, r7
 8003ce0:	f7fd fb7e 	bl	80013e0 <HAL_GPIO_WritePin>
							prev_command = valve;
 8003ce4:	f89d 5013 	ldrb.w	r5, [sp, #19]
 8003ce8:	e762      	b.n	8003bb0 <xProcessCommandTask+0x2c>
						if (command[1] == 'x'){
 8003cea:	f89d 3019 	ldrb.w	r3, [sp, #25]
 8003cee:	2b78      	cmp	r3, #120	; 0x78
 8003cf0:	d10e      	bne.n	8003d10 <xProcessCommandTask+0x18c>
							sscanf((char*)command, "sx,%hu,\n", &id);
 8003cf2:	aa05      	add	r2, sp, #20
 8003cf4:	4967      	ldr	r1, [pc, #412]	; (8003e94 <xProcessCommandTask+0x310>)
 8003cf6:	a806      	add	r0, sp, #24
 8003cf8:	f000 fb66 	bl	80043c8 <siscanf>
							if (id == server_UID){
 8003cfc:	4b5e      	ldr	r3, [pc, #376]	; (8003e78 <xProcessCommandTask+0x2f4>)
 8003cfe:	f8bd 2014 	ldrh.w	r2, [sp, #20]
 8003d02:	881b      	ldrh	r3, [r3, #0]
 8003d04:	429a      	cmp	r2, r3
 8003d06:	f47f af53 	bne.w	8003bb0 <xProcessCommandTask+0x2c>
								pressureCompensation = OFF;
 8003d0a:	4b63      	ldr	r3, [pc, #396]	; (8003e98 <xProcessCommandTask+0x314>)
 8003d0c:	701c      	strb	r4, [r3, #0]
 8003d0e:	e74f      	b.n	8003bb0 <xProcessCommandTask+0x2c>
						else if (command[1] == ','){
 8003d10:	2b2c      	cmp	r3, #44	; 0x2c
 8003d12:	f47f af4d 	bne.w	8003bb0 <xProcessCommandTask+0x2c>
							sscanf((char*)command, "s,%hu,%hu,%hu,%hu,%hu,\n", &id, &nessPressure[0], &nessPressure[1],&nessPressure[2],&nessPressure[3]);
 8003d16:	4b61      	ldr	r3, [pc, #388]	; (8003e9c <xProcessCommandTask+0x318>)
 8003d18:	f8cd 8008 	str.w	r8, [sp, #8]
 8003d1c:	1e9a      	subs	r2, r3, #2
 8003d1e:	9301      	str	r3, [sp, #4]
 8003d20:	9200      	str	r2, [sp, #0]
 8003d22:	3b04      	subs	r3, #4
 8003d24:	aa05      	add	r2, sp, #20
 8003d26:	495e      	ldr	r1, [pc, #376]	; (8003ea0 <xProcessCommandTask+0x31c>)
 8003d28:	a806      	add	r0, sp, #24
 8003d2a:	f000 fb4d 	bl	80043c8 <siscanf>
							if (id == server_UID){
 8003d2e:	4b52      	ldr	r3, [pc, #328]	; (8003e78 <xProcessCommandTask+0x2f4>)
 8003d30:	f8bd 2014 	ldrh.w	r2, [sp, #20]
 8003d34:	881b      	ldrh	r3, [r3, #0]
 8003d36:	429a      	cmp	r2, r3
 8003d38:	f47f af3a 	bne.w	8003bb0 <xProcessCommandTask+0x2c>
								if (filteredData.sens_1 > nessPressure[0]) 	pressIsLower[0] = 0;
 8003d3c:	494f      	ldr	r1, [pc, #316]	; (8003e7c <xProcessCommandTask+0x2f8>)
 8003d3e:	8830      	ldrh	r0, [r6, #0]
 8003d40:	880a      	ldrh	r2, [r1, #0]
 8003d42:	4b58      	ldr	r3, [pc, #352]	; (8003ea4 <xProcessCommandTask+0x320>)
 8003d44:	4282      	cmp	r2, r0
 8003d46:	bf94      	ite	ls
 8003d48:	464a      	movls	r2, r9
 8003d4a:	2200      	movhi	r2, #0
								else 										pressIsLower[0] = 1;
								if (filteredData.sens_2 > nessPressure[1]) 	pressIsLower[1] = 0;
 8003d4c:	8848      	ldrh	r0, [r1, #2]
								if (filteredData.sens_1 > nessPressure[0]) 	pressIsLower[0] = 0;
 8003d4e:	701a      	strb	r2, [r3, #0]
								if (filteredData.sens_2 > nessPressure[1]) 	pressIsLower[1] = 0;
 8003d50:	8872      	ldrh	r2, [r6, #2]
 8003d52:	4290      	cmp	r0, r2
								else 										pressIsLower[1] = 1;
								if (filteredData.sens_3 > nessPressure[2]) 	pressIsLower[2] = 0;
 8003d54:	88b2      	ldrh	r2, [r6, #4]
 8003d56:	8888      	ldrh	r0, [r1, #4]
								if (filteredData.sens_2 > nessPressure[1]) 	pressIsLower[1] = 0;
 8003d58:	bf98      	it	ls
 8003d5a:	464c      	movls	r4, r9
								if (filteredData.sens_3 > nessPressure[2]) 	pressIsLower[2] = 0;
 8003d5c:	4290      	cmp	r0, r2
 8003d5e:	bf8c      	ite	hi
 8003d60:	2200      	movhi	r2, #0
								else 										pressIsLower[2] = 1;
 8003d62:	2201      	movls	r2, #1
								if (filteredData.sens_4 > nessPressure[3]) 	pressIsLower[3] = 0;
 8003d64:	88c9      	ldrh	r1, [r1, #6]
								else 										pressIsLower[2] = 1;
 8003d66:	709a      	strb	r2, [r3, #2]
								if (filteredData.sens_4 > nessPressure[3]) 	pressIsLower[3] = 0;
 8003d68:	88f2      	ldrh	r2, [r6, #6]
								if (filteredData.sens_2 > nessPressure[1]) 	pressIsLower[1] = 0;
 8003d6a:	705c      	strb	r4, [r3, #1]
								if (filteredData.sens_4 > nessPressure[3]) 	pressIsLower[3] = 0;
 8003d6c:	4291      	cmp	r1, r2
 8003d6e:	bf8c      	ite	hi
 8003d70:	2200      	movhi	r2, #0
								else 										pressIsLower[3] = 1;
 8003d72:	2201      	movls	r2, #1
 8003d74:	70da      	strb	r2, [r3, #3]
								pressureCompensation = ON;
 8003d76:	2201      	movs	r2, #1
 8003d78:	4b47      	ldr	r3, [pc, #284]	; (8003e98 <xProcessCommandTask+0x314>)
 8003d7a:	701a      	strb	r2, [r3, #0]
 8003d7c:	e718      	b.n	8003bb0 <xProcessCommandTask+0x2c>
							}
						}
						break;
					}
					case 'x':{
						if (command[1] == '?'){
 8003d7e:	f89d 3019 	ldrb.w	r3, [sp, #25]
 8003d82:	2b3f      	cmp	r3, #63	; 0x3f
 8003d84:	d112      	bne.n	8003dac <xProcessCommandTask+0x228>
							sscanf((char*)command, "x?%hu,\n", &controllerSettings.clientID);
 8003d86:	4a48      	ldr	r2, [pc, #288]	; (8003ea8 <xProcessCommandTask+0x324>)
 8003d88:	4948      	ldr	r1, [pc, #288]	; (8003eac <xProcessCommandTask+0x328>)
 8003d8a:	a806      	add	r0, sp, #24
 8003d8c:	f000 fb1c 	bl	80043c8 <siscanf>
							messageLength = sprintf(message, "x,%05d,%05d,\n", controllerSettings.clientID, server_UID);
 8003d90:	4b39      	ldr	r3, [pc, #228]	; (8003e78 <xProcessCommandTask+0x2f4>)
 8003d92:	4a3b      	ldr	r2, [pc, #236]	; (8003e80 <xProcessCommandTask+0x2fc>)
 8003d94:	881b      	ldrh	r3, [r3, #0]
 8003d96:	8892      	ldrh	r2, [r2, #4]
 8003d98:	4945      	ldr	r1, [pc, #276]	; (8003eb0 <xProcessCommandTask+0x32c>)
 8003d9a:	483a      	ldr	r0, [pc, #232]	; (8003e84 <xProcessCommandTask+0x300>)
 8003d9c:	f000 faf0 	bl	8004380 <siprintf>

							HAL_UART_Transmit_DMA(&huart1, (uint8_t*) message, messageLength);
 8003da0:	4938      	ldr	r1, [pc, #224]	; (8003e84 <xProcessCommandTask+0x300>)
 8003da2:	b2c2      	uxtb	r2, r0
 8003da4:	4839      	ldr	r0, [pc, #228]	; (8003e8c <xProcessCommandTask+0x308>)
 8003da6:	f7fe f889 	bl	8001ebc <HAL_UART_Transmit_DMA>
 8003daa:	e701      	b.n	8003bb0 <xProcessCommandTask+0x2c>
						}
						else if (command[1] == 'c'){
 8003dac:	2b63      	cmp	r3, #99	; 0x63
 8003dae:	f47f aeff 	bne.w	8003bb0 <xProcessCommandTask+0x2c>

							sscanf((char*)command, "xc,%hu,%hu,\n", &id, &channel);
 8003db2:	f10d 0316 	add.w	r3, sp, #22
 8003db6:	aa05      	add	r2, sp, #20
 8003db8:	493e      	ldr	r1, [pc, #248]	; (8003eb4 <xProcessCommandTask+0x330>)
 8003dba:	a806      	add	r0, sp, #24
 8003dbc:	f000 fb04 	bl	80043c8 <siscanf>
//							channel = channel - '0';

							messageLength = sprintf(message, "id,%05d,%05d,%03d\n", id, server_UID, channel);
 8003dc0:	f8df a0b4 	ldr.w	sl, [pc, #180]	; 8003e78 <xProcessCommandTask+0x2f4>
 8003dc4:	f8bd 1016 	ldrh.w	r1, [sp, #22]
 8003dc8:	f8ba 3000 	ldrh.w	r3, [sl]
 8003dcc:	f8bd 2014 	ldrh.w	r2, [sp, #20]
 8003dd0:	9100      	str	r1, [sp, #0]
 8003dd2:	482c      	ldr	r0, [pc, #176]	; (8003e84 <xProcessCommandTask+0x300>)
 8003dd4:	4938      	ldr	r1, [pc, #224]	; (8003eb8 <xProcessCommandTask+0x334>)
 8003dd6:	f000 fad3 	bl	8004380 <siprintf>
							HAL_UART_Transmit(&huart1, (uint8_t*) message, messageLength, 0x2000);
 8003dda:	f44f 5300 	mov.w	r3, #8192	; 0x2000
 8003dde:	b2c2      	uxtb	r2, r0
 8003de0:	4928      	ldr	r1, [pc, #160]	; (8003e84 <xProcessCommandTask+0x300>)
 8003de2:	482a      	ldr	r0, [pc, #168]	; (8003e8c <xProcessCommandTask+0x308>)
 8003de4:	f7fd ffe6 	bl	8001db4 <HAL_UART_Transmit>

							if (id == server_UID){
 8003de8:	f8bd 2014 	ldrh.w	r2, [sp, #20]
 8003dec:	f8ba 3000 	ldrh.w	r3, [sl]
 8003df0:	429a      	cmp	r2, r3
 8003df2:	f47f aedd 	bne.w	8003bb0 <xProcessCommandTask+0x2c>
								controllerSettings.rfChannel = channel;
 8003df6:	f8bd 3016 	ldrh.w	r3, [sp, #22]
 8003dfa:	f8df a084 	ldr.w	sl, [pc, #132]	; 8003e80 <xProcessCommandTask+0x2fc>
 8003dfe:	f88a 3000 	strb.w	r3, [sl]
								mWrite_flash();
 8003e02:	f7ff fd05 	bl	8003810 <mWrite_flash>
								messageLength = sprintf(message, "xc,%05d,ok,\n", controllerSettings.clientID);
 8003e06:	f8ba 2004 	ldrh.w	r2, [sl, #4]
 8003e0a:	492c      	ldr	r1, [pc, #176]	; (8003ebc <xProcessCommandTask+0x338>)
 8003e0c:	481d      	ldr	r0, [pc, #116]	; (8003e84 <xProcessCommandTask+0x300>)
 8003e0e:	f000 fab7 	bl	8004380 <siprintf>
								HAL_UART_Transmit_DMA(&huart1, (uint8_t*) message, messageLength);
 8003e12:	491c      	ldr	r1, [pc, #112]	; (8003e84 <xProcessCommandTask+0x300>)
 8003e14:	b2c2      	uxtb	r2, r0
 8003e16:	481d      	ldr	r0, [pc, #116]	; (8003e8c <xProcessCommandTask+0x308>)
 8003e18:	f7fe f850 	bl	8001ebc <HAL_UART_Transmit_DMA>
								vTaskDelay(100 / portTICK_RATE_MS);
 8003e1c:	2064      	movs	r0, #100	; 0x64
 8003e1e:	f7ff f973 	bl	8003108 <vTaskDelay>

								CMD_RF_ON;
 8003e22:	4622      	mov	r2, r4
 8003e24:	2104      	movs	r1, #4
 8003e26:	4826      	ldr	r0, [pc, #152]	; (8003ec0 <xProcessCommandTask+0x33c>)
 8003e28:	f7fd fada 	bl	80013e0 <HAL_GPIO_WritePin>
								vTaskDelay(50 / portTICK_RATE_MS);
 8003e2c:	2032      	movs	r0, #50	; 0x32
 8003e2e:	f7ff f96b 	bl	8003108 <vTaskDelay>

								messageLength = sprintf(message, "AT+C%03d\r", channel);
 8003e32:	f8bd 2016 	ldrh.w	r2, [sp, #22]
 8003e36:	4923      	ldr	r1, [pc, #140]	; (8003ec4 <xProcessCommandTask+0x340>)
 8003e38:	4812      	ldr	r0, [pc, #72]	; (8003e84 <xProcessCommandTask+0x300>)
 8003e3a:	f000 faa1 	bl	8004380 <siprintf>
								HAL_UART_Transmit_DMA(&huart1, (uint8_t*) message, messageLength);
 8003e3e:	4911      	ldr	r1, [pc, #68]	; (8003e84 <xProcessCommandTask+0x300>)
 8003e40:	b2c2      	uxtb	r2, r0
 8003e42:	4812      	ldr	r0, [pc, #72]	; (8003e8c <xProcessCommandTask+0x308>)
 8003e44:	f7fe f83a 	bl	8001ebc <HAL_UART_Transmit_DMA>

								vTaskDelay(50 / portTICK_RATE_MS);
 8003e48:	2032      	movs	r0, #50	; 0x32
 8003e4a:	f7ff f95d 	bl	8003108 <vTaskDelay>
								CMD_RF_OFF;
 8003e4e:	464a      	mov	r2, r9
 8003e50:	2104      	movs	r1, #4
 8003e52:	481b      	ldr	r0, [pc, #108]	; (8003ec0 <xProcessCommandTask+0x33c>)
 8003e54:	f7fd fac4 	bl	80013e0 <HAL_GPIO_WritePin>

								HAL_GPIO_WritePin(A_LED_PORT, A_LED_PIN, GPIO_PIN_RESET);
 8003e58:	4622      	mov	r2, r4
 8003e5a:	2180      	movs	r1, #128	; 0x80
 8003e5c:	481a      	ldr	r0, [pc, #104]	; (8003ec8 <xProcessCommandTask+0x344>)
 8003e5e:	f7fd fabf 	bl	80013e0 <HAL_GPIO_WritePin>
 8003e62:	e6a5      	b.n	8003bb0 <xProcessCommandTask+0x2c>
 8003e64:	20005220 	.word	0x20005220
 8003e68:	40010800 	.word	0x40010800
 8003e6c:	200053b8 	.word	0x200053b8
 8003e70:	20005231 	.word	0x20005231
 8003e74:	08005638 	.word	0x08005638
 8003e78:	2000522a 	.word	0x2000522a
 8003e7c:	20005198 	.word	0x20005198
 8003e80:	20005174 	.word	0x20005174
 8003e84:	200051a0 	.word	0x200051a0
 8003e88:	08005646 	.word	0x08005646
 8003e8c:	2000536c 	.word	0x2000536c
 8003e90:	40011000 	.word	0x40011000
 8003e94:	0800565e 	.word	0x0800565e
 8003e98:	20005228 	.word	0x20005228
 8003e9c:	20005224 	.word	0x20005224
 8003ea0:	08005667 	.word	0x08005667
 8003ea4:	2000522d 	.word	0x2000522d
 8003ea8:	20005178 	.word	0x20005178
 8003eac:	0800567f 	.word	0x0800567f
 8003eb0:	08005687 	.word	0x08005687
 8003eb4:	08005695 	.word	0x08005695
 8003eb8:	080056a2 	.word	0x080056a2
 8003ebc:	080056b5 	.word	0x080056b5
 8003ec0:	40011400 	.word	0x40011400
 8003ec4:	080056c2 	.word	0x080056c2
 8003ec8:	40010c00 	.word	0x40010c00

08003ecc <HAL_MspInit>:
{
  /* USER CODE BEGIN MspInit 0 */

  /* USER CODE END MspInit 0 */

  __HAL_RCC_AFIO_CLK_ENABLE();
 8003ecc:	4b11      	ldr	r3, [pc, #68]	; (8003f14 <HAL_MspInit+0x48>)
{
 8003ece:	b507      	push	{r0, r1, r2, lr}
  __HAL_RCC_AFIO_CLK_ENABLE();
 8003ed0:	699a      	ldr	r2, [r3, #24]
  __HAL_RCC_PWR_CLK_ENABLE();

  /* System interrupt init*/
  /* PendSV_IRQn interrupt configuration */
  HAL_NVIC_SetPriority(PendSV_IRQn, 15, 0);
 8003ed2:	210f      	movs	r1, #15
  __HAL_RCC_AFIO_CLK_ENABLE();
 8003ed4:	f042 0201 	orr.w	r2, r2, #1
 8003ed8:	619a      	str	r2, [r3, #24]
 8003eda:	699a      	ldr	r2, [r3, #24]
  HAL_NVIC_SetPriority(PendSV_IRQn, 15, 0);
 8003edc:	f06f 0001 	mvn.w	r0, #1
  __HAL_RCC_AFIO_CLK_ENABLE();
 8003ee0:	f002 0201 	and.w	r2, r2, #1
 8003ee4:	9200      	str	r2, [sp, #0]
 8003ee6:	9a00      	ldr	r2, [sp, #0]
  __HAL_RCC_PWR_CLK_ENABLE();
 8003ee8:	69da      	ldr	r2, [r3, #28]
 8003eea:	f042 5280 	orr.w	r2, r2, #268435456	; 0x10000000
 8003eee:	61da      	str	r2, [r3, #28]
 8003ef0:	69db      	ldr	r3, [r3, #28]
  HAL_NVIC_SetPriority(PendSV_IRQn, 15, 0);
 8003ef2:	2200      	movs	r2, #0
  __HAL_RCC_PWR_CLK_ENABLE();
 8003ef4:	f003 5380 	and.w	r3, r3, #268435456	; 0x10000000
 8003ef8:	9301      	str	r3, [sp, #4]
 8003efa:	9b01      	ldr	r3, [sp, #4]
  HAL_NVIC_SetPriority(PendSV_IRQn, 15, 0);
 8003efc:	f7fc fe46 	bl	8000b8c <HAL_NVIC_SetPriority>

  /** NOJTAG: JTAG-DP Disabled and SW-DP Enabled 
  */
  __HAL_AFIO_REMAP_SWJ_NOJTAG();
 8003f00:	4a05      	ldr	r2, [pc, #20]	; (8003f18 <HAL_MspInit+0x4c>)
 8003f02:	6853      	ldr	r3, [r2, #4]
 8003f04:	f023 63e0 	bic.w	r3, r3, #117440512	; 0x7000000
 8003f08:	f043 7300 	orr.w	r3, r3, #33554432	; 0x2000000
 8003f0c:	6053      	str	r3, [r2, #4]

  /* USER CODE BEGIN MspInit 1 */

  /* USER CODE END MspInit 1 */
}
 8003f0e:	b003      	add	sp, #12
 8003f10:	f85d fb04 	ldr.w	pc, [sp], #4
 8003f14:	40021000 	.word	0x40021000
 8003f18:	40010000 	.word	0x40010000

08003f1c <HAL_ADC_MspInit>:
* This function configures the hardware resources used in this example
* @param hadc: ADC handle pointer
* @retval None
*/
void HAL_ADC_MspInit(ADC_HandleTypeDef* hadc)
{
 8003f1c:	b510      	push	{r4, lr}
 8003f1e:	4604      	mov	r4, r0
 8003f20:	b086      	sub	sp, #24
  GPIO_InitTypeDef GPIO_InitStruct = {0};
 8003f22:	2210      	movs	r2, #16
 8003f24:	2100      	movs	r1, #0
 8003f26:	a802      	add	r0, sp, #8
 8003f28:	f000 fa21 	bl	800436e <memset>
  if(hadc->Instance==ADC1)
 8003f2c:	6822      	ldr	r2, [r4, #0]
 8003f2e:	4b14      	ldr	r3, [pc, #80]	; (8003f80 <HAL_ADC_MspInit+0x64>)
 8003f30:	429a      	cmp	r2, r3
 8003f32:	d123      	bne.n	8003f7c <HAL_ADC_MspInit+0x60>
  {
  /* USER CODE BEGIN ADC1_MspInit 0 */

  /* USER CODE END ADC1_MspInit 0 */
    /* Peripheral clock enable */
    __HAL_RCC_ADC1_CLK_ENABLE();
 8003f34:	f503 436c 	add.w	r3, r3, #60416	; 0xec00
 8003f38:	699a      	ldr	r2, [r3, #24]
    PA5     ------> ADC1_IN5 
    */
    GPIO_InitStruct.Pin = GPIO_PIN_1|GPIO_PIN_2|GPIO_PIN_3|GPIO_PIN_4 
                          |GPIO_PIN_5;
    GPIO_InitStruct.Mode = GPIO_MODE_ANALOG;
    HAL_GPIO_Init(GPIOA, &GPIO_InitStruct);
 8003f3a:	a902      	add	r1, sp, #8
    __HAL_RCC_ADC1_CLK_ENABLE();
 8003f3c:	f442 7200 	orr.w	r2, r2, #512	; 0x200
 8003f40:	619a      	str	r2, [r3, #24]
 8003f42:	699a      	ldr	r2, [r3, #24]
    HAL_GPIO_Init(GPIOA, &GPIO_InitStruct);
 8003f44:	480f      	ldr	r0, [pc, #60]	; (8003f84 <HAL_ADC_MspInit+0x68>)
    __HAL_RCC_ADC1_CLK_ENABLE();
 8003f46:	f402 7200 	and.w	r2, r2, #512	; 0x200
 8003f4a:	9200      	str	r2, [sp, #0]
 8003f4c:	9a00      	ldr	r2, [sp, #0]
    __HAL_RCC_GPIOA_CLK_ENABLE();
 8003f4e:	699a      	ldr	r2, [r3, #24]
 8003f50:	f042 0204 	orr.w	r2, r2, #4
 8003f54:	619a      	str	r2, [r3, #24]
 8003f56:	699b      	ldr	r3, [r3, #24]
 8003f58:	f003 0304 	and.w	r3, r3, #4
 8003f5c:	9301      	str	r3, [sp, #4]
 8003f5e:	9b01      	ldr	r3, [sp, #4]
    GPIO_InitStruct.Pin = GPIO_PIN_1|GPIO_PIN_2|GPIO_PIN_3|GPIO_PIN_4 
 8003f60:	233e      	movs	r3, #62	; 0x3e
 8003f62:	9302      	str	r3, [sp, #8]
    GPIO_InitStruct.Mode = GPIO_MODE_ANALOG;
 8003f64:	2303      	movs	r3, #3
 8003f66:	9303      	str	r3, [sp, #12]
    HAL_GPIO_Init(GPIOA, &GPIO_InitStruct);
 8003f68:	f7fd f954 	bl	8001214 <HAL_GPIO_Init>

    /* ADC1 interrupt Init */
    HAL_NVIC_SetPriority(ADC1_2_IRQn, 5, 0);
 8003f6c:	2012      	movs	r0, #18
 8003f6e:	2200      	movs	r2, #0
 8003f70:	2105      	movs	r1, #5
 8003f72:	f7fc fe0b 	bl	8000b8c <HAL_NVIC_SetPriority>
    HAL_NVIC_EnableIRQ(ADC1_2_IRQn);
 8003f76:	2012      	movs	r0, #18
 8003f78:	f7fc fe3c 	bl	8000bf4 <HAL_NVIC_EnableIRQ>
  /* USER CODE BEGIN ADC1_MspInit 1 */

  /* USER CODE END ADC1_MspInit 1 */
  }

}
 8003f7c:	b006      	add	sp, #24
 8003f7e:	bd10      	pop	{r4, pc}
 8003f80:	40012400 	.word	0x40012400
 8003f84:	40010800 	.word	0x40010800

08003f88 <HAL_UART_MspInit>:
* This function configures the hardware resources used in this example
* @param huart: UART handle pointer
* @retval None
*/
void HAL_UART_MspInit(UART_HandleTypeDef* huart)
{
 8003f88:	b5f0      	push	{r4, r5, r6, r7, lr}
  GPIO_InitTypeDef GPIO_InitStruct = {0};
 8003f8a:	2710      	movs	r7, #16
{
 8003f8c:	4606      	mov	r6, r0
 8003f8e:	b087      	sub	sp, #28
  GPIO_InitTypeDef GPIO_InitStruct = {0};
 8003f90:	463a      	mov	r2, r7
 8003f92:	2100      	movs	r1, #0
 8003f94:	a802      	add	r0, sp, #8
 8003f96:	f000 f9ea 	bl	800436e <memset>
  if(huart->Instance==USART1)
 8003f9a:	6832      	ldr	r2, [r6, #0]
 8003f9c:	4b25      	ldr	r3, [pc, #148]	; (8004034 <HAL_UART_MspInit+0xac>)
 8003f9e:	429a      	cmp	r2, r3
 8003fa0:	d145      	bne.n	800402e <HAL_UART_MspInit+0xa6>
  {
  /* USER CODE BEGIN USART1_MspInit 0 */

  /* USER CODE END USART1_MspInit 0 */
    /* Peripheral clock enable */
    __HAL_RCC_USART1_CLK_ENABLE();
 8003fa2:	f503 4358 	add.w	r3, r3, #55296	; 0xd800
 8003fa6:	699a      	ldr	r2, [r3, #24]
    PA10     ------> USART1_RX 
    */
    GPIO_InitStruct.Pin = GPIO_PIN_9;
    GPIO_InitStruct.Mode = GPIO_MODE_AF_PP;
    GPIO_InitStruct.Speed = GPIO_SPEED_FREQ_HIGH;
    HAL_GPIO_Init(GPIOA, &GPIO_InitStruct);
 8003fa8:	a902      	add	r1, sp, #8
    __HAL_RCC_USART1_CLK_ENABLE();
 8003faa:	f442 4280 	orr.w	r2, r2, #16384	; 0x4000
 8003fae:	619a      	str	r2, [r3, #24]
 8003fb0:	699a      	ldr	r2, [r3, #24]
    HAL_GPIO_Init(GPIOA, &GPIO_InitStruct);
 8003fb2:	4821      	ldr	r0, [pc, #132]	; (8004038 <HAL_UART_MspInit+0xb0>)
    __HAL_RCC_USART1_CLK_ENABLE();
 8003fb4:	f402 4280 	and.w	r2, r2, #16384	; 0x4000
 8003fb8:	9200      	str	r2, [sp, #0]
 8003fba:	9a00      	ldr	r2, [sp, #0]
    __HAL_RCC_GPIOA_CLK_ENABLE();
 8003fbc:	699a      	ldr	r2, [r3, #24]

    GPIO_InitStruct.Pin = GPIO_PIN_10;
    GPIO_InitStruct.Mode = GPIO_MODE_INPUT;
 8003fbe:	2500      	movs	r5, #0
    __HAL_RCC_GPIOA_CLK_ENABLE();
 8003fc0:	f042 0204 	orr.w	r2, r2, #4
 8003fc4:	619a      	str	r2, [r3, #24]
 8003fc6:	699b      	ldr	r3, [r3, #24]
    GPIO_InitStruct.Pull = GPIO_NOPULL;
    HAL_GPIO_Init(GPIOA, &GPIO_InitStruct);

    /* USART1 DMA Init */
    /* USART1_TX Init */
    hdma_usart1_tx.Instance = DMA1_Channel4;
 8003fc8:	4c1c      	ldr	r4, [pc, #112]	; (800403c <HAL_UART_MspInit+0xb4>)
    __HAL_RCC_GPIOA_CLK_ENABLE();
 8003fca:	f003 0304 	and.w	r3, r3, #4
 8003fce:	9301      	str	r3, [sp, #4]
 8003fd0:	9b01      	ldr	r3, [sp, #4]
    GPIO_InitStruct.Pin = GPIO_PIN_9;
 8003fd2:	f44f 7300 	mov.w	r3, #512	; 0x200
 8003fd6:	9302      	str	r3, [sp, #8]
    GPIO_InitStruct.Mode = GPIO_MODE_AF_PP;
 8003fd8:	2302      	movs	r3, #2
 8003fda:	9303      	str	r3, [sp, #12]
    GPIO_InitStruct.Speed = GPIO_SPEED_FREQ_HIGH;
 8003fdc:	2303      	movs	r3, #3
 8003fde:	9305      	str	r3, [sp, #20]
    HAL_GPIO_Init(GPIOA, &GPIO_InitStruct);
 8003fe0:	f7fd f918 	bl	8001214 <HAL_GPIO_Init>
    GPIO_InitStruct.Pin = GPIO_PIN_10;
 8003fe4:	f44f 6380 	mov.w	r3, #1024	; 0x400
    HAL_GPIO_Init(GPIOA, &GPIO_InitStruct);
 8003fe8:	4813      	ldr	r0, [pc, #76]	; (8004038 <HAL_UART_MspInit+0xb0>)
 8003fea:	a902      	add	r1, sp, #8
    GPIO_InitStruct.Pin = GPIO_PIN_10;
 8003fec:	9302      	str	r3, [sp, #8]
    GPIO_InitStruct.Mode = GPIO_MODE_INPUT;
 8003fee:	9503      	str	r5, [sp, #12]
    GPIO_InitStruct.Pull = GPIO_NOPULL;
 8003ff0:	9504      	str	r5, [sp, #16]
    HAL_GPIO_Init(GPIOA, &GPIO_InitStruct);
 8003ff2:	f7fd f90f 	bl	8001214 <HAL_GPIO_Init>
    hdma_usart1_tx.Instance = DMA1_Channel4;
 8003ff6:	4b12      	ldr	r3, [pc, #72]	; (8004040 <HAL_UART_MspInit+0xb8>)
    hdma_usart1_tx.Init.MemInc = DMA_MINC_ENABLE;
    hdma_usart1_tx.Init.PeriphDataAlignment = DMA_PDATAALIGN_BYTE;
    hdma_usart1_tx.Init.MemDataAlignment = DMA_MDATAALIGN_BYTE;
    hdma_usart1_tx.Init.Mode = DMA_NORMAL;
    hdma_usart1_tx.Init.Priority = DMA_PRIORITY_MEDIUM;
    if (HAL_DMA_Init(&hdma_usart1_tx) != HAL_OK)
 8003ff8:	4620      	mov	r0, r4
    hdma_usart1_tx.Init.Direction = DMA_MEMORY_TO_PERIPH;
 8003ffa:	e884 0088 	stmia.w	r4, {r3, r7}
    hdma_usart1_tx.Init.MemInc = DMA_MINC_ENABLE;
 8003ffe:	2380      	movs	r3, #128	; 0x80
 8004000:	60e3      	str	r3, [r4, #12]
    hdma_usart1_tx.Init.Priority = DMA_PRIORITY_MEDIUM;
 8004002:	f44f 5380 	mov.w	r3, #4096	; 0x1000
    hdma_usart1_tx.Init.PeriphInc = DMA_PINC_DISABLE;
 8004006:	60a5      	str	r5, [r4, #8]
    hdma_usart1_tx.Init.PeriphDataAlignment = DMA_PDATAALIGN_BYTE;
 8004008:	6125      	str	r5, [r4, #16]
    hdma_usart1_tx.Init.MemDataAlignment = DMA_MDATAALIGN_BYTE;
 800400a:	6165      	str	r5, [r4, #20]
    hdma_usart1_tx.Init.Mode = DMA_NORMAL;
 800400c:	61a5      	str	r5, [r4, #24]
    hdma_usart1_tx.Init.Priority = DMA_PRIORITY_MEDIUM;
 800400e:	61e3      	str	r3, [r4, #28]
    if (HAL_DMA_Init(&hdma_usart1_tx) != HAL_OK)
 8004010:	f7fc fe12 	bl	8000c38 <HAL_DMA_Init>
 8004014:	b108      	cbz	r0, 800401a <HAL_UART_MspInit+0x92>
    {
      Error_Handler();
 8004016:	f7ff fdb3 	bl	8003b80 <Error_Handler>
    }

    __HAL_LINKDMA(huart,hdmatx,hdma_usart1_tx);

    /* USART1 interrupt Init */
    HAL_NVIC_SetPriority(USART1_IRQn, 5, 0);
 800401a:	2025      	movs	r0, #37	; 0x25
    __HAL_LINKDMA(huart,hdmatx,hdma_usart1_tx);
 800401c:	6334      	str	r4, [r6, #48]	; 0x30
    HAL_NVIC_SetPriority(USART1_IRQn, 5, 0);
 800401e:	2200      	movs	r2, #0
 8004020:	2105      	movs	r1, #5
    __HAL_LINKDMA(huart,hdmatx,hdma_usart1_tx);
 8004022:	6266      	str	r6, [r4, #36]	; 0x24
    HAL_NVIC_SetPriority(USART1_IRQn, 5, 0);
 8004024:	f7fc fdb2 	bl	8000b8c <HAL_NVIC_SetPriority>
    HAL_NVIC_EnableIRQ(USART1_IRQn);
 8004028:	2025      	movs	r0, #37	; 0x25
 800402a:	f7fc fde3 	bl	8000bf4 <HAL_NVIC_EnableIRQ>
  /* USER CODE BEGIN USART1_MspInit 1 */

  /* USER CODE END USART1_MspInit 1 */
  }

}
 800402e:	b007      	add	sp, #28
 8004030:	bdf0      	pop	{r4, r5, r6, r7, pc}
 8004032:	bf00      	nop
 8004034:	40013800 	.word	0x40013800
 8004038:	40010800 	.word	0x40010800
 800403c:	200052f8 	.word	0x200052f8
 8004040:	40020044 	.word	0x40020044

08004044 <NMI_Handler>:
 8004044:	4770      	bx	lr

08004046 <HardFault_Handler>:

/**
  * @brief This function handles Hard fault interrupt.
  */
void HardFault_Handler(void)
{
 8004046:	e7fe      	b.n	8004046 <HardFault_Handler>

08004048 <MemManage_Handler>:

/**
  * @brief This function handles Memory management fault.
  */
void MemManage_Handler(void)
{
 8004048:	e7fe      	b.n	8004048 <MemManage_Handler>

0800404a <BusFault_Handler>:

/**
  * @brief This function handles Prefetch fault, memory access fault.
  */
void BusFault_Handler(void)
{
 800404a:	e7fe      	b.n	800404a <BusFault_Handler>

0800404c <UsageFault_Handler>:

/**
  * @brief This function handles Undefined instruction or illegal state.
  */
void UsageFault_Handler(void)
{
 800404c:	e7fe      	b.n	800404c <UsageFault_Handler>

0800404e <DebugMon_Handler>:

/**
  * @brief This function handles Debug monitor.
  */
void DebugMon_Handler(void)
{
 800404e:	4770      	bx	lr

08004050 <SysTick_Handler>:

/**
  * @brief This function handles System tick timer.
  */
void SysTick_Handler(void)
{
 8004050:	b508      	push	{r3, lr}
  /* USER CODE BEGIN SysTick_IRQn 0 */

  /* USER CODE END SysTick_IRQn 0 */
  HAL_IncTick();
 8004052:	f7fc fabf 	bl	80005d4 <HAL_IncTick>
  osSystickHandler();
  /* USER CODE BEGIN SysTick_IRQn 1 */

  /* USER CODE END SysTick_IRQn 1 */
}
 8004056:	e8bd 4008 	ldmia.w	sp!, {r3, lr}
  osSystickHandler();
 800405a:	f7fe b89a 	b.w	8002192 <osSystickHandler>
	...

08004060 <DMA1_Channel4_IRQHandler>:
void DMA1_Channel4_IRQHandler(void)
{
  /* USER CODE BEGIN DMA1_Channel4_IRQn 0 */

  /* USER CODE END DMA1_Channel4_IRQn 0 */
  HAL_DMA_IRQHandler(&hdma_usart1_tx);
 8004060:	4801      	ldr	r0, [pc, #4]	; (8004068 <DMA1_Channel4_IRQHandler+0x8>)
 8004062:	f7fc bed5 	b.w	8000e10 <HAL_DMA_IRQHandler>
 8004066:	bf00      	nop
 8004068:	200052f8 	.word	0x200052f8

0800406c <ADC1_2_IRQHandler>:
void ADC1_2_IRQHandler(void)
{
  /* USER CODE BEGIN ADC1_2_IRQn 0 */

  /* USER CODE END ADC1_2_IRQn 0 */
  HAL_ADC_IRQHandler(&hadc1);
 800406c:	4801      	ldr	r0, [pc, #4]	; (8004074 <ADC1_2_IRQHandler+0x8>)
 800406e:	f7fc bad5 	b.w	800061c <HAL_ADC_IRQHandler>
 8004072:	bf00      	nop
 8004074:	2000533c 	.word	0x2000533c

08004078 <USART1_IRQHandler>:
void USART1_IRQHandler(void)
{
  /* USER CODE BEGIN USART1_IRQn 0 */

  /* USER CODE END USART1_IRQn 0 */
  HAL_UART_IRQHandler(&huart1);
 8004078:	4801      	ldr	r0, [pc, #4]	; (8004080 <USART1_IRQHandler+0x8>)
 800407a:	f7fd bfdd 	b.w	8002038 <HAL_UART_IRQHandler>
 800407e:	bf00      	nop
 8004080:	2000536c 	.word	0x2000536c

08004084 <fir_filter>:

extern uint16_t ADCRawData[4];
extern uint16_t sensorValue[4];


uint16_t fir_filter(uint16_t *signal, uint16_t sample){
 8004084:	b5f0      	push	{r4, r5, r6, r7, lr}
 8004086:	b08b      	sub	sp, #44	; 0x2c
//	         1108
//		    };
//	uint32_t DCgain = 65536;

	//20 hz 5 hz
	uint32_t FIRCoef[10] = {
 8004088:	466c      	mov	r4, sp
uint16_t fir_filter(uint16_t *signal, uint16_t sample){
 800408a:	4606      	mov	r6, r0
	uint32_t FIRCoef[10] = {
 800408c:	4d0f      	ldr	r5, [pc, #60]	; (80040cc <fir_filter+0x48>)
uint16_t fir_filter(uint16_t *signal, uint16_t sample){
 800408e:	460f      	mov	r7, r1
	uint32_t FIRCoef[10] = {
 8004090:	cd0f      	ldmia	r5!, {r0, r1, r2, r3}
 8004092:	c40f      	stmia	r4!, {r0, r1, r2, r3}
 8004094:	cd0f      	ldmia	r5!, {r0, r1, r2, r3}
 8004096:	c40f      	stmia	r4!, {r0, r1, r2, r3}
 8004098:	e895 0003 	ldmia.w	r5, {r0, r1}
 800409c:	e884 0003 	stmia.w	r4, {r0, r1}
 80040a0:	f106 0312 	add.w	r3, r6, #18


	uint8_t i = 0;

	for (i = 10 - 1; i> 0; i--){
		signal[i] = signal[i-1];
 80040a4:	f833 2d02 	ldrh.w	r2, [r3, #-2]!
	for (i = 10 - 1; i> 0; i--){
 80040a8:	429e      	cmp	r6, r3
		signal[i] = signal[i-1];
 80040aa:	805a      	strh	r2, [r3, #2]
	for (i = 10 - 1; i> 0; i--){
 80040ac:	d1fa      	bne.n	80040a4 <fir_filter+0x20>
	}

	signal[0] = sample;
 80040ae:	2300      	movs	r3, #0
	filteredSample = 0;
 80040b0:	4618      	mov	r0, r3
	signal[0] = sample;
 80040b2:	8037      	strh	r7, [r6, #0]

	for (i = 0 ; i < 10; i++){
		filteredSample += FIRCoef[i] * (uint32_t)signal[i];
 80040b4:	f836 2013 	ldrh.w	r2, [r6, r3, lsl #1]
 80040b8:	f85d 1023 	ldr.w	r1, [sp, r3, lsl #2]
 80040bc:	3301      	adds	r3, #1
	for (i = 0 ; i < 10; i++){
 80040be:	2b0a      	cmp	r3, #10
		filteredSample += FIRCoef[i] * (uint32_t)signal[i];
 80040c0:	fb01 0002 	mla	r0, r1, r2, r0
	for (i = 0 ; i < 10; i++){
 80040c4:	d1f6      	bne.n	80040b4 <fir_filter+0x30>
	}
	filteredSample = filteredSample / DCgain;

	return (uint16_t) filteredSample;
}
 80040c6:	0c00      	lsrs	r0, r0, #16
 80040c8:	b00b      	add	sp, #44	; 0x2c
 80040ca:	bdf0      	pop	{r4, r5, r6, r7, pc}
 80040cc:	080055d4 	.word	0x080055d4

080040d0 <xStoreADCDataTask>:

void xStoreADCDataTask(void* arguments){
 80040d0:	b580      	push	{r7, lr}
 80040d2:	b094      	sub	sp, #80	; 0x50

	uint16_t sens1_array[10] = {1};
 80040d4:	2214      	movs	r2, #20
 80040d6:	2100      	movs	r1, #0
 80040d8:	4668      	mov	r0, sp
 80040da:	f000 f948 	bl	800436e <memset>
	uint16_t sens2_array[10] = {2};
 80040de:	2214      	movs	r2, #20
	uint16_t sens1_array[10] = {1};
 80040e0:	2301      	movs	r3, #1
	uint16_t sens2_array[10] = {2};
 80040e2:	2100      	movs	r1, #0
 80040e4:	eb0d 0002 	add.w	r0, sp, r2
	uint16_t sens1_array[10] = {1};
 80040e8:	f8ad 3000 	strh.w	r3, [sp]
	uint16_t sens2_array[10] = {2};
 80040ec:	f000 f93f 	bl	800436e <memset>
 80040f0:	2302      	movs	r3, #2
	uint16_t sens3_array[10] = {3};
 80040f2:	2214      	movs	r2, #20
 80040f4:	2100      	movs	r1, #0
 80040f6:	a80a      	add	r0, sp, #40	; 0x28
	uint16_t sens2_array[10] = {2};
 80040f8:	f8ad 3014 	strh.w	r3, [sp, #20]
	uint16_t sens3_array[10] = {3};
 80040fc:	f000 f937 	bl	800436e <memset>
 8004100:	2303      	movs	r3, #3
	uint16_t sens4_array[10] = {4};
 8004102:	2214      	movs	r2, #20
 8004104:	2100      	movs	r1, #0
 8004106:	a80f      	add	r0, sp, #60	; 0x3c
	uint16_t sens3_array[10] = {3};
 8004108:	f8ad 3028 	strh.w	r3, [sp, #40]	; 0x28
	uint16_t sens4_array[10] = {4};
 800410c:	f000 f92f 	bl	800436e <memset>
 8004110:	2304      	movs	r3, #4


	for(;;){

		if (lastTimeCommand > 50){
 8004112:	4f4f      	ldr	r7, [pc, #316]	; (8004250 <xStoreADCDataTask+0x180>)
			C1_UP_OFF;
 8004114:	4c4f      	ldr	r4, [pc, #316]	; (8004254 <xStoreADCDataTask+0x184>)
			C2_UP_OFF;
			C2_DOWN_OFF;
			C3_UP_OFF;
			C3_DOWN_OFF;
			C4_UP_OFF;
			C4_DOWN_OFF;
 8004116:	f8df 815c 	ldr.w	r8, [pc, #348]	; 8004274 <xStoreADCDataTask+0x1a4>
	uint16_t sens4_array[10] = {4};
 800411a:	f8ad 303c 	strh.w	r3, [sp, #60]	; 0x3c
		if (lastTimeCommand > 50){
 800411e:	783b      	ldrb	r3, [r7, #0]
 8004120:	2b32      	cmp	r3, #50	; 0x32
 8004122:	d960      	bls.n	80041e6 <xStoreADCDataTask+0x116>
			C1_UP_OFF;
 8004124:	2200      	movs	r2, #0
 8004126:	2108      	movs	r1, #8
 8004128:	4620      	mov	r0, r4
 800412a:	f7fd f959 	bl	80013e0 <HAL_GPIO_WritePin>
			C1_DOWN_OFF;
 800412e:	2200      	movs	r2, #0
 8004130:	2104      	movs	r1, #4
 8004132:	4620      	mov	r0, r4
 8004134:	f7fd f954 	bl	80013e0 <HAL_GPIO_WritePin>
			C2_UP_OFF;
 8004138:	2200      	movs	r2, #0
 800413a:	2102      	movs	r1, #2
 800413c:	4620      	mov	r0, r4
 800413e:	f7fd f94f 	bl	80013e0 <HAL_GPIO_WritePin>
			C2_DOWN_OFF;
 8004142:	2200      	movs	r2, #0
 8004144:	2101      	movs	r1, #1
 8004146:	4620      	mov	r0, r4
 8004148:	f7fd f94a 	bl	80013e0 <HAL_GPIO_WritePin>
			C3_UP_OFF;
 800414c:	2200      	movs	r2, #0
 800414e:	f44f 5180 	mov.w	r1, #4096	; 0x1000
 8004152:	4620      	mov	r0, r4
 8004154:	f7fd f944 	bl	80013e0 <HAL_GPIO_WritePin>
			C3_DOWN_OFF;
 8004158:	2200      	movs	r2, #0
 800415a:	f44f 6100 	mov.w	r1, #2048	; 0x800
 800415e:	4620      	mov	r0, r4
 8004160:	f7fd f93e 	bl	80013e0 <HAL_GPIO_WritePin>
			C4_UP_OFF;
 8004164:	2200      	movs	r2, #0
 8004166:	f44f 6180 	mov.w	r1, #1024	; 0x400
 800416a:	4620      	mov	r0, r4
 800416c:	f7fd f938 	bl	80013e0 <HAL_GPIO_WritePin>
			C4_DOWN_OFF;
 8004170:	2200      	movs	r2, #0
 8004172:	f44f 4100 	mov.w	r1, #32768	; 0x8000
 8004176:	4640      	mov	r0, r8
 8004178:	f7fd f932 	bl	80013e0 <HAL_GPIO_WritePin>
			lastTimeCommand = 0;
 800417c:	2300      	movs	r3, #0
		}
		else{
			lastTimeCommand++;
 800417e:	703b      	strb	r3, [r7, #0]
		}

		sensorValue[SENS_1] = ADCRawData[SENS_1];
 8004180:	4b35      	ldr	r3, [pc, #212]	; (8004258 <xStoreADCDataTask+0x188>)
 8004182:	4d36      	ldr	r5, [pc, #216]	; (800425c <xStoreADCDataTask+0x18c>)
 8004184:	881a      	ldrh	r2, [r3, #0]
		sensorValue[SENS_2] = ADCRawData[SENS_2];
		sensorValue[SENS_3] = ADCRawData[SENS_3];
		sensorValue[SENS_4] = ADCRawData[SENS_4];

		HAL_ADCEx_InjectedStart_IT(&hadc1);
 8004186:	4836      	ldr	r0, [pc, #216]	; (8004260 <xStoreADCDataTask+0x190>)
		sensorValue[SENS_1] = ADCRawData[SENS_1];
 8004188:	802a      	strh	r2, [r5, #0]
		sensorValue[SENS_2] = ADCRawData[SENS_2];
 800418a:	885a      	ldrh	r2, [r3, #2]

		//TODO:    
		//LEFT_UP_ON;
		filteredData.sens_1 = fir_filter(sens1_array, sensorValue[SENS_1]);
 800418c:	4e35      	ldr	r6, [pc, #212]	; (8004264 <xStoreADCDataTask+0x194>)
		sensorValue[SENS_2] = ADCRawData[SENS_2];
 800418e:	806a      	strh	r2, [r5, #2]
		sensorValue[SENS_3] = ADCRawData[SENS_3];
 8004190:	889a      	ldrh	r2, [r3, #4]
		sensorValue[SENS_4] = ADCRawData[SENS_4];
 8004192:	88db      	ldrh	r3, [r3, #6]
		sensorValue[SENS_3] = ADCRawData[SENS_3];
 8004194:	80aa      	strh	r2, [r5, #4]
		sensorValue[SENS_4] = ADCRawData[SENS_4];
 8004196:	80eb      	strh	r3, [r5, #6]
		HAL_ADCEx_InjectedStart_IT(&hadc1);
 8004198:	f7fc fb90 	bl	80008bc <HAL_ADCEx_InjectedStart_IT>
		filteredData.sens_1 = fir_filter(sens1_array, sensorValue[SENS_1]);
 800419c:	8829      	ldrh	r1, [r5, #0]
 800419e:	4668      	mov	r0, sp
 80041a0:	f7ff ff70 	bl	8004084 <fir_filter>
		filteredData.sens_2 = fir_filter(sens2_array, sensorValue[SENS_2]);
 80041a4:	8869      	ldrh	r1, [r5, #2]
		filteredData.sens_1 = fir_filter(sens1_array, sensorValue[SENS_1]);
 80041a6:	8030      	strh	r0, [r6, #0]
		filteredData.sens_2 = fir_filter(sens2_array, sensorValue[SENS_2]);
 80041a8:	a805      	add	r0, sp, #20
 80041aa:	f7ff ff6b 	bl	8004084 <fir_filter>
		filteredData.sens_3 = fir_filter(sens3_array, sensorValue[SENS_3]);
 80041ae:	88a9      	ldrh	r1, [r5, #4]
		filteredData.sens_2 = fir_filter(sens2_array, sensorValue[SENS_2]);
 80041b0:	8070      	strh	r0, [r6, #2]
		filteredData.sens_3 = fir_filter(sens3_array, sensorValue[SENS_3]);
 80041b2:	a80a      	add	r0, sp, #40	; 0x28
 80041b4:	f7ff ff66 	bl	8004084 <fir_filter>
		filteredData.sens_4 = fir_filter(sens4_array, sensorValue[SENS_4]);
 80041b8:	88e9      	ldrh	r1, [r5, #6]
		filteredData.sens_3 = fir_filter(sens3_array, sensorValue[SENS_3]);
 80041ba:	80b0      	strh	r0, [r6, #4]
		filteredData.sens_4 = fir_filter(sens4_array, sensorValue[SENS_4]);
 80041bc:	a80f      	add	r0, sp, #60	; 0x3c
 80041be:	f7ff ff61 	bl	8004084 <fir_filter>
		//LEFT_UP_OFF;


		if (pressureCompensation == ON){
 80041c2:	4b29      	ldr	r3, [pc, #164]	; (8004268 <xStoreADCDataTask+0x198>)
		filteredData.sens_4 = fir_filter(sens4_array, sensorValue[SENS_4]);
 80041c4:	80f0      	strh	r0, [r6, #6]
		if (pressureCompensation == ON){
 80041c6:	781b      	ldrb	r3, [r3, #0]
 80041c8:	4d28      	ldr	r5, [pc, #160]	; (800426c <xStoreADCDataTask+0x19c>)
 80041ca:	2b01      	cmp	r3, #1
 80041cc:	d10d      	bne.n	80041ea <xStoreADCDataTask+0x11a>
			prevCompensation = ON;
 80041ce:	702b      	strb	r3, [r5, #0]
			xSemaphoreGive(xPressureCompensationSemaphore);
 80041d0:	2300      	movs	r3, #0
 80041d2:	4827      	ldr	r0, [pc, #156]	; (8004270 <xStoreADCDataTask+0x1a0>)
 80041d4:	461a      	mov	r2, r3
 80041d6:	4619      	mov	r1, r3
 80041d8:	6800      	ldr	r0, [r0, #0]
 80041da:	f7fe fb39 	bl	8002850 <xQueueGenericSend>
				prevCompensation = OFF;
			}

		}

		vTaskDelay(ADC_DATA_PERIOD / portTICK_RATE_MS);
 80041de:	2032      	movs	r0, #50	; 0x32
 80041e0:	f7fe ff92 	bl	8003108 <vTaskDelay>
		if (lastTimeCommand > 50){
 80041e4:	e79b      	b.n	800411e <xStoreADCDataTask+0x4e>
			lastTimeCommand++;
 80041e6:	3301      	adds	r3, #1
 80041e8:	e7c9      	b.n	800417e <xStoreADCDataTask+0xae>
			if (prevCompensation == ON){
 80041ea:	782e      	ldrb	r6, [r5, #0]
 80041ec:	2e01      	cmp	r6, #1
 80041ee:	d1f6      	bne.n	80041de <xStoreADCDataTask+0x10e>
				C1_UP_OFF;
 80041f0:	2200      	movs	r2, #0
 80041f2:	2108      	movs	r1, #8
 80041f4:	4620      	mov	r0, r4
 80041f6:	f7fd f8f3 	bl	80013e0 <HAL_GPIO_WritePin>
				C1_DOWN_OFF;
 80041fa:	2200      	movs	r2, #0
 80041fc:	2104      	movs	r1, #4
 80041fe:	4620      	mov	r0, r4
 8004200:	f7fd f8ee 	bl	80013e0 <HAL_GPIO_WritePin>
				C2_UP_OFF;
 8004204:	2200      	movs	r2, #0
 8004206:	2102      	movs	r1, #2
 8004208:	4620      	mov	r0, r4
 800420a:	f7fd f8e9 	bl	80013e0 <HAL_GPIO_WritePin>
				C2_DOWN_OFF;
 800420e:	2200      	movs	r2, #0
 8004210:	4631      	mov	r1, r6
 8004212:	4620      	mov	r0, r4
 8004214:	f7fd f8e4 	bl	80013e0 <HAL_GPIO_WritePin>
				C3_UP_OFF;
 8004218:	2200      	movs	r2, #0
 800421a:	f44f 5180 	mov.w	r1, #4096	; 0x1000
 800421e:	4620      	mov	r0, r4
 8004220:	f7fd f8de 	bl	80013e0 <HAL_GPIO_WritePin>
				C3_DOWN_OFF;
 8004224:	2200      	movs	r2, #0
 8004226:	f44f 6100 	mov.w	r1, #2048	; 0x800
 800422a:	4620      	mov	r0, r4
 800422c:	f7fd f8d8 	bl	80013e0 <HAL_GPIO_WritePin>
				C4_UP_OFF;
 8004230:	2200      	movs	r2, #0
 8004232:	f44f 6180 	mov.w	r1, #1024	; 0x400
 8004236:	4620      	mov	r0, r4
 8004238:	f7fd f8d2 	bl	80013e0 <HAL_GPIO_WritePin>
				C4_DOWN_OFF;
 800423c:	2200      	movs	r2, #0
 800423e:	f44f 4100 	mov.w	r1, #32768	; 0x8000
 8004242:	4640      	mov	r0, r8
 8004244:	f7fd f8cc 	bl	80013e0 <HAL_GPIO_WritePin>
				prevCompensation = OFF;
 8004248:	2300      	movs	r3, #0
 800424a:	702b      	strb	r3, [r5, #0]
 800424c:	e7c7      	b.n	80041de <xStoreADCDataTask+0x10e>
 800424e:	bf00      	nop
 8004250:	20005231 	.word	0x20005231
 8004254:	40011000 	.word	0x40011000
 8004258:	200052ec 	.word	0x200052ec
 800425c:	200053ae 	.word	0x200053ae
 8004260:	2000533c 	.word	0x2000533c
 8004264:	20005198 	.word	0x20005198
 8004268:	20005228 	.word	0x20005228
 800426c:	20005232 	.word	0x20005232
 8004270:	200052f4 	.word	0x200052f4
 8004274:	40010800 	.word	0x40010800

08004278 <_sbrk>:
	}
	return len;
}

caddr_t _sbrk(int incr)
{
 8004278:	b508      	push	{r3, lr}
	extern char end asm("end");
	static char *heap_end;
	char *prev_heap_end;

	if (heap_end == 0)
 800427a:	4b0a      	ldr	r3, [pc, #40]	; (80042a4 <_sbrk+0x2c>)
{
 800427c:	4602      	mov	r2, r0
	if (heap_end == 0)
 800427e:	6819      	ldr	r1, [r3, #0]
 8004280:	b909      	cbnz	r1, 8004286 <_sbrk+0xe>
		heap_end = &end;
 8004282:	4909      	ldr	r1, [pc, #36]	; (80042a8 <_sbrk+0x30>)
 8004284:	6019      	str	r1, [r3, #0]

	prev_heap_end = heap_end;
	if (heap_end + incr > stack_ptr)
 8004286:	4669      	mov	r1, sp
	prev_heap_end = heap_end;
 8004288:	6818      	ldr	r0, [r3, #0]
	if (heap_end + incr > stack_ptr)
 800428a:	4402      	add	r2, r0
 800428c:	428a      	cmp	r2, r1
 800428e:	d906      	bls.n	800429e <_sbrk+0x26>
	{
//		write(1, "Heap and stack collision\n", 25);
//		abort();
		errno = ENOMEM;
 8004290:	f000 f85c 	bl	800434c <__errno>
 8004294:	230c      	movs	r3, #12
 8004296:	6003      	str	r3, [r0, #0]
		return (caddr_t) -1;
 8004298:	f04f 30ff 	mov.w	r0, #4294967295
 800429c:	bd08      	pop	{r3, pc}
	}

	heap_end += incr;
 800429e:	601a      	str	r2, [r3, #0]

	return (caddr_t) prev_heap_end;
}
 80042a0:	bd08      	pop	{r3, pc}
 80042a2:	bf00      	nop
 80042a4:	20005234 	.word	0x20005234
 80042a8:	200053c4 	.word	0x200053c4

080042ac <SystemInit>:
  */
void SystemInit (void)
{
  /* Reset the RCC clock configuration to the default reset state(for debug purpose) */
  /* Set HSION bit */
  RCC->CR |= 0x00000001U;
 80042ac:	4b12      	ldr	r3, [pc, #72]	; (80042f8 <SystemInit+0x4c>)
 80042ae:	681a      	ldr	r2, [r3, #0]
 80042b0:	f042 0201 	orr.w	r2, r2, #1
 80042b4:	601a      	str	r2, [r3, #0]

  /* Reset SW, HPRE, PPRE1, PPRE2, ADCPRE and MCO bits */
#if !defined(STM32F105xC) && !defined(STM32F107xC)
  RCC->CFGR &= 0xF8FF0000U;
#else
  RCC->CFGR &= 0xF0FF0000U;
 80042b6:	6859      	ldr	r1, [r3, #4]
 80042b8:	4a10      	ldr	r2, [pc, #64]	; (80042fc <SystemInit+0x50>)
 80042ba:	400a      	ands	r2, r1
 80042bc:	605a      	str	r2, [r3, #4]
#endif /* STM32F105xC */   
  
  /* Reset HSEON, CSSON and PLLON bits */
  RCC->CR &= 0xFEF6FFFFU;
 80042be:	681a      	ldr	r2, [r3, #0]
 80042c0:	f022 7284 	bic.w	r2, r2, #17301504	; 0x1080000
 80042c4:	f422 3280 	bic.w	r2, r2, #65536	; 0x10000
 80042c8:	601a      	str	r2, [r3, #0]

  /* Reset HSEBYP bit */
  RCC->CR &= 0xFFFBFFFFU;
 80042ca:	681a      	ldr	r2, [r3, #0]
 80042cc:	f422 2280 	bic.w	r2, r2, #262144	; 0x40000
 80042d0:	601a      	str	r2, [r3, #0]

  /* Reset PLLSRC, PLLXTPRE, PLLMUL and USBPRE/OTGFSPRE bits */
  RCC->CFGR &= 0xFF80FFFFU;
 80042d2:	685a      	ldr	r2, [r3, #4]
 80042d4:	f422 02fe 	bic.w	r2, r2, #8323072	; 0x7f0000
 80042d8:	605a      	str	r2, [r3, #4]

#if defined(STM32F105xC) || defined(STM32F107xC)
  /* Reset PLL2ON and PLL3ON bits */
  RCC->CR &= 0xEBFFFFFFU;
 80042da:	681a      	ldr	r2, [r3, #0]
 80042dc:	f022 52a0 	bic.w	r2, r2, #335544320	; 0x14000000
 80042e0:	601a      	str	r2, [r3, #0]

  /* Disable all interrupts and clear pending bits  */
  RCC->CIR = 0x00FF0000U;
 80042e2:	f44f 027f 	mov.w	r2, #16711680	; 0xff0000
 80042e6:	609a      	str	r2, [r3, #8]

  /* Reset CFGR2 register */
  RCC->CFGR2 = 0x00000000U;
 80042e8:	2200      	movs	r2, #0
 80042ea:	62da      	str	r2, [r3, #44]	; 0x2c
#endif 

#ifdef VECT_TAB_SRAM
  SCB->VTOR = SRAM_BASE | VECT_TAB_OFFSET; /* Vector Table Relocation in Internal SRAM. */
#else
  SCB->VTOR = FLASH_BASE | VECT_TAB_OFFSET; /* Vector Table Relocation in Internal FLASH. */
 80042ec:	f04f 6200 	mov.w	r2, #134217728	; 0x8000000
 80042f0:	4b03      	ldr	r3, [pc, #12]	; (8004300 <SystemInit+0x54>)
 80042f2:	609a      	str	r2, [r3, #8]
 80042f4:	4770      	bx	lr
 80042f6:	bf00      	nop
 80042f8:	40021000 	.word	0x40021000
 80042fc:	f0ff0000 	.word	0xf0ff0000
 8004300:	e000ed00 	.word	0xe000ed00

08004304 <Reset_Handler>:
  .weak Reset_Handler
  .type Reset_Handler, %function
Reset_Handler:

/* Copy the data segment initializers from flash to SRAM */
  movs r1, #0
 8004304:	2100      	movs	r1, #0
  b LoopCopyDataInit
 8004306:	e003      	b.n	8004310 <LoopCopyDataInit>

08004308 <CopyDataInit>:

CopyDataInit:
  ldr r3, =_sidata
 8004308:	4b0a      	ldr	r3, [pc, #40]	; (8004334 <LoopFillZerobss+0x10>)
  ldr r3, [r3, r1]
 800430a:	585b      	ldr	r3, [r3, r1]
  str r3, [r0, r1]
 800430c:	5043      	str	r3, [r0, r1]
  adds r1, r1, #4
 800430e:	3104      	adds	r1, #4

08004310 <LoopCopyDataInit>:

LoopCopyDataInit:
  ldr r0, =_sdata
 8004310:	4809      	ldr	r0, [pc, #36]	; (8004338 <LoopFillZerobss+0x14>)
  ldr r3, =_edata
 8004312:	4b0a      	ldr	r3, [pc, #40]	; (800433c <LoopFillZerobss+0x18>)
  adds r2, r0, r1
 8004314:	1842      	adds	r2, r0, r1
  cmp r2, r3
 8004316:	429a      	cmp	r2, r3
  bcc CopyDataInit
 8004318:	d3f6      	bcc.n	8004308 <CopyDataInit>
  ldr r2, =_sbss
 800431a:	4a09      	ldr	r2, [pc, #36]	; (8004340 <LoopFillZerobss+0x1c>)
  b LoopFillZerobss
 800431c:	e002      	b.n	8004324 <LoopFillZerobss>

0800431e <FillZerobss>:

/* Zero fill the bss segment. */
FillZerobss:
  movs r3, #0
 800431e:	2300      	movs	r3, #0
  str r3, [r2], #4
 8004320:	f842 3b04 	str.w	r3, [r2], #4

08004324 <LoopFillZerobss>:

LoopFillZerobss:
  ldr r3, = _ebss
 8004324:	4b07      	ldr	r3, [pc, #28]	; (8004344 <LoopFillZerobss+0x20>)
  cmp r2, r3
 8004326:	429a      	cmp	r2, r3
  bcc FillZerobss
 8004328:	d3f9      	bcc.n	800431e <FillZerobss>
/* Call the clock system intitialization function.*/
    bl  SystemInit
 800432a:	f7ff ffbf 	bl	80042ac <SystemInit>
/* Call the application's entry point.*/
  bl main
 800432e:	f7ff fae7 	bl	8003900 <main>
  bx lr
 8004332:	4770      	bx	lr
  ldr r3, =_sidata
 8004334:	080058b0 	.word	0x080058b0
  ldr r0, =_sdata
 8004338:	20000000 	.word	0x20000000
  ldr r3, =_edata
 800433c:	200001e0 	.word	0x200001e0
  ldr r2, =_sbss
 8004340:	200001e0 	.word	0x200001e0
  ldr r3, = _ebss
 8004344:	200053c4 	.word	0x200053c4

08004348 <CAN1_RX0_IRQHandler>:
 * @retval None
*/
    .section .text.Default_Handler,"ax",%progbits
Default_Handler:
Infinite_Loop:
  b Infinite_Loop
 8004348:	e7fe      	b.n	8004348 <CAN1_RX0_IRQHandler>
	...

0800434c <__errno>:
 800434c:	4b01      	ldr	r3, [pc, #4]	; (8004354 <__errno+0x8>)
 800434e:	6818      	ldr	r0, [r3, #0]
 8004350:	4770      	bx	lr
 8004352:	bf00      	nop
 8004354:	20000010 	.word	0x20000010

08004358 <memcpy>:
 8004358:	b510      	push	{r4, lr}
 800435a:	1e43      	subs	r3, r0, #1
 800435c:	440a      	add	r2, r1
 800435e:	4291      	cmp	r1, r2
 8004360:	d100      	bne.n	8004364 <memcpy+0xc>
 8004362:	bd10      	pop	{r4, pc}
 8004364:	f811 4b01 	ldrb.w	r4, [r1], #1
 8004368:	f803 4f01 	strb.w	r4, [r3, #1]!
 800436c:	e7f7      	b.n	800435e <memcpy+0x6>

0800436e <memset>:
 800436e:	4603      	mov	r3, r0
 8004370:	4402      	add	r2, r0
 8004372:	4293      	cmp	r3, r2
 8004374:	d100      	bne.n	8004378 <memset+0xa>
 8004376:	4770      	bx	lr
 8004378:	f803 1b01 	strb.w	r1, [r3], #1
 800437c:	e7f9      	b.n	8004372 <memset+0x4>
	...

08004380 <siprintf>:
 8004380:	b40e      	push	{r1, r2, r3}
 8004382:	f44f 7102 	mov.w	r1, #520	; 0x208
 8004386:	b500      	push	{lr}
 8004388:	b09c      	sub	sp, #112	; 0x70
 800438a:	f8ad 1014 	strh.w	r1, [sp, #20]
 800438e:	f06f 4100 	mvn.w	r1, #2147483648	; 0x80000000
 8004392:	9104      	str	r1, [sp, #16]
 8004394:	9107      	str	r1, [sp, #28]
 8004396:	f64f 71ff 	movw	r1, #65535	; 0xffff
 800439a:	ab1d      	add	r3, sp, #116	; 0x74
 800439c:	9002      	str	r0, [sp, #8]
 800439e:	9006      	str	r0, [sp, #24]
 80043a0:	4808      	ldr	r0, [pc, #32]	; (80043c4 <siprintf+0x44>)
 80043a2:	f853 2b04 	ldr.w	r2, [r3], #4
 80043a6:	f8ad 1016 	strh.w	r1, [sp, #22]
 80043aa:	6800      	ldr	r0, [r0, #0]
 80043ac:	a902      	add	r1, sp, #8
 80043ae:	9301      	str	r3, [sp, #4]
 80043b0:	f000 f892 	bl	80044d8 <_svfiprintf_r>
 80043b4:	2200      	movs	r2, #0
 80043b6:	9b02      	ldr	r3, [sp, #8]
 80043b8:	701a      	strb	r2, [r3, #0]
 80043ba:	b01c      	add	sp, #112	; 0x70
 80043bc:	f85d eb04 	ldr.w	lr, [sp], #4
 80043c0:	b003      	add	sp, #12
 80043c2:	4770      	bx	lr
 80043c4:	20000010 	.word	0x20000010

080043c8 <siscanf>:
 80043c8:	b40e      	push	{r1, r2, r3}
 80043ca:	f44f 7201 	mov.w	r2, #516	; 0x204
 80043ce:	b530      	push	{r4, r5, lr}
 80043d0:	b09c      	sub	sp, #112	; 0x70
 80043d2:	ac1f      	add	r4, sp, #124	; 0x7c
 80043d4:	f854 5b04 	ldr.w	r5, [r4], #4
 80043d8:	f8ad 2014 	strh.w	r2, [sp, #20]
 80043dc:	9002      	str	r0, [sp, #8]
 80043de:	9006      	str	r0, [sp, #24]
 80043e0:	f7fb ff26 	bl	8000230 <strlen>
 80043e4:	4b0b      	ldr	r3, [pc, #44]	; (8004414 <siscanf+0x4c>)
 80043e6:	9003      	str	r0, [sp, #12]
 80043e8:	930b      	str	r3, [sp, #44]	; 0x2c
 80043ea:	2300      	movs	r3, #0
 80043ec:	930f      	str	r3, [sp, #60]	; 0x3c
 80043ee:	9314      	str	r3, [sp, #80]	; 0x50
 80043f0:	f64f 73ff 	movw	r3, #65535	; 0xffff
 80043f4:	9007      	str	r0, [sp, #28]
 80043f6:	4808      	ldr	r0, [pc, #32]	; (8004418 <siscanf+0x50>)
 80043f8:	f8ad 3016 	strh.w	r3, [sp, #22]
 80043fc:	462a      	mov	r2, r5
 80043fe:	4623      	mov	r3, r4
 8004400:	a902      	add	r1, sp, #8
 8004402:	6800      	ldr	r0, [r0, #0]
 8004404:	9401      	str	r4, [sp, #4]
 8004406:	f000 f9b5 	bl	8004774 <__ssvfiscanf_r>
 800440a:	b01c      	add	sp, #112	; 0x70
 800440c:	e8bd 4030 	ldmia.w	sp!, {r4, r5, lr}
 8004410:	b003      	add	sp, #12
 8004412:	4770      	bx	lr
 8004414:	0800441d 	.word	0x0800441d
 8004418:	20000010 	.word	0x20000010

0800441c <__seofread>:
 800441c:	2000      	movs	r0, #0
 800441e:	4770      	bx	lr

08004420 <__ssputs_r>:
 8004420:	e92d 47f0 	stmdb	sp!, {r4, r5, r6, r7, r8, r9, sl, lr}
 8004424:	688e      	ldr	r6, [r1, #8]
 8004426:	4682      	mov	sl, r0
 8004428:	429e      	cmp	r6, r3
 800442a:	460c      	mov	r4, r1
 800442c:	4691      	mov	r9, r2
 800442e:	4698      	mov	r8, r3
 8004430:	d835      	bhi.n	800449e <__ssputs_r+0x7e>
 8004432:	898a      	ldrh	r2, [r1, #12]
 8004434:	f412 6f90 	tst.w	r2, #1152	; 0x480
 8004438:	d031      	beq.n	800449e <__ssputs_r+0x7e>
 800443a:	2302      	movs	r3, #2
 800443c:	6825      	ldr	r5, [r4, #0]
 800443e:	6909      	ldr	r1, [r1, #16]
 8004440:	1a6f      	subs	r7, r5, r1
 8004442:	6965      	ldr	r5, [r4, #20]
 8004444:	eb05 0545 	add.w	r5, r5, r5, lsl #1
 8004448:	fb95 f5f3 	sdiv	r5, r5, r3
 800444c:	f108 0301 	add.w	r3, r8, #1
 8004450:	443b      	add	r3, r7
 8004452:	429d      	cmp	r5, r3
 8004454:	bf38      	it	cc
 8004456:	461d      	movcc	r5, r3
 8004458:	0553      	lsls	r3, r2, #21
 800445a:	d531      	bpl.n	80044c0 <__ssputs_r+0xa0>
 800445c:	4629      	mov	r1, r5
 800445e:	f000 fff1 	bl	8005444 <_malloc_r>
 8004462:	4606      	mov	r6, r0
 8004464:	b950      	cbnz	r0, 800447c <__ssputs_r+0x5c>
 8004466:	230c      	movs	r3, #12
 8004468:	f8ca 3000 	str.w	r3, [sl]
 800446c:	89a3      	ldrh	r3, [r4, #12]
 800446e:	f04f 30ff 	mov.w	r0, #4294967295
 8004472:	f043 0340 	orr.w	r3, r3, #64	; 0x40
 8004476:	81a3      	strh	r3, [r4, #12]
 8004478:	e8bd 87f0 	ldmia.w	sp!, {r4, r5, r6, r7, r8, r9, sl, pc}
 800447c:	463a      	mov	r2, r7
 800447e:	6921      	ldr	r1, [r4, #16]
 8004480:	f7ff ff6a 	bl	8004358 <memcpy>
 8004484:	89a3      	ldrh	r3, [r4, #12]
 8004486:	f423 6390 	bic.w	r3, r3, #1152	; 0x480
 800448a:	f043 0380 	orr.w	r3, r3, #128	; 0x80
 800448e:	81a3      	strh	r3, [r4, #12]
 8004490:	6126      	str	r6, [r4, #16]
 8004492:	443e      	add	r6, r7
 8004494:	6026      	str	r6, [r4, #0]
 8004496:	4646      	mov	r6, r8
 8004498:	6165      	str	r5, [r4, #20]
 800449a:	1bed      	subs	r5, r5, r7
 800449c:	60a5      	str	r5, [r4, #8]
 800449e:	4546      	cmp	r6, r8
 80044a0:	bf28      	it	cs
 80044a2:	4646      	movcs	r6, r8
 80044a4:	4649      	mov	r1, r9
 80044a6:	4632      	mov	r2, r6
 80044a8:	6820      	ldr	r0, [r4, #0]
 80044aa:	f000 ff65 	bl	8005378 <memmove>
 80044ae:	68a3      	ldr	r3, [r4, #8]
 80044b0:	2000      	movs	r0, #0
 80044b2:	1b9b      	subs	r3, r3, r6
 80044b4:	60a3      	str	r3, [r4, #8]
 80044b6:	6823      	ldr	r3, [r4, #0]
 80044b8:	441e      	add	r6, r3
 80044ba:	6026      	str	r6, [r4, #0]
 80044bc:	e8bd 87f0 	ldmia.w	sp!, {r4, r5, r6, r7, r8, r9, sl, pc}
 80044c0:	462a      	mov	r2, r5
 80044c2:	f001 f81d 	bl	8005500 <_realloc_r>
 80044c6:	4606      	mov	r6, r0
 80044c8:	2800      	cmp	r0, #0
 80044ca:	d1e1      	bne.n	8004490 <__ssputs_r+0x70>
 80044cc:	6921      	ldr	r1, [r4, #16]
 80044ce:	4650      	mov	r0, sl
 80044d0:	f000 ff6c 	bl	80053ac <_free_r>
 80044d4:	e7c7      	b.n	8004466 <__ssputs_r+0x46>
	...

080044d8 <_svfiprintf_r>:
 80044d8:	e92d 4ff0 	stmdb	sp!, {r4, r5, r6, r7, r8, r9, sl, fp, lr}
 80044dc:	b09d      	sub	sp, #116	; 0x74
 80044de:	9303      	str	r3, [sp, #12]
 80044e0:	898b      	ldrh	r3, [r1, #12]
 80044e2:	4680      	mov	r8, r0
 80044e4:	061c      	lsls	r4, r3, #24
 80044e6:	460d      	mov	r5, r1
 80044e8:	4616      	mov	r6, r2
 80044ea:	d50f      	bpl.n	800450c <_svfiprintf_r+0x34>
 80044ec:	690b      	ldr	r3, [r1, #16]
 80044ee:	b96b      	cbnz	r3, 800450c <_svfiprintf_r+0x34>
 80044f0:	2140      	movs	r1, #64	; 0x40
 80044f2:	f000 ffa7 	bl	8005444 <_malloc_r>
 80044f6:	6028      	str	r0, [r5, #0]
 80044f8:	6128      	str	r0, [r5, #16]
 80044fa:	b928      	cbnz	r0, 8004508 <_svfiprintf_r+0x30>
 80044fc:	230c      	movs	r3, #12
 80044fe:	f8c8 3000 	str.w	r3, [r8]
 8004502:	f04f 30ff 	mov.w	r0, #4294967295
 8004506:	e0c4      	b.n	8004692 <_svfiprintf_r+0x1ba>
 8004508:	2340      	movs	r3, #64	; 0x40
 800450a:	616b      	str	r3, [r5, #20]
 800450c:	2300      	movs	r3, #0
 800450e:	9309      	str	r3, [sp, #36]	; 0x24
 8004510:	2320      	movs	r3, #32
 8004512:	f88d 3029 	strb.w	r3, [sp, #41]	; 0x29
 8004516:	2330      	movs	r3, #48	; 0x30
 8004518:	f04f 0b01 	mov.w	fp, #1
 800451c:	f88d 302a 	strb.w	r3, [sp, #42]	; 0x2a
 8004520:	4637      	mov	r7, r6
 8004522:	463c      	mov	r4, r7
 8004524:	f814 3b01 	ldrb.w	r3, [r4], #1
 8004528:	2b00      	cmp	r3, #0
 800452a:	d13c      	bne.n	80045a6 <_svfiprintf_r+0xce>
 800452c:	ebb7 0a06 	subs.w	sl, r7, r6
 8004530:	d00b      	beq.n	800454a <_svfiprintf_r+0x72>
 8004532:	4653      	mov	r3, sl
 8004534:	4632      	mov	r2, r6
 8004536:	4629      	mov	r1, r5
 8004538:	4640      	mov	r0, r8
 800453a:	f7ff ff71 	bl	8004420 <__ssputs_r>
 800453e:	3001      	adds	r0, #1
 8004540:	f000 80a2 	beq.w	8004688 <_svfiprintf_r+0x1b0>
 8004544:	9b09      	ldr	r3, [sp, #36]	; 0x24
 8004546:	4453      	add	r3, sl
 8004548:	9309      	str	r3, [sp, #36]	; 0x24
 800454a:	783b      	ldrb	r3, [r7, #0]
 800454c:	2b00      	cmp	r3, #0
 800454e:	f000 809b 	beq.w	8004688 <_svfiprintf_r+0x1b0>
 8004552:	2300      	movs	r3, #0
 8004554:	f04f 32ff 	mov.w	r2, #4294967295
 8004558:	9304      	str	r3, [sp, #16]
 800455a:	9307      	str	r3, [sp, #28]
 800455c:	9205      	str	r2, [sp, #20]
 800455e:	9306      	str	r3, [sp, #24]
 8004560:	f88d 3053 	strb.w	r3, [sp, #83]	; 0x53
 8004564:	931a      	str	r3, [sp, #104]	; 0x68
 8004566:	2205      	movs	r2, #5
 8004568:	7821      	ldrb	r1, [r4, #0]
 800456a:	4850      	ldr	r0, [pc, #320]	; (80046ac <_svfiprintf_r+0x1d4>)
 800456c:	f000 fef6 	bl	800535c <memchr>
 8004570:	1c67      	adds	r7, r4, #1
 8004572:	9b04      	ldr	r3, [sp, #16]
 8004574:	b9d8      	cbnz	r0, 80045ae <_svfiprintf_r+0xd6>
 8004576:	06d9      	lsls	r1, r3, #27
 8004578:	bf44      	itt	mi
 800457a:	2220      	movmi	r2, #32
 800457c:	f88d 2053 	strbmi.w	r2, [sp, #83]	; 0x53
 8004580:	071a      	lsls	r2, r3, #28
 8004582:	bf44      	itt	mi
 8004584:	222b      	movmi	r2, #43	; 0x2b
 8004586:	f88d 2053 	strbmi.w	r2, [sp, #83]	; 0x53
 800458a:	7822      	ldrb	r2, [r4, #0]
 800458c:	2a2a      	cmp	r2, #42	; 0x2a
 800458e:	d016      	beq.n	80045be <_svfiprintf_r+0xe6>
 8004590:	2100      	movs	r1, #0
 8004592:	200a      	movs	r0, #10
 8004594:	9a07      	ldr	r2, [sp, #28]
 8004596:	4627      	mov	r7, r4
 8004598:	783b      	ldrb	r3, [r7, #0]
 800459a:	3401      	adds	r4, #1
 800459c:	3b30      	subs	r3, #48	; 0x30
 800459e:	2b09      	cmp	r3, #9
 80045a0:	d950      	bls.n	8004644 <_svfiprintf_r+0x16c>
 80045a2:	b1c9      	cbz	r1, 80045d8 <_svfiprintf_r+0x100>
 80045a4:	e011      	b.n	80045ca <_svfiprintf_r+0xf2>
 80045a6:	2b25      	cmp	r3, #37	; 0x25
 80045a8:	d0c0      	beq.n	800452c <_svfiprintf_r+0x54>
 80045aa:	4627      	mov	r7, r4
 80045ac:	e7b9      	b.n	8004522 <_svfiprintf_r+0x4a>
 80045ae:	4a3f      	ldr	r2, [pc, #252]	; (80046ac <_svfiprintf_r+0x1d4>)
 80045b0:	463c      	mov	r4, r7
 80045b2:	1a80      	subs	r0, r0, r2
 80045b4:	fa0b f000 	lsl.w	r0, fp, r0
 80045b8:	4318      	orrs	r0, r3
 80045ba:	9004      	str	r0, [sp, #16]
 80045bc:	e7d3      	b.n	8004566 <_svfiprintf_r+0x8e>
 80045be:	9a03      	ldr	r2, [sp, #12]
 80045c0:	1d11      	adds	r1, r2, #4
 80045c2:	6812      	ldr	r2, [r2, #0]
 80045c4:	9103      	str	r1, [sp, #12]
 80045c6:	2a00      	cmp	r2, #0
 80045c8:	db01      	blt.n	80045ce <_svfiprintf_r+0xf6>
 80045ca:	9207      	str	r2, [sp, #28]
 80045cc:	e004      	b.n	80045d8 <_svfiprintf_r+0x100>
 80045ce:	4252      	negs	r2, r2
 80045d0:	f043 0302 	orr.w	r3, r3, #2
 80045d4:	9207      	str	r2, [sp, #28]
 80045d6:	9304      	str	r3, [sp, #16]
 80045d8:	783b      	ldrb	r3, [r7, #0]
 80045da:	2b2e      	cmp	r3, #46	; 0x2e
 80045dc:	d10d      	bne.n	80045fa <_svfiprintf_r+0x122>
 80045de:	787b      	ldrb	r3, [r7, #1]
 80045e0:	1c79      	adds	r1, r7, #1
 80045e2:	2b2a      	cmp	r3, #42	; 0x2a
 80045e4:	d132      	bne.n	800464c <_svfiprintf_r+0x174>
 80045e6:	9b03      	ldr	r3, [sp, #12]
 80045e8:	3702      	adds	r7, #2
 80045ea:	1d1a      	adds	r2, r3, #4
 80045ec:	681b      	ldr	r3, [r3, #0]
 80045ee:	9203      	str	r2, [sp, #12]
 80045f0:	2b00      	cmp	r3, #0
 80045f2:	bfb8      	it	lt
 80045f4:	f04f 33ff 	movlt.w	r3, #4294967295
 80045f8:	9305      	str	r3, [sp, #20]
 80045fa:	4c2d      	ldr	r4, [pc, #180]	; (80046b0 <_svfiprintf_r+0x1d8>)
 80045fc:	2203      	movs	r2, #3
 80045fe:	7839      	ldrb	r1, [r7, #0]
 8004600:	4620      	mov	r0, r4
 8004602:	f000 feab 	bl	800535c <memchr>
 8004606:	b138      	cbz	r0, 8004618 <_svfiprintf_r+0x140>
 8004608:	2340      	movs	r3, #64	; 0x40
 800460a:	1b00      	subs	r0, r0, r4
 800460c:	fa03 f000 	lsl.w	r0, r3, r0
 8004610:	9b04      	ldr	r3, [sp, #16]
 8004612:	3701      	adds	r7, #1
 8004614:	4303      	orrs	r3, r0
 8004616:	9304      	str	r3, [sp, #16]
 8004618:	7839      	ldrb	r1, [r7, #0]
 800461a:	2206      	movs	r2, #6
 800461c:	4825      	ldr	r0, [pc, #148]	; (80046b4 <_svfiprintf_r+0x1dc>)
 800461e:	1c7e      	adds	r6, r7, #1
 8004620:	f88d 1028 	strb.w	r1, [sp, #40]	; 0x28
 8004624:	f000 fe9a 	bl	800535c <memchr>
 8004628:	2800      	cmp	r0, #0
 800462a:	d035      	beq.n	8004698 <_svfiprintf_r+0x1c0>
 800462c:	4b22      	ldr	r3, [pc, #136]	; (80046b8 <_svfiprintf_r+0x1e0>)
 800462e:	b9fb      	cbnz	r3, 8004670 <_svfiprintf_r+0x198>
 8004630:	9b03      	ldr	r3, [sp, #12]
 8004632:	3307      	adds	r3, #7
 8004634:	f023 0307 	bic.w	r3, r3, #7
 8004638:	3308      	adds	r3, #8
 800463a:	9303      	str	r3, [sp, #12]
 800463c:	9b09      	ldr	r3, [sp, #36]	; 0x24
 800463e:	444b      	add	r3, r9
 8004640:	9309      	str	r3, [sp, #36]	; 0x24
 8004642:	e76d      	b.n	8004520 <_svfiprintf_r+0x48>
 8004644:	fb00 3202 	mla	r2, r0, r2, r3
 8004648:	2101      	movs	r1, #1
 800464a:	e7a4      	b.n	8004596 <_svfiprintf_r+0xbe>
 800464c:	2300      	movs	r3, #0
 800464e:	240a      	movs	r4, #10
 8004650:	4618      	mov	r0, r3
 8004652:	9305      	str	r3, [sp, #20]
 8004654:	460f      	mov	r7, r1
 8004656:	783a      	ldrb	r2, [r7, #0]
 8004658:	3101      	adds	r1, #1
 800465a:	3a30      	subs	r2, #48	; 0x30
 800465c:	2a09      	cmp	r2, #9
 800465e:	d903      	bls.n	8004668 <_svfiprintf_r+0x190>
 8004660:	2b00      	cmp	r3, #0
 8004662:	d0ca      	beq.n	80045fa <_svfiprintf_r+0x122>
 8004664:	9005      	str	r0, [sp, #20]
 8004666:	e7c8      	b.n	80045fa <_svfiprintf_r+0x122>
 8004668:	fb04 2000 	mla	r0, r4, r0, r2
 800466c:	2301      	movs	r3, #1
 800466e:	e7f1      	b.n	8004654 <_svfiprintf_r+0x17c>
 8004670:	ab03      	add	r3, sp, #12
 8004672:	9300      	str	r3, [sp, #0]
 8004674:	462a      	mov	r2, r5
 8004676:	4b11      	ldr	r3, [pc, #68]	; (80046bc <_svfiprintf_r+0x1e4>)
 8004678:	a904      	add	r1, sp, #16
 800467a:	4640      	mov	r0, r8
 800467c:	f3af 8000 	nop.w
 8004680:	f1b0 3fff 	cmp.w	r0, #4294967295
 8004684:	4681      	mov	r9, r0
 8004686:	d1d9      	bne.n	800463c <_svfiprintf_r+0x164>
 8004688:	89ab      	ldrh	r3, [r5, #12]
 800468a:	065b      	lsls	r3, r3, #25
 800468c:	f53f af39 	bmi.w	8004502 <_svfiprintf_r+0x2a>
 8004690:	9809      	ldr	r0, [sp, #36]	; 0x24
 8004692:	b01d      	add	sp, #116	; 0x74
 8004694:	e8bd 8ff0 	ldmia.w	sp!, {r4, r5, r6, r7, r8, r9, sl, fp, pc}
 8004698:	ab03      	add	r3, sp, #12
 800469a:	9300      	str	r3, [sp, #0]
 800469c:	462a      	mov	r2, r5
 800469e:	4b07      	ldr	r3, [pc, #28]	; (80046bc <_svfiprintf_r+0x1e4>)
 80046a0:	a904      	add	r1, sp, #16
 80046a2:	4640      	mov	r0, r8
 80046a4:	f000 fa32 	bl	8004b0c <_printf_i>
 80046a8:	e7ea      	b.n	8004680 <_svfiprintf_r+0x1a8>
 80046aa:	bf00      	nop
 80046ac:	080056e4 	.word	0x080056e4
 80046b0:	080056ea 	.word	0x080056ea
 80046b4:	080056ee 	.word	0x080056ee
 80046b8:	00000000 	.word	0x00000000
 80046bc:	08004421 	.word	0x08004421

080046c0 <_sungetc_r>:
 80046c0:	b538      	push	{r3, r4, r5, lr}
 80046c2:	1c4b      	adds	r3, r1, #1
 80046c4:	4614      	mov	r4, r2
 80046c6:	d103      	bne.n	80046d0 <_sungetc_r+0x10>
 80046c8:	f04f 35ff 	mov.w	r5, #4294967295
 80046cc:	4628      	mov	r0, r5
 80046ce:	bd38      	pop	{r3, r4, r5, pc}
 80046d0:	8993      	ldrh	r3, [r2, #12]
 80046d2:	b2cd      	uxtb	r5, r1
 80046d4:	f023 0320 	bic.w	r3, r3, #32
 80046d8:	8193      	strh	r3, [r2, #12]
 80046da:	6b53      	ldr	r3, [r2, #52]	; 0x34
 80046dc:	6852      	ldr	r2, [r2, #4]
 80046de:	b18b      	cbz	r3, 8004704 <_sungetc_r+0x44>
 80046e0:	6ba3      	ldr	r3, [r4, #56]	; 0x38
 80046e2:	429a      	cmp	r2, r3
 80046e4:	da08      	bge.n	80046f8 <_sungetc_r+0x38>
 80046e6:	6823      	ldr	r3, [r4, #0]
 80046e8:	1e5a      	subs	r2, r3, #1
 80046ea:	6022      	str	r2, [r4, #0]
 80046ec:	f803 5c01 	strb.w	r5, [r3, #-1]
 80046f0:	6863      	ldr	r3, [r4, #4]
 80046f2:	3301      	adds	r3, #1
 80046f4:	6063      	str	r3, [r4, #4]
 80046f6:	e7e9      	b.n	80046cc <_sungetc_r+0xc>
 80046f8:	4621      	mov	r1, r4
 80046fa:	f000 fdd3 	bl	80052a4 <__submore>
 80046fe:	2800      	cmp	r0, #0
 8004700:	d0f1      	beq.n	80046e6 <_sungetc_r+0x26>
 8004702:	e7e1      	b.n	80046c8 <_sungetc_r+0x8>
 8004704:	6921      	ldr	r1, [r4, #16]
 8004706:	6823      	ldr	r3, [r4, #0]
 8004708:	b151      	cbz	r1, 8004720 <_sungetc_r+0x60>
 800470a:	4299      	cmp	r1, r3
 800470c:	d208      	bcs.n	8004720 <_sungetc_r+0x60>
 800470e:	f813 1c01 	ldrb.w	r1, [r3, #-1]
 8004712:	428d      	cmp	r5, r1
 8004714:	d104      	bne.n	8004720 <_sungetc_r+0x60>
 8004716:	3b01      	subs	r3, #1
 8004718:	3201      	adds	r2, #1
 800471a:	6023      	str	r3, [r4, #0]
 800471c:	6062      	str	r2, [r4, #4]
 800471e:	e7d5      	b.n	80046cc <_sungetc_r+0xc>
 8004720:	63e3      	str	r3, [r4, #60]	; 0x3c
 8004722:	f104 0344 	add.w	r3, r4, #68	; 0x44
 8004726:	6363      	str	r3, [r4, #52]	; 0x34
 8004728:	2303      	movs	r3, #3
 800472a:	63a3      	str	r3, [r4, #56]	; 0x38
 800472c:	4623      	mov	r3, r4
 800472e:	6422      	str	r2, [r4, #64]	; 0x40
 8004730:	f803 5f46 	strb.w	r5, [r3, #70]!
 8004734:	6023      	str	r3, [r4, #0]
 8004736:	2301      	movs	r3, #1
 8004738:	e7dc      	b.n	80046f4 <_sungetc_r+0x34>

0800473a <__ssrefill_r>:
 800473a:	b510      	push	{r4, lr}
 800473c:	460c      	mov	r4, r1
 800473e:	6b49      	ldr	r1, [r1, #52]	; 0x34
 8004740:	b169      	cbz	r1, 800475e <__ssrefill_r+0x24>
 8004742:	f104 0344 	add.w	r3, r4, #68	; 0x44
 8004746:	4299      	cmp	r1, r3
 8004748:	d001      	beq.n	800474e <__ssrefill_r+0x14>
 800474a:	f000 fe2f 	bl	80053ac <_free_r>
 800474e:	2000      	movs	r0, #0
 8004750:	6c23      	ldr	r3, [r4, #64]	; 0x40
 8004752:	6360      	str	r0, [r4, #52]	; 0x34
 8004754:	6063      	str	r3, [r4, #4]
 8004756:	b113      	cbz	r3, 800475e <__ssrefill_r+0x24>
 8004758:	6be3      	ldr	r3, [r4, #60]	; 0x3c
 800475a:	6023      	str	r3, [r4, #0]
 800475c:	bd10      	pop	{r4, pc}
 800475e:	6923      	ldr	r3, [r4, #16]
 8004760:	f04f 30ff 	mov.w	r0, #4294967295
 8004764:	6023      	str	r3, [r4, #0]
 8004766:	2300      	movs	r3, #0
 8004768:	6063      	str	r3, [r4, #4]
 800476a:	89a3      	ldrh	r3, [r4, #12]
 800476c:	f043 0320 	orr.w	r3, r3, #32
 8004770:	81a3      	strh	r3, [r4, #12]
 8004772:	bd10      	pop	{r4, pc}

08004774 <__ssvfiscanf_r>:
 8004774:	e92d 4ff0 	stmdb	sp!, {r4, r5, r6, r7, r8, r9, sl, fp, lr}
 8004778:	f5ad 7d25 	sub.w	sp, sp, #660	; 0x294
 800477c:	9301      	str	r3, [sp, #4]
 800477e:	2300      	movs	r3, #0
 8004780:	4606      	mov	r6, r0
 8004782:	460c      	mov	r4, r1
 8004784:	4692      	mov	sl, r2
 8004786:	270a      	movs	r7, #10
 8004788:	9346      	str	r3, [sp, #280]	; 0x118
 800478a:	9347      	str	r3, [sp, #284]	; 0x11c
 800478c:	4b9f      	ldr	r3, [pc, #636]	; (8004a0c <__ssvfiscanf_r+0x298>)
 800478e:	f10d 080c 	add.w	r8, sp, #12
 8004792:	93a2      	str	r3, [sp, #648]	; 0x288
 8004794:	4b9e      	ldr	r3, [pc, #632]	; (8004a10 <__ssvfiscanf_r+0x29c>)
 8004796:	f8df 927c 	ldr.w	r9, [pc, #636]	; 8004a14 <__ssvfiscanf_r+0x2a0>
 800479a:	f8cd 8120 	str.w	r8, [sp, #288]	; 0x120
 800479e:	93a3      	str	r3, [sp, #652]	; 0x28c
 80047a0:	f89a 3000 	ldrb.w	r3, [sl]
 80047a4:	2b00      	cmp	r3, #0
 80047a6:	f000 812f 	beq.w	8004a08 <__ssvfiscanf_r+0x294>
 80047aa:	f000 fdb7 	bl	800531c <__locale_ctype_ptr>
 80047ae:	f89a b000 	ldrb.w	fp, [sl]
 80047b2:	4458      	add	r0, fp
 80047b4:	7843      	ldrb	r3, [r0, #1]
 80047b6:	f013 0308 	ands.w	r3, r3, #8
 80047ba:	d143      	bne.n	8004844 <__ssvfiscanf_r+0xd0>
 80047bc:	f1bb 0f25 	cmp.w	fp, #37	; 0x25
 80047c0:	f10a 0501 	add.w	r5, sl, #1
 80047c4:	f040 8099 	bne.w	80048fa <__ssvfiscanf_r+0x186>
 80047c8:	9345      	str	r3, [sp, #276]	; 0x114
 80047ca:	9343      	str	r3, [sp, #268]	; 0x10c
 80047cc:	f89a 3001 	ldrb.w	r3, [sl, #1]
 80047d0:	2b2a      	cmp	r3, #42	; 0x2a
 80047d2:	d103      	bne.n	80047dc <__ssvfiscanf_r+0x68>
 80047d4:	2310      	movs	r3, #16
 80047d6:	f10a 0502 	add.w	r5, sl, #2
 80047da:	9343      	str	r3, [sp, #268]	; 0x10c
 80047dc:	7829      	ldrb	r1, [r5, #0]
 80047de:	46aa      	mov	sl, r5
 80047e0:	f1a1 0230 	sub.w	r2, r1, #48	; 0x30
 80047e4:	2a09      	cmp	r2, #9
 80047e6:	f105 0501 	add.w	r5, r5, #1
 80047ea:	d941      	bls.n	8004870 <__ssvfiscanf_r+0xfc>
 80047ec:	2203      	movs	r2, #3
 80047ee:	4889      	ldr	r0, [pc, #548]	; (8004a14 <__ssvfiscanf_r+0x2a0>)
 80047f0:	f000 fdb4 	bl	800535c <memchr>
 80047f4:	b138      	cbz	r0, 8004806 <__ssvfiscanf_r+0x92>
 80047f6:	eba0 0309 	sub.w	r3, r0, r9
 80047fa:	2001      	movs	r0, #1
 80047fc:	46aa      	mov	sl, r5
 80047fe:	4098      	lsls	r0, r3
 8004800:	9b43      	ldr	r3, [sp, #268]	; 0x10c
 8004802:	4318      	orrs	r0, r3
 8004804:	9043      	str	r0, [sp, #268]	; 0x10c
 8004806:	f89a 3000 	ldrb.w	r3, [sl]
 800480a:	f10a 0501 	add.w	r5, sl, #1
 800480e:	2b67      	cmp	r3, #103	; 0x67
 8004810:	d84a      	bhi.n	80048a8 <__ssvfiscanf_r+0x134>
 8004812:	2b65      	cmp	r3, #101	; 0x65
 8004814:	f080 80b7 	bcs.w	8004986 <__ssvfiscanf_r+0x212>
 8004818:	2b47      	cmp	r3, #71	; 0x47
 800481a:	d82f      	bhi.n	800487c <__ssvfiscanf_r+0x108>
 800481c:	2b45      	cmp	r3, #69	; 0x45
 800481e:	f080 80b2 	bcs.w	8004986 <__ssvfiscanf_r+0x212>
 8004822:	2b00      	cmp	r3, #0
 8004824:	f000 8082 	beq.w	800492c <__ssvfiscanf_r+0x1b8>
 8004828:	2b25      	cmp	r3, #37	; 0x25
 800482a:	d066      	beq.n	80048fa <__ssvfiscanf_r+0x186>
 800482c:	2303      	movs	r3, #3
 800482e:	9744      	str	r7, [sp, #272]	; 0x110
 8004830:	9349      	str	r3, [sp, #292]	; 0x124
 8004832:	e045      	b.n	80048c0 <__ssvfiscanf_r+0x14c>
 8004834:	9947      	ldr	r1, [sp, #284]	; 0x11c
 8004836:	3301      	adds	r3, #1
 8004838:	3101      	adds	r1, #1
 800483a:	9147      	str	r1, [sp, #284]	; 0x11c
 800483c:	6861      	ldr	r1, [r4, #4]
 800483e:	6023      	str	r3, [r4, #0]
 8004840:	3901      	subs	r1, #1
 8004842:	6061      	str	r1, [r4, #4]
 8004844:	6863      	ldr	r3, [r4, #4]
 8004846:	2b00      	cmp	r3, #0
 8004848:	dd0b      	ble.n	8004862 <__ssvfiscanf_r+0xee>
 800484a:	f000 fd67 	bl	800531c <__locale_ctype_ptr>
 800484e:	6823      	ldr	r3, [r4, #0]
 8004850:	7819      	ldrb	r1, [r3, #0]
 8004852:	4408      	add	r0, r1
 8004854:	7841      	ldrb	r1, [r0, #1]
 8004856:	070d      	lsls	r5, r1, #28
 8004858:	d4ec      	bmi.n	8004834 <__ssvfiscanf_r+0xc0>
 800485a:	f10a 0501 	add.w	r5, sl, #1
 800485e:	46aa      	mov	sl, r5
 8004860:	e79e      	b.n	80047a0 <__ssvfiscanf_r+0x2c>
 8004862:	9ba3      	ldr	r3, [sp, #652]	; 0x28c
 8004864:	4621      	mov	r1, r4
 8004866:	4630      	mov	r0, r6
 8004868:	4798      	blx	r3
 800486a:	2800      	cmp	r0, #0
 800486c:	d0ed      	beq.n	800484a <__ssvfiscanf_r+0xd6>
 800486e:	e7f4      	b.n	800485a <__ssvfiscanf_r+0xe6>
 8004870:	9b45      	ldr	r3, [sp, #276]	; 0x114
 8004872:	fb07 1303 	mla	r3, r7, r3, r1
 8004876:	3b30      	subs	r3, #48	; 0x30
 8004878:	9345      	str	r3, [sp, #276]	; 0x114
 800487a:	e7af      	b.n	80047dc <__ssvfiscanf_r+0x68>
 800487c:	2b5b      	cmp	r3, #91	; 0x5b
 800487e:	d061      	beq.n	8004944 <__ssvfiscanf_r+0x1d0>
 8004880:	d80c      	bhi.n	800489c <__ssvfiscanf_r+0x128>
 8004882:	2b58      	cmp	r3, #88	; 0x58
 8004884:	d1d2      	bne.n	800482c <__ssvfiscanf_r+0xb8>
 8004886:	9a43      	ldr	r2, [sp, #268]	; 0x10c
 8004888:	f442 7200 	orr.w	r2, r2, #512	; 0x200
 800488c:	9243      	str	r2, [sp, #268]	; 0x10c
 800488e:	2210      	movs	r2, #16
 8004890:	9244      	str	r2, [sp, #272]	; 0x110
 8004892:	2b6f      	cmp	r3, #111	; 0x6f
 8004894:	bfb4      	ite	lt
 8004896:	2303      	movlt	r3, #3
 8004898:	2304      	movge	r3, #4
 800489a:	e010      	b.n	80048be <__ssvfiscanf_r+0x14a>
 800489c:	2b63      	cmp	r3, #99	; 0x63
 800489e:	d05c      	beq.n	800495a <__ssvfiscanf_r+0x1e6>
 80048a0:	2b64      	cmp	r3, #100	; 0x64
 80048a2:	d1c3      	bne.n	800482c <__ssvfiscanf_r+0xb8>
 80048a4:	9744      	str	r7, [sp, #272]	; 0x110
 80048a6:	e7f4      	b.n	8004892 <__ssvfiscanf_r+0x11e>
 80048a8:	2b70      	cmp	r3, #112	; 0x70
 80048aa:	d042      	beq.n	8004932 <__ssvfiscanf_r+0x1be>
 80048ac:	d81d      	bhi.n	80048ea <__ssvfiscanf_r+0x176>
 80048ae:	2b6e      	cmp	r3, #110	; 0x6e
 80048b0:	d059      	beq.n	8004966 <__ssvfiscanf_r+0x1f2>
 80048b2:	d843      	bhi.n	800493c <__ssvfiscanf_r+0x1c8>
 80048b4:	2b69      	cmp	r3, #105	; 0x69
 80048b6:	d1b9      	bne.n	800482c <__ssvfiscanf_r+0xb8>
 80048b8:	2300      	movs	r3, #0
 80048ba:	9344      	str	r3, [sp, #272]	; 0x110
 80048bc:	2303      	movs	r3, #3
 80048be:	9349      	str	r3, [sp, #292]	; 0x124
 80048c0:	6863      	ldr	r3, [r4, #4]
 80048c2:	2b00      	cmp	r3, #0
 80048c4:	dd61      	ble.n	800498a <__ssvfiscanf_r+0x216>
 80048c6:	9b43      	ldr	r3, [sp, #268]	; 0x10c
 80048c8:	0659      	lsls	r1, r3, #25
 80048ca:	d56f      	bpl.n	80049ac <__ssvfiscanf_r+0x238>
 80048cc:	9b49      	ldr	r3, [sp, #292]	; 0x124
 80048ce:	2b02      	cmp	r3, #2
 80048d0:	dc7c      	bgt.n	80049cc <__ssvfiscanf_r+0x258>
 80048d2:	ab01      	add	r3, sp, #4
 80048d4:	4622      	mov	r2, r4
 80048d6:	a943      	add	r1, sp, #268	; 0x10c
 80048d8:	4630      	mov	r0, r6
 80048da:	f000 fa37 	bl	8004d4c <_scanf_chars>
 80048de:	2801      	cmp	r0, #1
 80048e0:	f000 8092 	beq.w	8004a08 <__ssvfiscanf_r+0x294>
 80048e4:	2802      	cmp	r0, #2
 80048e6:	d1ba      	bne.n	800485e <__ssvfiscanf_r+0xea>
 80048e8:	e01d      	b.n	8004926 <__ssvfiscanf_r+0x1b2>
 80048ea:	2b75      	cmp	r3, #117	; 0x75
 80048ec:	d0da      	beq.n	80048a4 <__ssvfiscanf_r+0x130>
 80048ee:	2b78      	cmp	r3, #120	; 0x78
 80048f0:	d0c9      	beq.n	8004886 <__ssvfiscanf_r+0x112>
 80048f2:	2b73      	cmp	r3, #115	; 0x73
 80048f4:	d19a      	bne.n	800482c <__ssvfiscanf_r+0xb8>
 80048f6:	2302      	movs	r3, #2
 80048f8:	e7e1      	b.n	80048be <__ssvfiscanf_r+0x14a>
 80048fa:	6863      	ldr	r3, [r4, #4]
 80048fc:	2b00      	cmp	r3, #0
 80048fe:	dd0c      	ble.n	800491a <__ssvfiscanf_r+0x1a6>
 8004900:	6823      	ldr	r3, [r4, #0]
 8004902:	781a      	ldrb	r2, [r3, #0]
 8004904:	4593      	cmp	fp, r2
 8004906:	d17f      	bne.n	8004a08 <__ssvfiscanf_r+0x294>
 8004908:	3301      	adds	r3, #1
 800490a:	6862      	ldr	r2, [r4, #4]
 800490c:	6023      	str	r3, [r4, #0]
 800490e:	9b47      	ldr	r3, [sp, #284]	; 0x11c
 8004910:	3a01      	subs	r2, #1
 8004912:	3301      	adds	r3, #1
 8004914:	6062      	str	r2, [r4, #4]
 8004916:	9347      	str	r3, [sp, #284]	; 0x11c
 8004918:	e7a1      	b.n	800485e <__ssvfiscanf_r+0xea>
 800491a:	9ba3      	ldr	r3, [sp, #652]	; 0x28c
 800491c:	4621      	mov	r1, r4
 800491e:	4630      	mov	r0, r6
 8004920:	4798      	blx	r3
 8004922:	2800      	cmp	r0, #0
 8004924:	d0ec      	beq.n	8004900 <__ssvfiscanf_r+0x18c>
 8004926:	9846      	ldr	r0, [sp, #280]	; 0x118
 8004928:	2800      	cmp	r0, #0
 800492a:	d163      	bne.n	80049f4 <__ssvfiscanf_r+0x280>
 800492c:	f04f 30ff 	mov.w	r0, #4294967295
 8004930:	e066      	b.n	8004a00 <__ssvfiscanf_r+0x28c>
 8004932:	9a43      	ldr	r2, [sp, #268]	; 0x10c
 8004934:	f042 0220 	orr.w	r2, r2, #32
 8004938:	9243      	str	r2, [sp, #268]	; 0x10c
 800493a:	e7a4      	b.n	8004886 <__ssvfiscanf_r+0x112>
 800493c:	2308      	movs	r3, #8
 800493e:	9344      	str	r3, [sp, #272]	; 0x110
 8004940:	2304      	movs	r3, #4
 8004942:	e7bc      	b.n	80048be <__ssvfiscanf_r+0x14a>
 8004944:	4629      	mov	r1, r5
 8004946:	4640      	mov	r0, r8
 8004948:	f000 fb5a 	bl	8005000 <__sccl>
 800494c:	9b43      	ldr	r3, [sp, #268]	; 0x10c
 800494e:	4605      	mov	r5, r0
 8004950:	f043 0340 	orr.w	r3, r3, #64	; 0x40
 8004954:	9343      	str	r3, [sp, #268]	; 0x10c
 8004956:	2301      	movs	r3, #1
 8004958:	e7b1      	b.n	80048be <__ssvfiscanf_r+0x14a>
 800495a:	9b43      	ldr	r3, [sp, #268]	; 0x10c
 800495c:	f043 0340 	orr.w	r3, r3, #64	; 0x40
 8004960:	9343      	str	r3, [sp, #268]	; 0x10c
 8004962:	2300      	movs	r3, #0
 8004964:	e7ab      	b.n	80048be <__ssvfiscanf_r+0x14a>
 8004966:	9a43      	ldr	r2, [sp, #268]	; 0x10c
 8004968:	06d0      	lsls	r0, r2, #27
 800496a:	f53f af78 	bmi.w	800485e <__ssvfiscanf_r+0xea>
 800496e:	f012 0f01 	tst.w	r2, #1
 8004972:	9a01      	ldr	r2, [sp, #4]
 8004974:	9b47      	ldr	r3, [sp, #284]	; 0x11c
 8004976:	f102 0104 	add.w	r1, r2, #4
 800497a:	9101      	str	r1, [sp, #4]
 800497c:	6812      	ldr	r2, [r2, #0]
 800497e:	bf14      	ite	ne
 8004980:	8013      	strhne	r3, [r2, #0]
 8004982:	6013      	streq	r3, [r2, #0]
 8004984:	e76b      	b.n	800485e <__ssvfiscanf_r+0xea>
 8004986:	2305      	movs	r3, #5
 8004988:	e799      	b.n	80048be <__ssvfiscanf_r+0x14a>
 800498a:	9ba3      	ldr	r3, [sp, #652]	; 0x28c
 800498c:	4621      	mov	r1, r4
 800498e:	4630      	mov	r0, r6
 8004990:	4798      	blx	r3
 8004992:	2800      	cmp	r0, #0
 8004994:	d097      	beq.n	80048c6 <__ssvfiscanf_r+0x152>
 8004996:	e7c6      	b.n	8004926 <__ssvfiscanf_r+0x1b2>
 8004998:	9a47      	ldr	r2, [sp, #284]	; 0x11c
 800499a:	3201      	adds	r2, #1
 800499c:	9247      	str	r2, [sp, #284]	; 0x11c
 800499e:	6862      	ldr	r2, [r4, #4]
 80049a0:	3a01      	subs	r2, #1
 80049a2:	2a00      	cmp	r2, #0
 80049a4:	6062      	str	r2, [r4, #4]
 80049a6:	dd0a      	ble.n	80049be <__ssvfiscanf_r+0x24a>
 80049a8:	3301      	adds	r3, #1
 80049aa:	6023      	str	r3, [r4, #0]
 80049ac:	f000 fcb6 	bl	800531c <__locale_ctype_ptr>
 80049b0:	6823      	ldr	r3, [r4, #0]
 80049b2:	781a      	ldrb	r2, [r3, #0]
 80049b4:	4410      	add	r0, r2
 80049b6:	7842      	ldrb	r2, [r0, #1]
 80049b8:	0712      	lsls	r2, r2, #28
 80049ba:	d4ed      	bmi.n	8004998 <__ssvfiscanf_r+0x224>
 80049bc:	e786      	b.n	80048cc <__ssvfiscanf_r+0x158>
 80049be:	9ba3      	ldr	r3, [sp, #652]	; 0x28c
 80049c0:	4621      	mov	r1, r4
 80049c2:	4630      	mov	r0, r6
 80049c4:	4798      	blx	r3
 80049c6:	2800      	cmp	r0, #0
 80049c8:	d0f0      	beq.n	80049ac <__ssvfiscanf_r+0x238>
 80049ca:	e7ac      	b.n	8004926 <__ssvfiscanf_r+0x1b2>
 80049cc:	2b04      	cmp	r3, #4
 80049ce:	dc06      	bgt.n	80049de <__ssvfiscanf_r+0x26a>
 80049d0:	ab01      	add	r3, sp, #4
 80049d2:	4622      	mov	r2, r4
 80049d4:	a943      	add	r1, sp, #268	; 0x10c
 80049d6:	4630      	mov	r0, r6
 80049d8:	f000 fa1c 	bl	8004e14 <_scanf_i>
 80049dc:	e77f      	b.n	80048de <__ssvfiscanf_r+0x16a>
 80049de:	4b0e      	ldr	r3, [pc, #56]	; (8004a18 <__ssvfiscanf_r+0x2a4>)
 80049e0:	2b00      	cmp	r3, #0
 80049e2:	f43f af3c 	beq.w	800485e <__ssvfiscanf_r+0xea>
 80049e6:	ab01      	add	r3, sp, #4
 80049e8:	4622      	mov	r2, r4
 80049ea:	a943      	add	r1, sp, #268	; 0x10c
 80049ec:	4630      	mov	r0, r6
 80049ee:	f3af 8000 	nop.w
 80049f2:	e774      	b.n	80048de <__ssvfiscanf_r+0x16a>
 80049f4:	89a3      	ldrh	r3, [r4, #12]
 80049f6:	f013 0f40 	tst.w	r3, #64	; 0x40
 80049fa:	bf18      	it	ne
 80049fc:	f04f 30ff 	movne.w	r0, #4294967295
 8004a00:	f50d 7d25 	add.w	sp, sp, #660	; 0x294
 8004a04:	e8bd 8ff0 	ldmia.w	sp!, {r4, r5, r6, r7, r8, r9, sl, fp, pc}
 8004a08:	9846      	ldr	r0, [sp, #280]	; 0x118
 8004a0a:	e7f9      	b.n	8004a00 <__ssvfiscanf_r+0x28c>
 8004a0c:	080046c1 	.word	0x080046c1
 8004a10:	0800473b 	.word	0x0800473b
 8004a14:	080056ea 	.word	0x080056ea
 8004a18:	00000000 	.word	0x00000000

08004a1c <_printf_common>:
 8004a1c:	e92d 47f0 	stmdb	sp!, {r4, r5, r6, r7, r8, r9, sl, lr}
 8004a20:	4691      	mov	r9, r2
 8004a22:	461f      	mov	r7, r3
 8004a24:	688a      	ldr	r2, [r1, #8]
 8004a26:	690b      	ldr	r3, [r1, #16]
 8004a28:	4606      	mov	r6, r0
 8004a2a:	4293      	cmp	r3, r2
 8004a2c:	bfb8      	it	lt
 8004a2e:	4613      	movlt	r3, r2
 8004a30:	f8c9 3000 	str.w	r3, [r9]
 8004a34:	f891 2043 	ldrb.w	r2, [r1, #67]	; 0x43
 8004a38:	460c      	mov	r4, r1
 8004a3a:	f8dd 8020 	ldr.w	r8, [sp, #32]
 8004a3e:	b112      	cbz	r2, 8004a46 <_printf_common+0x2a>
 8004a40:	3301      	adds	r3, #1
 8004a42:	f8c9 3000 	str.w	r3, [r9]
 8004a46:	6823      	ldr	r3, [r4, #0]
 8004a48:	0699      	lsls	r1, r3, #26
 8004a4a:	bf42      	ittt	mi
 8004a4c:	f8d9 3000 	ldrmi.w	r3, [r9]
 8004a50:	3302      	addmi	r3, #2
 8004a52:	f8c9 3000 	strmi.w	r3, [r9]
 8004a56:	6825      	ldr	r5, [r4, #0]
 8004a58:	f015 0506 	ands.w	r5, r5, #6
 8004a5c:	d107      	bne.n	8004a6e <_printf_common+0x52>
 8004a5e:	f104 0a19 	add.w	sl, r4, #25
 8004a62:	68e3      	ldr	r3, [r4, #12]
 8004a64:	f8d9 2000 	ldr.w	r2, [r9]
 8004a68:	1a9b      	subs	r3, r3, r2
 8004a6a:	429d      	cmp	r5, r3
 8004a6c:	db2a      	blt.n	8004ac4 <_printf_common+0xa8>
 8004a6e:	f894 3043 	ldrb.w	r3, [r4, #67]	; 0x43
 8004a72:	6822      	ldr	r2, [r4, #0]
 8004a74:	3300      	adds	r3, #0
 8004a76:	bf18      	it	ne
 8004a78:	2301      	movne	r3, #1
 8004a7a:	0692      	lsls	r2, r2, #26
 8004a7c:	d42f      	bmi.n	8004ade <_printf_common+0xc2>
 8004a7e:	f104 0243 	add.w	r2, r4, #67	; 0x43
 8004a82:	4639      	mov	r1, r7
 8004a84:	4630      	mov	r0, r6
 8004a86:	47c0      	blx	r8
 8004a88:	3001      	adds	r0, #1
 8004a8a:	d022      	beq.n	8004ad2 <_printf_common+0xb6>
 8004a8c:	6823      	ldr	r3, [r4, #0]
 8004a8e:	68e5      	ldr	r5, [r4, #12]
 8004a90:	f003 0306 	and.w	r3, r3, #6
 8004a94:	2b04      	cmp	r3, #4
 8004a96:	bf18      	it	ne
 8004a98:	2500      	movne	r5, #0
 8004a9a:	f8d9 2000 	ldr.w	r2, [r9]
 8004a9e:	f04f 0900 	mov.w	r9, #0
 8004aa2:	bf08      	it	eq
 8004aa4:	1aad      	subeq	r5, r5, r2
 8004aa6:	68a3      	ldr	r3, [r4, #8]
 8004aa8:	6922      	ldr	r2, [r4, #16]
 8004aaa:	bf08      	it	eq
 8004aac:	ea25 75e5 	biceq.w	r5, r5, r5, asr #31
 8004ab0:	4293      	cmp	r3, r2
 8004ab2:	bfc4      	itt	gt
 8004ab4:	1a9b      	subgt	r3, r3, r2
 8004ab6:	18ed      	addgt	r5, r5, r3
 8004ab8:	341a      	adds	r4, #26
 8004aba:	454d      	cmp	r5, r9
 8004abc:	d11b      	bne.n	8004af6 <_printf_common+0xda>
 8004abe:	2000      	movs	r0, #0
 8004ac0:	e8bd 87f0 	ldmia.w	sp!, {r4, r5, r6, r7, r8, r9, sl, pc}
 8004ac4:	2301      	movs	r3, #1
 8004ac6:	4652      	mov	r2, sl
 8004ac8:	4639      	mov	r1, r7
 8004aca:	4630      	mov	r0, r6
 8004acc:	47c0      	blx	r8
 8004ace:	3001      	adds	r0, #1
 8004ad0:	d103      	bne.n	8004ada <_printf_common+0xbe>
 8004ad2:	f04f 30ff 	mov.w	r0, #4294967295
 8004ad6:	e8bd 87f0 	ldmia.w	sp!, {r4, r5, r6, r7, r8, r9, sl, pc}
 8004ada:	3501      	adds	r5, #1
 8004adc:	e7c1      	b.n	8004a62 <_printf_common+0x46>
 8004ade:	2030      	movs	r0, #48	; 0x30
 8004ae0:	18e1      	adds	r1, r4, r3
 8004ae2:	f881 0043 	strb.w	r0, [r1, #67]	; 0x43
 8004ae6:	1c5a      	adds	r2, r3, #1
 8004ae8:	f894 1045 	ldrb.w	r1, [r4, #69]	; 0x45
 8004aec:	4422      	add	r2, r4
 8004aee:	3302      	adds	r3, #2
 8004af0:	f882 1043 	strb.w	r1, [r2, #67]	; 0x43
 8004af4:	e7c3      	b.n	8004a7e <_printf_common+0x62>
 8004af6:	2301      	movs	r3, #1
 8004af8:	4622      	mov	r2, r4
 8004afa:	4639      	mov	r1, r7
 8004afc:	4630      	mov	r0, r6
 8004afe:	47c0      	blx	r8
 8004b00:	3001      	adds	r0, #1
 8004b02:	d0e6      	beq.n	8004ad2 <_printf_common+0xb6>
 8004b04:	f109 0901 	add.w	r9, r9, #1
 8004b08:	e7d7      	b.n	8004aba <_printf_common+0x9e>
	...

08004b0c <_printf_i>:
 8004b0c:	e92d 43f0 	stmdb	sp!, {r4, r5, r6, r7, r8, r9, lr}
 8004b10:	4617      	mov	r7, r2
 8004b12:	7e0a      	ldrb	r2, [r1, #24]
 8004b14:	b085      	sub	sp, #20
 8004b16:	2a6e      	cmp	r2, #110	; 0x6e
 8004b18:	4698      	mov	r8, r3
 8004b1a:	4606      	mov	r6, r0
 8004b1c:	460c      	mov	r4, r1
 8004b1e:	9b0c      	ldr	r3, [sp, #48]	; 0x30
 8004b20:	f101 0e43 	add.w	lr, r1, #67	; 0x43
 8004b24:	f000 80bc 	beq.w	8004ca0 <_printf_i+0x194>
 8004b28:	d81a      	bhi.n	8004b60 <_printf_i+0x54>
 8004b2a:	2a63      	cmp	r2, #99	; 0x63
 8004b2c:	d02e      	beq.n	8004b8c <_printf_i+0x80>
 8004b2e:	d80a      	bhi.n	8004b46 <_printf_i+0x3a>
 8004b30:	2a00      	cmp	r2, #0
 8004b32:	f000 80c8 	beq.w	8004cc6 <_printf_i+0x1ba>
 8004b36:	2a58      	cmp	r2, #88	; 0x58
 8004b38:	f000 808a 	beq.w	8004c50 <_printf_i+0x144>
 8004b3c:	f104 0542 	add.w	r5, r4, #66	; 0x42
 8004b40:	f884 2042 	strb.w	r2, [r4, #66]	; 0x42
 8004b44:	e02a      	b.n	8004b9c <_printf_i+0x90>
 8004b46:	2a64      	cmp	r2, #100	; 0x64
 8004b48:	d001      	beq.n	8004b4e <_printf_i+0x42>
 8004b4a:	2a69      	cmp	r2, #105	; 0x69
 8004b4c:	d1f6      	bne.n	8004b3c <_printf_i+0x30>
 8004b4e:	6821      	ldr	r1, [r4, #0]
 8004b50:	681a      	ldr	r2, [r3, #0]
 8004b52:	f011 0f80 	tst.w	r1, #128	; 0x80
 8004b56:	d023      	beq.n	8004ba0 <_printf_i+0x94>
 8004b58:	1d11      	adds	r1, r2, #4
 8004b5a:	6019      	str	r1, [r3, #0]
 8004b5c:	6813      	ldr	r3, [r2, #0]
 8004b5e:	e027      	b.n	8004bb0 <_printf_i+0xa4>
 8004b60:	2a73      	cmp	r2, #115	; 0x73
 8004b62:	f000 80b4 	beq.w	8004cce <_printf_i+0x1c2>
 8004b66:	d808      	bhi.n	8004b7a <_printf_i+0x6e>
 8004b68:	2a6f      	cmp	r2, #111	; 0x6f
 8004b6a:	d02a      	beq.n	8004bc2 <_printf_i+0xb6>
 8004b6c:	2a70      	cmp	r2, #112	; 0x70
 8004b6e:	d1e5      	bne.n	8004b3c <_printf_i+0x30>
 8004b70:	680a      	ldr	r2, [r1, #0]
 8004b72:	f042 0220 	orr.w	r2, r2, #32
 8004b76:	600a      	str	r2, [r1, #0]
 8004b78:	e003      	b.n	8004b82 <_printf_i+0x76>
 8004b7a:	2a75      	cmp	r2, #117	; 0x75
 8004b7c:	d021      	beq.n	8004bc2 <_printf_i+0xb6>
 8004b7e:	2a78      	cmp	r2, #120	; 0x78
 8004b80:	d1dc      	bne.n	8004b3c <_printf_i+0x30>
 8004b82:	2278      	movs	r2, #120	; 0x78
 8004b84:	496f      	ldr	r1, [pc, #444]	; (8004d44 <_printf_i+0x238>)
 8004b86:	f884 2045 	strb.w	r2, [r4, #69]	; 0x45
 8004b8a:	e064      	b.n	8004c56 <_printf_i+0x14a>
 8004b8c:	681a      	ldr	r2, [r3, #0]
 8004b8e:	f101 0542 	add.w	r5, r1, #66	; 0x42
 8004b92:	1d11      	adds	r1, r2, #4
 8004b94:	6019      	str	r1, [r3, #0]
 8004b96:	6813      	ldr	r3, [r2, #0]
 8004b98:	f884 3042 	strb.w	r3, [r4, #66]	; 0x42
 8004b9c:	2301      	movs	r3, #1
 8004b9e:	e0a3      	b.n	8004ce8 <_printf_i+0x1dc>
 8004ba0:	f011 0f40 	tst.w	r1, #64	; 0x40
 8004ba4:	f102 0104 	add.w	r1, r2, #4
 8004ba8:	6019      	str	r1, [r3, #0]
 8004baa:	d0d7      	beq.n	8004b5c <_printf_i+0x50>
 8004bac:	f9b2 3000 	ldrsh.w	r3, [r2]
 8004bb0:	2b00      	cmp	r3, #0
 8004bb2:	da03      	bge.n	8004bbc <_printf_i+0xb0>
 8004bb4:	222d      	movs	r2, #45	; 0x2d
 8004bb6:	425b      	negs	r3, r3
 8004bb8:	f884 2043 	strb.w	r2, [r4, #67]	; 0x43
 8004bbc:	4962      	ldr	r1, [pc, #392]	; (8004d48 <_printf_i+0x23c>)
 8004bbe:	220a      	movs	r2, #10
 8004bc0:	e017      	b.n	8004bf2 <_printf_i+0xe6>
 8004bc2:	6820      	ldr	r0, [r4, #0]
 8004bc4:	6819      	ldr	r1, [r3, #0]
 8004bc6:	f010 0f80 	tst.w	r0, #128	; 0x80
 8004bca:	d003      	beq.n	8004bd4 <_printf_i+0xc8>
 8004bcc:	1d08      	adds	r0, r1, #4
 8004bce:	6018      	str	r0, [r3, #0]
 8004bd0:	680b      	ldr	r3, [r1, #0]
 8004bd2:	e006      	b.n	8004be2 <_printf_i+0xd6>
 8004bd4:	f010 0f40 	tst.w	r0, #64	; 0x40
 8004bd8:	f101 0004 	add.w	r0, r1, #4
 8004bdc:	6018      	str	r0, [r3, #0]
 8004bde:	d0f7      	beq.n	8004bd0 <_printf_i+0xc4>
 8004be0:	880b      	ldrh	r3, [r1, #0]
 8004be2:	2a6f      	cmp	r2, #111	; 0x6f
 8004be4:	bf14      	ite	ne
 8004be6:	220a      	movne	r2, #10
 8004be8:	2208      	moveq	r2, #8
 8004bea:	4957      	ldr	r1, [pc, #348]	; (8004d48 <_printf_i+0x23c>)
 8004bec:	2000      	movs	r0, #0
 8004bee:	f884 0043 	strb.w	r0, [r4, #67]	; 0x43
 8004bf2:	6865      	ldr	r5, [r4, #4]
 8004bf4:	2d00      	cmp	r5, #0
 8004bf6:	60a5      	str	r5, [r4, #8]
 8004bf8:	f2c0 809c 	blt.w	8004d34 <_printf_i+0x228>
 8004bfc:	6820      	ldr	r0, [r4, #0]
 8004bfe:	f020 0004 	bic.w	r0, r0, #4
 8004c02:	6020      	str	r0, [r4, #0]
 8004c04:	2b00      	cmp	r3, #0
 8004c06:	d13f      	bne.n	8004c88 <_printf_i+0x17c>
 8004c08:	2d00      	cmp	r5, #0
 8004c0a:	f040 8095 	bne.w	8004d38 <_printf_i+0x22c>
 8004c0e:	4675      	mov	r5, lr
 8004c10:	2a08      	cmp	r2, #8
 8004c12:	d10b      	bne.n	8004c2c <_printf_i+0x120>
 8004c14:	6823      	ldr	r3, [r4, #0]
 8004c16:	07da      	lsls	r2, r3, #31
 8004c18:	d508      	bpl.n	8004c2c <_printf_i+0x120>
 8004c1a:	6923      	ldr	r3, [r4, #16]
 8004c1c:	6862      	ldr	r2, [r4, #4]
 8004c1e:	429a      	cmp	r2, r3
 8004c20:	bfde      	ittt	le
 8004c22:	2330      	movle	r3, #48	; 0x30
 8004c24:	f805 3c01 	strble.w	r3, [r5, #-1]
 8004c28:	f105 35ff 	addle.w	r5, r5, #4294967295
 8004c2c:	ebae 0305 	sub.w	r3, lr, r5
 8004c30:	6123      	str	r3, [r4, #16]
 8004c32:	f8cd 8000 	str.w	r8, [sp]
 8004c36:	463b      	mov	r3, r7
 8004c38:	aa03      	add	r2, sp, #12
 8004c3a:	4621      	mov	r1, r4
 8004c3c:	4630      	mov	r0, r6
 8004c3e:	f7ff feed 	bl	8004a1c <_printf_common>
 8004c42:	3001      	adds	r0, #1
 8004c44:	d155      	bne.n	8004cf2 <_printf_i+0x1e6>
 8004c46:	f04f 30ff 	mov.w	r0, #4294967295
 8004c4a:	b005      	add	sp, #20
 8004c4c:	e8bd 83f0 	ldmia.w	sp!, {r4, r5, r6, r7, r8, r9, pc}
 8004c50:	f881 2045 	strb.w	r2, [r1, #69]	; 0x45
 8004c54:	493c      	ldr	r1, [pc, #240]	; (8004d48 <_printf_i+0x23c>)
 8004c56:	6822      	ldr	r2, [r4, #0]
 8004c58:	6818      	ldr	r0, [r3, #0]
 8004c5a:	f012 0f80 	tst.w	r2, #128	; 0x80
 8004c5e:	f100 0504 	add.w	r5, r0, #4
 8004c62:	601d      	str	r5, [r3, #0]
 8004c64:	d001      	beq.n	8004c6a <_printf_i+0x15e>
 8004c66:	6803      	ldr	r3, [r0, #0]
 8004c68:	e002      	b.n	8004c70 <_printf_i+0x164>
 8004c6a:	0655      	lsls	r5, r2, #25
 8004c6c:	d5fb      	bpl.n	8004c66 <_printf_i+0x15a>
 8004c6e:	8803      	ldrh	r3, [r0, #0]
 8004c70:	07d0      	lsls	r0, r2, #31
 8004c72:	bf44      	itt	mi
 8004c74:	f042 0220 	orrmi.w	r2, r2, #32
 8004c78:	6022      	strmi	r2, [r4, #0]
 8004c7a:	b91b      	cbnz	r3, 8004c84 <_printf_i+0x178>
 8004c7c:	6822      	ldr	r2, [r4, #0]
 8004c7e:	f022 0220 	bic.w	r2, r2, #32
 8004c82:	6022      	str	r2, [r4, #0]
 8004c84:	2210      	movs	r2, #16
 8004c86:	e7b1      	b.n	8004bec <_printf_i+0xe0>
 8004c88:	4675      	mov	r5, lr
 8004c8a:	fbb3 f0f2 	udiv	r0, r3, r2
 8004c8e:	fb02 3310 	mls	r3, r2, r0, r3
 8004c92:	5ccb      	ldrb	r3, [r1, r3]
 8004c94:	f805 3d01 	strb.w	r3, [r5, #-1]!
 8004c98:	4603      	mov	r3, r0
 8004c9a:	2800      	cmp	r0, #0
 8004c9c:	d1f5      	bne.n	8004c8a <_printf_i+0x17e>
 8004c9e:	e7b7      	b.n	8004c10 <_printf_i+0x104>
 8004ca0:	6808      	ldr	r0, [r1, #0]
 8004ca2:	681a      	ldr	r2, [r3, #0]
 8004ca4:	f010 0f80 	tst.w	r0, #128	; 0x80
 8004ca8:	6949      	ldr	r1, [r1, #20]
 8004caa:	d004      	beq.n	8004cb6 <_printf_i+0x1aa>
 8004cac:	1d10      	adds	r0, r2, #4
 8004cae:	6018      	str	r0, [r3, #0]
 8004cb0:	6813      	ldr	r3, [r2, #0]
 8004cb2:	6019      	str	r1, [r3, #0]
 8004cb4:	e007      	b.n	8004cc6 <_printf_i+0x1ba>
 8004cb6:	f010 0f40 	tst.w	r0, #64	; 0x40
 8004cba:	f102 0004 	add.w	r0, r2, #4
 8004cbe:	6018      	str	r0, [r3, #0]
 8004cc0:	6813      	ldr	r3, [r2, #0]
 8004cc2:	d0f6      	beq.n	8004cb2 <_printf_i+0x1a6>
 8004cc4:	8019      	strh	r1, [r3, #0]
 8004cc6:	2300      	movs	r3, #0
 8004cc8:	4675      	mov	r5, lr
 8004cca:	6123      	str	r3, [r4, #16]
 8004ccc:	e7b1      	b.n	8004c32 <_printf_i+0x126>
 8004cce:	681a      	ldr	r2, [r3, #0]
 8004cd0:	1d11      	adds	r1, r2, #4
 8004cd2:	6019      	str	r1, [r3, #0]
 8004cd4:	6815      	ldr	r5, [r2, #0]
 8004cd6:	2100      	movs	r1, #0
 8004cd8:	6862      	ldr	r2, [r4, #4]
 8004cda:	4628      	mov	r0, r5
 8004cdc:	f000 fb3e 	bl	800535c <memchr>
 8004ce0:	b108      	cbz	r0, 8004ce6 <_printf_i+0x1da>
 8004ce2:	1b40      	subs	r0, r0, r5
 8004ce4:	6060      	str	r0, [r4, #4]
 8004ce6:	6863      	ldr	r3, [r4, #4]
 8004ce8:	6123      	str	r3, [r4, #16]
 8004cea:	2300      	movs	r3, #0
 8004cec:	f884 3043 	strb.w	r3, [r4, #67]	; 0x43
 8004cf0:	e79f      	b.n	8004c32 <_printf_i+0x126>
 8004cf2:	6923      	ldr	r3, [r4, #16]
 8004cf4:	462a      	mov	r2, r5
 8004cf6:	4639      	mov	r1, r7
 8004cf8:	4630      	mov	r0, r6
 8004cfa:	47c0      	blx	r8
 8004cfc:	3001      	adds	r0, #1
 8004cfe:	d0a2      	beq.n	8004c46 <_printf_i+0x13a>
 8004d00:	6823      	ldr	r3, [r4, #0]
 8004d02:	079b      	lsls	r3, r3, #30
 8004d04:	d507      	bpl.n	8004d16 <_printf_i+0x20a>
 8004d06:	2500      	movs	r5, #0
 8004d08:	f104 0919 	add.w	r9, r4, #25
 8004d0c:	68e3      	ldr	r3, [r4, #12]
 8004d0e:	9a03      	ldr	r2, [sp, #12]
 8004d10:	1a9b      	subs	r3, r3, r2
 8004d12:	429d      	cmp	r5, r3
 8004d14:	db05      	blt.n	8004d22 <_printf_i+0x216>
 8004d16:	68e0      	ldr	r0, [r4, #12]
 8004d18:	9b03      	ldr	r3, [sp, #12]
 8004d1a:	4298      	cmp	r0, r3
 8004d1c:	bfb8      	it	lt
 8004d1e:	4618      	movlt	r0, r3
 8004d20:	e793      	b.n	8004c4a <_printf_i+0x13e>
 8004d22:	2301      	movs	r3, #1
 8004d24:	464a      	mov	r2, r9
 8004d26:	4639      	mov	r1, r7
 8004d28:	4630      	mov	r0, r6
 8004d2a:	47c0      	blx	r8
 8004d2c:	3001      	adds	r0, #1
 8004d2e:	d08a      	beq.n	8004c46 <_printf_i+0x13a>
 8004d30:	3501      	adds	r5, #1
 8004d32:	e7eb      	b.n	8004d0c <_printf_i+0x200>
 8004d34:	2b00      	cmp	r3, #0
 8004d36:	d1a7      	bne.n	8004c88 <_printf_i+0x17c>
 8004d38:	780b      	ldrb	r3, [r1, #0]
 8004d3a:	f104 0542 	add.w	r5, r4, #66	; 0x42
 8004d3e:	f884 3042 	strb.w	r3, [r4, #66]	; 0x42
 8004d42:	e765      	b.n	8004c10 <_printf_i+0x104>
 8004d44:	08005706 	.word	0x08005706
 8004d48:	080056f5 	.word	0x080056f5

08004d4c <_scanf_chars>:
 8004d4c:	e92d 41f0 	stmdb	sp!, {r4, r5, r6, r7, r8, lr}
 8004d50:	4615      	mov	r5, r2
 8004d52:	688a      	ldr	r2, [r1, #8]
 8004d54:	4680      	mov	r8, r0
 8004d56:	460c      	mov	r4, r1
 8004d58:	b932      	cbnz	r2, 8004d68 <_scanf_chars+0x1c>
 8004d5a:	698a      	ldr	r2, [r1, #24]
 8004d5c:	2a00      	cmp	r2, #0
 8004d5e:	bf0c      	ite	eq
 8004d60:	2201      	moveq	r2, #1
 8004d62:	f04f 32ff 	movne.w	r2, #4294967295
 8004d66:	608a      	str	r2, [r1, #8]
 8004d68:	2600      	movs	r6, #0
 8004d6a:	6822      	ldr	r2, [r4, #0]
 8004d6c:	06d1      	lsls	r1, r2, #27
 8004d6e:	bf5f      	itttt	pl
 8004d70:	681a      	ldrpl	r2, [r3, #0]
 8004d72:	1d11      	addpl	r1, r2, #4
 8004d74:	6019      	strpl	r1, [r3, #0]
 8004d76:	6817      	ldrpl	r7, [r2, #0]
 8004d78:	69a3      	ldr	r3, [r4, #24]
 8004d7a:	b1db      	cbz	r3, 8004db4 <_scanf_chars+0x68>
 8004d7c:	2b01      	cmp	r3, #1
 8004d7e:	d107      	bne.n	8004d90 <_scanf_chars+0x44>
 8004d80:	682b      	ldr	r3, [r5, #0]
 8004d82:	6962      	ldr	r2, [r4, #20]
 8004d84:	781b      	ldrb	r3, [r3, #0]
 8004d86:	5cd3      	ldrb	r3, [r2, r3]
 8004d88:	b9a3      	cbnz	r3, 8004db4 <_scanf_chars+0x68>
 8004d8a:	2e00      	cmp	r6, #0
 8004d8c:	d131      	bne.n	8004df2 <_scanf_chars+0xa6>
 8004d8e:	e006      	b.n	8004d9e <_scanf_chars+0x52>
 8004d90:	2b02      	cmp	r3, #2
 8004d92:	d007      	beq.n	8004da4 <_scanf_chars+0x58>
 8004d94:	2e00      	cmp	r6, #0
 8004d96:	d12c      	bne.n	8004df2 <_scanf_chars+0xa6>
 8004d98:	69a3      	ldr	r3, [r4, #24]
 8004d9a:	2b01      	cmp	r3, #1
 8004d9c:	d129      	bne.n	8004df2 <_scanf_chars+0xa6>
 8004d9e:	2001      	movs	r0, #1
 8004da0:	e8bd 81f0 	ldmia.w	sp!, {r4, r5, r6, r7, r8, pc}
 8004da4:	f000 faba 	bl	800531c <__locale_ctype_ptr>
 8004da8:	682b      	ldr	r3, [r5, #0]
 8004daa:	781b      	ldrb	r3, [r3, #0]
 8004dac:	4418      	add	r0, r3
 8004dae:	7843      	ldrb	r3, [r0, #1]
 8004db0:	071b      	lsls	r3, r3, #28
 8004db2:	d4ef      	bmi.n	8004d94 <_scanf_chars+0x48>
 8004db4:	6823      	ldr	r3, [r4, #0]
 8004db6:	3601      	adds	r6, #1
 8004db8:	06da      	lsls	r2, r3, #27
 8004dba:	bf5e      	ittt	pl
 8004dbc:	682b      	ldrpl	r3, [r5, #0]
 8004dbe:	781b      	ldrbpl	r3, [r3, #0]
 8004dc0:	703b      	strbpl	r3, [r7, #0]
 8004dc2:	682a      	ldr	r2, [r5, #0]
 8004dc4:	686b      	ldr	r3, [r5, #4]
 8004dc6:	f102 0201 	add.w	r2, r2, #1
 8004dca:	602a      	str	r2, [r5, #0]
 8004dcc:	68a2      	ldr	r2, [r4, #8]
 8004dce:	f103 33ff 	add.w	r3, r3, #4294967295
 8004dd2:	f102 32ff 	add.w	r2, r2, #4294967295
 8004dd6:	606b      	str	r3, [r5, #4]
 8004dd8:	bf58      	it	pl
 8004dda:	3701      	addpl	r7, #1
 8004ddc:	60a2      	str	r2, [r4, #8]
 8004dde:	b142      	cbz	r2, 8004df2 <_scanf_chars+0xa6>
 8004de0:	2b00      	cmp	r3, #0
 8004de2:	dcc9      	bgt.n	8004d78 <_scanf_chars+0x2c>
 8004de4:	f8d4 3180 	ldr.w	r3, [r4, #384]	; 0x180
 8004de8:	4629      	mov	r1, r5
 8004dea:	4640      	mov	r0, r8
 8004dec:	4798      	blx	r3
 8004dee:	2800      	cmp	r0, #0
 8004df0:	d0c2      	beq.n	8004d78 <_scanf_chars+0x2c>
 8004df2:	6823      	ldr	r3, [r4, #0]
 8004df4:	f013 0310 	ands.w	r3, r3, #16
 8004df8:	d105      	bne.n	8004e06 <_scanf_chars+0xba>
 8004dfa:	68e2      	ldr	r2, [r4, #12]
 8004dfc:	3201      	adds	r2, #1
 8004dfe:	60e2      	str	r2, [r4, #12]
 8004e00:	69a2      	ldr	r2, [r4, #24]
 8004e02:	b102      	cbz	r2, 8004e06 <_scanf_chars+0xba>
 8004e04:	703b      	strb	r3, [r7, #0]
 8004e06:	6923      	ldr	r3, [r4, #16]
 8004e08:	2000      	movs	r0, #0
 8004e0a:	441e      	add	r6, r3
 8004e0c:	6126      	str	r6, [r4, #16]
 8004e0e:	e8bd 81f0 	ldmia.w	sp!, {r4, r5, r6, r7, r8, pc}
	...

08004e14 <_scanf_i>:
 8004e14:	e92d 4ff0 	stmdb	sp!, {r4, r5, r6, r7, r8, r9, sl, fp, lr}
 8004e18:	460c      	mov	r4, r1
 8004e1a:	469a      	mov	sl, r3
 8004e1c:	4b74      	ldr	r3, [pc, #464]	; (8004ff0 <_scanf_i+0x1dc>)
 8004e1e:	b087      	sub	sp, #28
 8004e20:	4683      	mov	fp, r0
 8004e22:	4616      	mov	r6, r2
 8004e24:	e893 0007 	ldmia.w	r3, {r0, r1, r2}
 8004e28:	ab03      	add	r3, sp, #12
 8004e2a:	68a7      	ldr	r7, [r4, #8]
 8004e2c:	e883 0007 	stmia.w	r3, {r0, r1, r2}
 8004e30:	4b70      	ldr	r3, [pc, #448]	; (8004ff4 <_scanf_i+0x1e0>)
 8004e32:	69a1      	ldr	r1, [r4, #24]
 8004e34:	4a70      	ldr	r2, [pc, #448]	; (8004ff8 <_scanf_i+0x1e4>)
 8004e36:	f104 091c 	add.w	r9, r4, #28
 8004e3a:	2903      	cmp	r1, #3
 8004e3c:	bf18      	it	ne
 8004e3e:	461a      	movne	r2, r3
 8004e40:	1e7b      	subs	r3, r7, #1
 8004e42:	f5b3 7fae 	cmp.w	r3, #348	; 0x15c
 8004e46:	bf84      	itt	hi
 8004e48:	f240 135d 	movwhi	r3, #349	; 0x15d
 8004e4c:	60a3      	strhi	r3, [r4, #8]
 8004e4e:	6823      	ldr	r3, [r4, #0]
 8004e50:	bf88      	it	hi
 8004e52:	f46f 75ae 	mvnhi.w	r5, #348	; 0x15c
 8004e56:	f443 6350 	orr.w	r3, r3, #3328	; 0xd00
 8004e5a:	6023      	str	r3, [r4, #0]
 8004e5c:	bf98      	it	ls
 8004e5e:	2700      	movls	r7, #0
 8004e60:	464b      	mov	r3, r9
 8004e62:	f04f 0800 	mov.w	r8, #0
 8004e66:	9200      	str	r2, [sp, #0]
 8004e68:	bf88      	it	hi
 8004e6a:	197f      	addhi	r7, r7, r5
 8004e6c:	6831      	ldr	r1, [r6, #0]
 8004e6e:	9301      	str	r3, [sp, #4]
 8004e70:	ab03      	add	r3, sp, #12
 8004e72:	f853 0028 	ldr.w	r0, [r3, r8, lsl #2]
 8004e76:	2202      	movs	r2, #2
 8004e78:	7809      	ldrb	r1, [r1, #0]
 8004e7a:	f000 fa6f 	bl	800535c <memchr>
 8004e7e:	9b01      	ldr	r3, [sp, #4]
 8004e80:	b328      	cbz	r0, 8004ece <_scanf_i+0xba>
 8004e82:	f1b8 0f01 	cmp.w	r8, #1
 8004e86:	d156      	bne.n	8004f36 <_scanf_i+0x122>
 8004e88:	6862      	ldr	r2, [r4, #4]
 8004e8a:	b92a      	cbnz	r2, 8004e98 <_scanf_i+0x84>
 8004e8c:	2208      	movs	r2, #8
 8004e8e:	6062      	str	r2, [r4, #4]
 8004e90:	6822      	ldr	r2, [r4, #0]
 8004e92:	f442 7200 	orr.w	r2, r2, #512	; 0x200
 8004e96:	6022      	str	r2, [r4, #0]
 8004e98:	6822      	ldr	r2, [r4, #0]
 8004e9a:	f422 62a0 	bic.w	r2, r2, #1280	; 0x500
 8004e9e:	6022      	str	r2, [r4, #0]
 8004ea0:	68a2      	ldr	r2, [r4, #8]
 8004ea2:	1e51      	subs	r1, r2, #1
 8004ea4:	60a1      	str	r1, [r4, #8]
 8004ea6:	b192      	cbz	r2, 8004ece <_scanf_i+0xba>
 8004ea8:	6832      	ldr	r2, [r6, #0]
 8004eaa:	1c5d      	adds	r5, r3, #1
 8004eac:	1c51      	adds	r1, r2, #1
 8004eae:	6031      	str	r1, [r6, #0]
 8004eb0:	7812      	ldrb	r2, [r2, #0]
 8004eb2:	701a      	strb	r2, [r3, #0]
 8004eb4:	6873      	ldr	r3, [r6, #4]
 8004eb6:	3b01      	subs	r3, #1
 8004eb8:	2b00      	cmp	r3, #0
 8004eba:	6073      	str	r3, [r6, #4]
 8004ebc:	dc06      	bgt.n	8004ecc <_scanf_i+0xb8>
 8004ebe:	f8d4 3180 	ldr.w	r3, [r4, #384]	; 0x180
 8004ec2:	4631      	mov	r1, r6
 8004ec4:	4658      	mov	r0, fp
 8004ec6:	4798      	blx	r3
 8004ec8:	2800      	cmp	r0, #0
 8004eca:	d177      	bne.n	8004fbc <_scanf_i+0x1a8>
 8004ecc:	462b      	mov	r3, r5
 8004ece:	f108 0801 	add.w	r8, r8, #1
 8004ed2:	f1b8 0f03 	cmp.w	r8, #3
 8004ed6:	d1c9      	bne.n	8004e6c <_scanf_i+0x58>
 8004ed8:	6862      	ldr	r2, [r4, #4]
 8004eda:	b90a      	cbnz	r2, 8004ee0 <_scanf_i+0xcc>
 8004edc:	220a      	movs	r2, #10
 8004ede:	6062      	str	r2, [r4, #4]
 8004ee0:	6862      	ldr	r2, [r4, #4]
 8004ee2:	4946      	ldr	r1, [pc, #280]	; (8004ffc <_scanf_i+0x1e8>)
 8004ee4:	6960      	ldr	r0, [r4, #20]
 8004ee6:	1a89      	subs	r1, r1, r2
 8004ee8:	9301      	str	r3, [sp, #4]
 8004eea:	f000 f889 	bl	8005000 <__sccl>
 8004eee:	9b01      	ldr	r3, [sp, #4]
 8004ef0:	f04f 0800 	mov.w	r8, #0
 8004ef4:	461d      	mov	r5, r3
 8004ef6:	68a3      	ldr	r3, [r4, #8]
 8004ef8:	2b00      	cmp	r3, #0
 8004efa:	d039      	beq.n	8004f70 <_scanf_i+0x15c>
 8004efc:	6831      	ldr	r1, [r6, #0]
 8004efe:	6960      	ldr	r0, [r4, #20]
 8004f00:	780a      	ldrb	r2, [r1, #0]
 8004f02:	5c80      	ldrb	r0, [r0, r2]
 8004f04:	2800      	cmp	r0, #0
 8004f06:	d033      	beq.n	8004f70 <_scanf_i+0x15c>
 8004f08:	2a30      	cmp	r2, #48	; 0x30
 8004f0a:	6822      	ldr	r2, [r4, #0]
 8004f0c:	d121      	bne.n	8004f52 <_scanf_i+0x13e>
 8004f0e:	0510      	lsls	r0, r2, #20
 8004f10:	d51f      	bpl.n	8004f52 <_scanf_i+0x13e>
 8004f12:	f108 0801 	add.w	r8, r8, #1
 8004f16:	b117      	cbz	r7, 8004f1e <_scanf_i+0x10a>
 8004f18:	3301      	adds	r3, #1
 8004f1a:	3f01      	subs	r7, #1
 8004f1c:	60a3      	str	r3, [r4, #8]
 8004f1e:	6873      	ldr	r3, [r6, #4]
 8004f20:	3b01      	subs	r3, #1
 8004f22:	2b00      	cmp	r3, #0
 8004f24:	6073      	str	r3, [r6, #4]
 8004f26:	dd1c      	ble.n	8004f62 <_scanf_i+0x14e>
 8004f28:	6833      	ldr	r3, [r6, #0]
 8004f2a:	3301      	adds	r3, #1
 8004f2c:	6033      	str	r3, [r6, #0]
 8004f2e:	68a3      	ldr	r3, [r4, #8]
 8004f30:	3b01      	subs	r3, #1
 8004f32:	60a3      	str	r3, [r4, #8]
 8004f34:	e7df      	b.n	8004ef6 <_scanf_i+0xe2>
 8004f36:	f1b8 0f02 	cmp.w	r8, #2
 8004f3a:	d1b1      	bne.n	8004ea0 <_scanf_i+0x8c>
 8004f3c:	6822      	ldr	r2, [r4, #0]
 8004f3e:	f402 61c0 	and.w	r1, r2, #1536	; 0x600
 8004f42:	f5b1 7f00 	cmp.w	r1, #512	; 0x200
 8004f46:	d1c2      	bne.n	8004ece <_scanf_i+0xba>
 8004f48:	2110      	movs	r1, #16
 8004f4a:	f442 7280 	orr.w	r2, r2, #256	; 0x100
 8004f4e:	6061      	str	r1, [r4, #4]
 8004f50:	e7a5      	b.n	8004e9e <_scanf_i+0x8a>
 8004f52:	f422 6210 	bic.w	r2, r2, #2304	; 0x900
 8004f56:	6022      	str	r2, [r4, #0]
 8004f58:	780b      	ldrb	r3, [r1, #0]
 8004f5a:	3501      	adds	r5, #1
 8004f5c:	f805 3c01 	strb.w	r3, [r5, #-1]
 8004f60:	e7dd      	b.n	8004f1e <_scanf_i+0x10a>
 8004f62:	f8d4 3180 	ldr.w	r3, [r4, #384]	; 0x180
 8004f66:	4631      	mov	r1, r6
 8004f68:	4658      	mov	r0, fp
 8004f6a:	4798      	blx	r3
 8004f6c:	2800      	cmp	r0, #0
 8004f6e:	d0de      	beq.n	8004f2e <_scanf_i+0x11a>
 8004f70:	6823      	ldr	r3, [r4, #0]
 8004f72:	05d9      	lsls	r1, r3, #23
 8004f74:	d50c      	bpl.n	8004f90 <_scanf_i+0x17c>
 8004f76:	454d      	cmp	r5, r9
 8004f78:	d908      	bls.n	8004f8c <_scanf_i+0x178>
 8004f7a:	f815 1c01 	ldrb.w	r1, [r5, #-1]
 8004f7e:	1e6f      	subs	r7, r5, #1
 8004f80:	f8d4 317c 	ldr.w	r3, [r4, #380]	; 0x17c
 8004f84:	4632      	mov	r2, r6
 8004f86:	4658      	mov	r0, fp
 8004f88:	4798      	blx	r3
 8004f8a:	463d      	mov	r5, r7
 8004f8c:	454d      	cmp	r5, r9
 8004f8e:	d02c      	beq.n	8004fea <_scanf_i+0x1d6>
 8004f90:	6822      	ldr	r2, [r4, #0]
 8004f92:	f012 0210 	ands.w	r2, r2, #16
 8004f96:	d11e      	bne.n	8004fd6 <_scanf_i+0x1c2>
 8004f98:	702a      	strb	r2, [r5, #0]
 8004f9a:	6863      	ldr	r3, [r4, #4]
 8004f9c:	4649      	mov	r1, r9
 8004f9e:	4658      	mov	r0, fp
 8004fa0:	9e00      	ldr	r6, [sp, #0]
 8004fa2:	47b0      	blx	r6
 8004fa4:	6822      	ldr	r2, [r4, #0]
 8004fa6:	f8da 3000 	ldr.w	r3, [sl]
 8004faa:	f012 0f20 	tst.w	r2, #32
 8004fae:	d008      	beq.n	8004fc2 <_scanf_i+0x1ae>
 8004fb0:	1d1a      	adds	r2, r3, #4
 8004fb2:	f8ca 2000 	str.w	r2, [sl]
 8004fb6:	681b      	ldr	r3, [r3, #0]
 8004fb8:	6018      	str	r0, [r3, #0]
 8004fba:	e009      	b.n	8004fd0 <_scanf_i+0x1bc>
 8004fbc:	f04f 0800 	mov.w	r8, #0
 8004fc0:	e7d6      	b.n	8004f70 <_scanf_i+0x15c>
 8004fc2:	07d2      	lsls	r2, r2, #31
 8004fc4:	d5f4      	bpl.n	8004fb0 <_scanf_i+0x19c>
 8004fc6:	1d1a      	adds	r2, r3, #4
 8004fc8:	f8ca 2000 	str.w	r2, [sl]
 8004fcc:	681b      	ldr	r3, [r3, #0]
 8004fce:	8018      	strh	r0, [r3, #0]
 8004fd0:	68e3      	ldr	r3, [r4, #12]
 8004fd2:	3301      	adds	r3, #1
 8004fd4:	60e3      	str	r3, [r4, #12]
 8004fd6:	2000      	movs	r0, #0
 8004fd8:	eba5 0509 	sub.w	r5, r5, r9
 8004fdc:	44a8      	add	r8, r5
 8004fde:	6925      	ldr	r5, [r4, #16]
 8004fe0:	4445      	add	r5, r8
 8004fe2:	6125      	str	r5, [r4, #16]
 8004fe4:	b007      	add	sp, #28
 8004fe6:	e8bd 8ff0 	ldmia.w	sp!, {r4, r5, r6, r7, r8, r9, sl, fp, pc}
 8004fea:	2001      	movs	r0, #1
 8004fec:	e7fa      	b.n	8004fe4 <_scanf_i+0x1d0>
 8004fee:	bf00      	nop
 8004ff0:	080055fc 	.word	0x080055fc
 8004ff4:	08005281 	.word	0x08005281
 8004ff8:	08005161 	.word	0x08005161
 8004ffc:	08005727 	.word	0x08005727

08005000 <__sccl>:
 8005000:	b570      	push	{r4, r5, r6, lr}
 8005002:	780b      	ldrb	r3, [r1, #0]
 8005004:	1e44      	subs	r4, r0, #1
 8005006:	2b5e      	cmp	r3, #94	; 0x5e
 8005008:	bf13      	iteet	ne
 800500a:	1c4a      	addne	r2, r1, #1
 800500c:	1c8a      	addeq	r2, r1, #2
 800500e:	784b      	ldrbeq	r3, [r1, #1]
 8005010:	2100      	movne	r1, #0
 8005012:	bf08      	it	eq
 8005014:	2101      	moveq	r1, #1
 8005016:	f100 05ff 	add.w	r5, r0, #255	; 0xff
 800501a:	f804 1f01 	strb.w	r1, [r4, #1]!
 800501e:	42a5      	cmp	r5, r4
 8005020:	d1fb      	bne.n	800501a <__sccl+0x1a>
 8005022:	b913      	cbnz	r3, 800502a <__sccl+0x2a>
 8005024:	3a01      	subs	r2, #1
 8005026:	4610      	mov	r0, r2
 8005028:	bd70      	pop	{r4, r5, r6, pc}
 800502a:	f081 0401 	eor.w	r4, r1, #1
 800502e:	4611      	mov	r1, r2
 8005030:	54c4      	strb	r4, [r0, r3]
 8005032:	780d      	ldrb	r5, [r1, #0]
 8005034:	1c4a      	adds	r2, r1, #1
 8005036:	2d2d      	cmp	r5, #45	; 0x2d
 8005038:	d006      	beq.n	8005048 <__sccl+0x48>
 800503a:	2d5d      	cmp	r5, #93	; 0x5d
 800503c:	d0f3      	beq.n	8005026 <__sccl+0x26>
 800503e:	b90d      	cbnz	r5, 8005044 <__sccl+0x44>
 8005040:	460a      	mov	r2, r1
 8005042:	e7f0      	b.n	8005026 <__sccl+0x26>
 8005044:	462b      	mov	r3, r5
 8005046:	e7f2      	b.n	800502e <__sccl+0x2e>
 8005048:	784e      	ldrb	r6, [r1, #1]
 800504a:	2e5d      	cmp	r6, #93	; 0x5d
 800504c:	d0fa      	beq.n	8005044 <__sccl+0x44>
 800504e:	42b3      	cmp	r3, r6
 8005050:	dcf8      	bgt.n	8005044 <__sccl+0x44>
 8005052:	3102      	adds	r1, #2
 8005054:	3301      	adds	r3, #1
 8005056:	429e      	cmp	r6, r3
 8005058:	54c4      	strb	r4, [r0, r3]
 800505a:	dcfb      	bgt.n	8005054 <__sccl+0x54>
 800505c:	e7e9      	b.n	8005032 <__sccl+0x32>

0800505e <_strtol_l.isra.0>:
 800505e:	e92d 4ff8 	stmdb	sp!, {r3, r4, r5, r6, r7, r8, r9, sl, fp, lr}
 8005062:	4680      	mov	r8, r0
 8005064:	4689      	mov	r9, r1
 8005066:	4692      	mov	sl, r2
 8005068:	461f      	mov	r7, r3
 800506a:	468b      	mov	fp, r1
 800506c:	465d      	mov	r5, fp
 800506e:	980a      	ldr	r0, [sp, #40]	; 0x28
 8005070:	f815 4b01 	ldrb.w	r4, [r5], #1
 8005074:	f000 f94f 	bl	8005316 <__locale_ctype_ptr_l>
 8005078:	4420      	add	r0, r4
 800507a:	7846      	ldrb	r6, [r0, #1]
 800507c:	f016 0608 	ands.w	r6, r6, #8
 8005080:	d10b      	bne.n	800509a <_strtol_l.isra.0+0x3c>
 8005082:	2c2d      	cmp	r4, #45	; 0x2d
 8005084:	d10b      	bne.n	800509e <_strtol_l.isra.0+0x40>
 8005086:	2601      	movs	r6, #1
 8005088:	782c      	ldrb	r4, [r5, #0]
 800508a:	f10b 0502 	add.w	r5, fp, #2
 800508e:	b167      	cbz	r7, 80050aa <_strtol_l.isra.0+0x4c>
 8005090:	2f10      	cmp	r7, #16
 8005092:	d114      	bne.n	80050be <_strtol_l.isra.0+0x60>
 8005094:	2c30      	cmp	r4, #48	; 0x30
 8005096:	d00a      	beq.n	80050ae <_strtol_l.isra.0+0x50>
 8005098:	e011      	b.n	80050be <_strtol_l.isra.0+0x60>
 800509a:	46ab      	mov	fp, r5
 800509c:	e7e6      	b.n	800506c <_strtol_l.isra.0+0xe>
 800509e:	2c2b      	cmp	r4, #43	; 0x2b
 80050a0:	bf04      	itt	eq
 80050a2:	782c      	ldrbeq	r4, [r5, #0]
 80050a4:	f10b 0502 	addeq.w	r5, fp, #2
 80050a8:	e7f1      	b.n	800508e <_strtol_l.isra.0+0x30>
 80050aa:	2c30      	cmp	r4, #48	; 0x30
 80050ac:	d127      	bne.n	80050fe <_strtol_l.isra.0+0xa0>
 80050ae:	782b      	ldrb	r3, [r5, #0]
 80050b0:	f003 03df 	and.w	r3, r3, #223	; 0xdf
 80050b4:	2b58      	cmp	r3, #88	; 0x58
 80050b6:	d14b      	bne.n	8005150 <_strtol_l.isra.0+0xf2>
 80050b8:	2710      	movs	r7, #16
 80050ba:	786c      	ldrb	r4, [r5, #1]
 80050bc:	3502      	adds	r5, #2
 80050be:	2e00      	cmp	r6, #0
 80050c0:	bf0c      	ite	eq
 80050c2:	f06f 4100 	mvneq.w	r1, #2147483648	; 0x80000000
 80050c6:	f04f 4100 	movne.w	r1, #2147483648	; 0x80000000
 80050ca:	2200      	movs	r2, #0
 80050cc:	fbb1 fef7 	udiv	lr, r1, r7
 80050d0:	4610      	mov	r0, r2
 80050d2:	fb07 1c1e 	mls	ip, r7, lr, r1
 80050d6:	f1a4 0330 	sub.w	r3, r4, #48	; 0x30
 80050da:	2b09      	cmp	r3, #9
 80050dc:	d811      	bhi.n	8005102 <_strtol_l.isra.0+0xa4>
 80050de:	461c      	mov	r4, r3
 80050e0:	42a7      	cmp	r7, r4
 80050e2:	dd1d      	ble.n	8005120 <_strtol_l.isra.0+0xc2>
 80050e4:	1c53      	adds	r3, r2, #1
 80050e6:	d007      	beq.n	80050f8 <_strtol_l.isra.0+0x9a>
 80050e8:	4586      	cmp	lr, r0
 80050ea:	d316      	bcc.n	800511a <_strtol_l.isra.0+0xbc>
 80050ec:	d101      	bne.n	80050f2 <_strtol_l.isra.0+0x94>
 80050ee:	45a4      	cmp	ip, r4
 80050f0:	db13      	blt.n	800511a <_strtol_l.isra.0+0xbc>
 80050f2:	2201      	movs	r2, #1
 80050f4:	fb00 4007 	mla	r0, r0, r7, r4
 80050f8:	f815 4b01 	ldrb.w	r4, [r5], #1
 80050fc:	e7eb      	b.n	80050d6 <_strtol_l.isra.0+0x78>
 80050fe:	270a      	movs	r7, #10
 8005100:	e7dd      	b.n	80050be <_strtol_l.isra.0+0x60>
 8005102:	f1a4 0341 	sub.w	r3, r4, #65	; 0x41
 8005106:	2b19      	cmp	r3, #25
 8005108:	d801      	bhi.n	800510e <_strtol_l.isra.0+0xb0>
 800510a:	3c37      	subs	r4, #55	; 0x37
 800510c:	e7e8      	b.n	80050e0 <_strtol_l.isra.0+0x82>
 800510e:	f1a4 0361 	sub.w	r3, r4, #97	; 0x61
 8005112:	2b19      	cmp	r3, #25
 8005114:	d804      	bhi.n	8005120 <_strtol_l.isra.0+0xc2>
 8005116:	3c57      	subs	r4, #87	; 0x57
 8005118:	e7e2      	b.n	80050e0 <_strtol_l.isra.0+0x82>
 800511a:	f04f 32ff 	mov.w	r2, #4294967295
 800511e:	e7eb      	b.n	80050f8 <_strtol_l.isra.0+0x9a>
 8005120:	1c53      	adds	r3, r2, #1
 8005122:	d108      	bne.n	8005136 <_strtol_l.isra.0+0xd8>
 8005124:	2322      	movs	r3, #34	; 0x22
 8005126:	4608      	mov	r0, r1
 8005128:	f8c8 3000 	str.w	r3, [r8]
 800512c:	f1ba 0f00 	cmp.w	sl, #0
 8005130:	d107      	bne.n	8005142 <_strtol_l.isra.0+0xe4>
 8005132:	e8bd 8ff8 	ldmia.w	sp!, {r3, r4, r5, r6, r7, r8, r9, sl, fp, pc}
 8005136:	b106      	cbz	r6, 800513a <_strtol_l.isra.0+0xdc>
 8005138:	4240      	negs	r0, r0
 800513a:	f1ba 0f00 	cmp.w	sl, #0
 800513e:	d00c      	beq.n	800515a <_strtol_l.isra.0+0xfc>
 8005140:	b122      	cbz	r2, 800514c <_strtol_l.isra.0+0xee>
 8005142:	3d01      	subs	r5, #1
 8005144:	f8ca 5000 	str.w	r5, [sl]
 8005148:	e8bd 8ff8 	ldmia.w	sp!, {r3, r4, r5, r6, r7, r8, r9, sl, fp, pc}
 800514c:	464d      	mov	r5, r9
 800514e:	e7f9      	b.n	8005144 <_strtol_l.isra.0+0xe6>
 8005150:	2430      	movs	r4, #48	; 0x30
 8005152:	2f00      	cmp	r7, #0
 8005154:	d1b3      	bne.n	80050be <_strtol_l.isra.0+0x60>
 8005156:	2708      	movs	r7, #8
 8005158:	e7b1      	b.n	80050be <_strtol_l.isra.0+0x60>
 800515a:	e8bd 8ff8 	ldmia.w	sp!, {r3, r4, r5, r6, r7, r8, r9, sl, fp, pc}
	...

08005160 <_strtol_r>:
 8005160:	b537      	push	{r0, r1, r2, r4, r5, lr}
 8005162:	4c06      	ldr	r4, [pc, #24]	; (800517c <_strtol_r+0x1c>)
 8005164:	4d06      	ldr	r5, [pc, #24]	; (8005180 <_strtol_r+0x20>)
 8005166:	6824      	ldr	r4, [r4, #0]
 8005168:	6a24      	ldr	r4, [r4, #32]
 800516a:	2c00      	cmp	r4, #0
 800516c:	bf08      	it	eq
 800516e:	462c      	moveq	r4, r5
 8005170:	9400      	str	r4, [sp, #0]
 8005172:	f7ff ff74 	bl	800505e <_strtol_l.isra.0>
 8005176:	b003      	add	sp, #12
 8005178:	bd30      	pop	{r4, r5, pc}
 800517a:	bf00      	nop
 800517c:	20000010 	.word	0x20000010
 8005180:	20000074 	.word	0x20000074

08005184 <_strtoul_l.isra.0>:
 8005184:	e92d 47f0 	stmdb	sp!, {r4, r5, r6, r7, r8, r9, sl, lr}
 8005188:	4680      	mov	r8, r0
 800518a:	4689      	mov	r9, r1
 800518c:	4692      	mov	sl, r2
 800518e:	461e      	mov	r6, r3
 8005190:	460f      	mov	r7, r1
 8005192:	463d      	mov	r5, r7
 8005194:	9808      	ldr	r0, [sp, #32]
 8005196:	f815 4b01 	ldrb.w	r4, [r5], #1
 800519a:	f000 f8bc 	bl	8005316 <__locale_ctype_ptr_l>
 800519e:	4420      	add	r0, r4
 80051a0:	7843      	ldrb	r3, [r0, #1]
 80051a2:	f013 0308 	ands.w	r3, r3, #8
 80051a6:	d10a      	bne.n	80051be <_strtoul_l.isra.0+0x3a>
 80051a8:	2c2d      	cmp	r4, #45	; 0x2d
 80051aa:	d10a      	bne.n	80051c2 <_strtoul_l.isra.0+0x3e>
 80051ac:	2301      	movs	r3, #1
 80051ae:	782c      	ldrb	r4, [r5, #0]
 80051b0:	1cbd      	adds	r5, r7, #2
 80051b2:	b15e      	cbz	r6, 80051cc <_strtoul_l.isra.0+0x48>
 80051b4:	2e10      	cmp	r6, #16
 80051b6:	d113      	bne.n	80051e0 <_strtoul_l.isra.0+0x5c>
 80051b8:	2c30      	cmp	r4, #48	; 0x30
 80051ba:	d009      	beq.n	80051d0 <_strtoul_l.isra.0+0x4c>
 80051bc:	e010      	b.n	80051e0 <_strtoul_l.isra.0+0x5c>
 80051be:	462f      	mov	r7, r5
 80051c0:	e7e7      	b.n	8005192 <_strtoul_l.isra.0+0xe>
 80051c2:	2c2b      	cmp	r4, #43	; 0x2b
 80051c4:	bf04      	itt	eq
 80051c6:	782c      	ldrbeq	r4, [r5, #0]
 80051c8:	1cbd      	addeq	r5, r7, #2
 80051ca:	e7f2      	b.n	80051b2 <_strtoul_l.isra.0+0x2e>
 80051cc:	2c30      	cmp	r4, #48	; 0x30
 80051ce:	d125      	bne.n	800521c <_strtoul_l.isra.0+0x98>
 80051d0:	782a      	ldrb	r2, [r5, #0]
 80051d2:	f002 02df 	and.w	r2, r2, #223	; 0xdf
 80051d6:	2a58      	cmp	r2, #88	; 0x58
 80051d8:	d14a      	bne.n	8005270 <_strtoul_l.isra.0+0xec>
 80051da:	2610      	movs	r6, #16
 80051dc:	786c      	ldrb	r4, [r5, #1]
 80051de:	3502      	adds	r5, #2
 80051e0:	f04f 31ff 	mov.w	r1, #4294967295
 80051e4:	fbb1 f1f6 	udiv	r1, r1, r6
 80051e8:	2700      	movs	r7, #0
 80051ea:	fb06 fe01 	mul.w	lr, r6, r1
 80051ee:	4638      	mov	r0, r7
 80051f0:	ea6f 0e0e 	mvn.w	lr, lr
 80051f4:	f1a4 0230 	sub.w	r2, r4, #48	; 0x30
 80051f8:	2a09      	cmp	r2, #9
 80051fa:	d811      	bhi.n	8005220 <_strtoul_l.isra.0+0x9c>
 80051fc:	4614      	mov	r4, r2
 80051fe:	42a6      	cmp	r6, r4
 8005200:	dd1d      	ble.n	800523e <_strtoul_l.isra.0+0xba>
 8005202:	2f00      	cmp	r7, #0
 8005204:	db18      	blt.n	8005238 <_strtoul_l.isra.0+0xb4>
 8005206:	4281      	cmp	r1, r0
 8005208:	d316      	bcc.n	8005238 <_strtoul_l.isra.0+0xb4>
 800520a:	d101      	bne.n	8005210 <_strtoul_l.isra.0+0x8c>
 800520c:	45a6      	cmp	lr, r4
 800520e:	db13      	blt.n	8005238 <_strtoul_l.isra.0+0xb4>
 8005210:	2701      	movs	r7, #1
 8005212:	fb00 4006 	mla	r0, r0, r6, r4
 8005216:	f815 4b01 	ldrb.w	r4, [r5], #1
 800521a:	e7eb      	b.n	80051f4 <_strtoul_l.isra.0+0x70>
 800521c:	260a      	movs	r6, #10
 800521e:	e7df      	b.n	80051e0 <_strtoul_l.isra.0+0x5c>
 8005220:	f1a4 0241 	sub.w	r2, r4, #65	; 0x41
 8005224:	2a19      	cmp	r2, #25
 8005226:	d801      	bhi.n	800522c <_strtoul_l.isra.0+0xa8>
 8005228:	3c37      	subs	r4, #55	; 0x37
 800522a:	e7e8      	b.n	80051fe <_strtoul_l.isra.0+0x7a>
 800522c:	f1a4 0261 	sub.w	r2, r4, #97	; 0x61
 8005230:	2a19      	cmp	r2, #25
 8005232:	d804      	bhi.n	800523e <_strtoul_l.isra.0+0xba>
 8005234:	3c57      	subs	r4, #87	; 0x57
 8005236:	e7e2      	b.n	80051fe <_strtoul_l.isra.0+0x7a>
 8005238:	f04f 37ff 	mov.w	r7, #4294967295
 800523c:	e7eb      	b.n	8005216 <_strtoul_l.isra.0+0x92>
 800523e:	2f00      	cmp	r7, #0
 8005240:	da09      	bge.n	8005256 <_strtoul_l.isra.0+0xd2>
 8005242:	2322      	movs	r3, #34	; 0x22
 8005244:	f04f 30ff 	mov.w	r0, #4294967295
 8005248:	f8c8 3000 	str.w	r3, [r8]
 800524c:	f1ba 0f00 	cmp.w	sl, #0
 8005250:	d107      	bne.n	8005262 <_strtoul_l.isra.0+0xde>
 8005252:	e8bd 87f0 	ldmia.w	sp!, {r4, r5, r6, r7, r8, r9, sl, pc}
 8005256:	b103      	cbz	r3, 800525a <_strtoul_l.isra.0+0xd6>
 8005258:	4240      	negs	r0, r0
 800525a:	f1ba 0f00 	cmp.w	sl, #0
 800525e:	d00c      	beq.n	800527a <_strtoul_l.isra.0+0xf6>
 8005260:	b127      	cbz	r7, 800526c <_strtoul_l.isra.0+0xe8>
 8005262:	3d01      	subs	r5, #1
 8005264:	f8ca 5000 	str.w	r5, [sl]
 8005268:	e8bd 87f0 	ldmia.w	sp!, {r4, r5, r6, r7, r8, r9, sl, pc}
 800526c:	464d      	mov	r5, r9
 800526e:	e7f9      	b.n	8005264 <_strtoul_l.isra.0+0xe0>
 8005270:	2430      	movs	r4, #48	; 0x30
 8005272:	2e00      	cmp	r6, #0
 8005274:	d1b4      	bne.n	80051e0 <_strtoul_l.isra.0+0x5c>
 8005276:	2608      	movs	r6, #8
 8005278:	e7b2      	b.n	80051e0 <_strtoul_l.isra.0+0x5c>
 800527a:	e8bd 87f0 	ldmia.w	sp!, {r4, r5, r6, r7, r8, r9, sl, pc}
	...

08005280 <_strtoul_r>:
 8005280:	b537      	push	{r0, r1, r2, r4, r5, lr}
 8005282:	4c06      	ldr	r4, [pc, #24]	; (800529c <_strtoul_r+0x1c>)
 8005284:	4d06      	ldr	r5, [pc, #24]	; (80052a0 <_strtoul_r+0x20>)
 8005286:	6824      	ldr	r4, [r4, #0]
 8005288:	6a24      	ldr	r4, [r4, #32]
 800528a:	2c00      	cmp	r4, #0
 800528c:	bf08      	it	eq
 800528e:	462c      	moveq	r4, r5
 8005290:	9400      	str	r4, [sp, #0]
 8005292:	f7ff ff77 	bl	8005184 <_strtoul_l.isra.0>
 8005296:	b003      	add	sp, #12
 8005298:	bd30      	pop	{r4, r5, pc}
 800529a:	bf00      	nop
 800529c:	20000010 	.word	0x20000010
 80052a0:	20000074 	.word	0x20000074

080052a4 <__submore>:
 80052a4:	e92d 41f0 	stmdb	sp!, {r4, r5, r6, r7, r8, lr}
 80052a8:	460c      	mov	r4, r1
 80052aa:	6b49      	ldr	r1, [r1, #52]	; 0x34
 80052ac:	f104 0344 	add.w	r3, r4, #68	; 0x44
 80052b0:	4299      	cmp	r1, r3
 80052b2:	d11c      	bne.n	80052ee <__submore+0x4a>
 80052b4:	f44f 6180 	mov.w	r1, #1024	; 0x400
 80052b8:	f000 f8c4 	bl	8005444 <_malloc_r>
 80052bc:	b918      	cbnz	r0, 80052c6 <__submore+0x22>
 80052be:	f04f 30ff 	mov.w	r0, #4294967295
 80052c2:	e8bd 81f0 	ldmia.w	sp!, {r4, r5, r6, r7, r8, pc}
 80052c6:	f44f 6380 	mov.w	r3, #1024	; 0x400
 80052ca:	63a3      	str	r3, [r4, #56]	; 0x38
 80052cc:	f894 3046 	ldrb.w	r3, [r4, #70]	; 0x46
 80052d0:	6360      	str	r0, [r4, #52]	; 0x34
 80052d2:	f880 33ff 	strb.w	r3, [r0, #1023]	; 0x3ff
 80052d6:	f894 3045 	ldrb.w	r3, [r4, #69]	; 0x45
 80052da:	f200 30fd 	addw	r0, r0, #1021	; 0x3fd
 80052de:	7043      	strb	r3, [r0, #1]
 80052e0:	f894 3044 	ldrb.w	r3, [r4, #68]	; 0x44
 80052e4:	7003      	strb	r3, [r0, #0]
 80052e6:	6020      	str	r0, [r4, #0]
 80052e8:	2000      	movs	r0, #0
 80052ea:	e8bd 81f0 	ldmia.w	sp!, {r4, r5, r6, r7, r8, pc}
 80052ee:	6ba6      	ldr	r6, [r4, #56]	; 0x38
 80052f0:	0077      	lsls	r7, r6, #1
 80052f2:	463a      	mov	r2, r7
 80052f4:	f000 f904 	bl	8005500 <_realloc_r>
 80052f8:	4605      	mov	r5, r0
 80052fa:	2800      	cmp	r0, #0
 80052fc:	d0df      	beq.n	80052be <__submore+0x1a>
 80052fe:	eb00 0806 	add.w	r8, r0, r6
 8005302:	4601      	mov	r1, r0
 8005304:	4632      	mov	r2, r6
 8005306:	4640      	mov	r0, r8
 8005308:	f7ff f826 	bl	8004358 <memcpy>
 800530c:	f8c4 8000 	str.w	r8, [r4]
 8005310:	6365      	str	r5, [r4, #52]	; 0x34
 8005312:	63a7      	str	r7, [r4, #56]	; 0x38
 8005314:	e7e8      	b.n	80052e8 <__submore+0x44>

08005316 <__locale_ctype_ptr_l>:
 8005316:	f8d0 00ec 	ldr.w	r0, [r0, #236]	; 0xec
 800531a:	4770      	bx	lr

0800531c <__locale_ctype_ptr>:
 800531c:	4b04      	ldr	r3, [pc, #16]	; (8005330 <__locale_ctype_ptr+0x14>)
 800531e:	4a05      	ldr	r2, [pc, #20]	; (8005334 <__locale_ctype_ptr+0x18>)
 8005320:	681b      	ldr	r3, [r3, #0]
 8005322:	6a1b      	ldr	r3, [r3, #32]
 8005324:	2b00      	cmp	r3, #0
 8005326:	bf08      	it	eq
 8005328:	4613      	moveq	r3, r2
 800532a:	f8d3 00ec 	ldr.w	r0, [r3, #236]	; 0xec
 800532e:	4770      	bx	lr
 8005330:	20000010 	.word	0x20000010
 8005334:	20000074 	.word	0x20000074

08005338 <__ascii_mbtowc>:
 8005338:	b082      	sub	sp, #8
 800533a:	b901      	cbnz	r1, 800533e <__ascii_mbtowc+0x6>
 800533c:	a901      	add	r1, sp, #4
 800533e:	b142      	cbz	r2, 8005352 <__ascii_mbtowc+0x1a>
 8005340:	b14b      	cbz	r3, 8005356 <__ascii_mbtowc+0x1e>
 8005342:	7813      	ldrb	r3, [r2, #0]
 8005344:	600b      	str	r3, [r1, #0]
 8005346:	7812      	ldrb	r2, [r2, #0]
 8005348:	1c10      	adds	r0, r2, #0
 800534a:	bf18      	it	ne
 800534c:	2001      	movne	r0, #1
 800534e:	b002      	add	sp, #8
 8005350:	4770      	bx	lr
 8005352:	4610      	mov	r0, r2
 8005354:	e7fb      	b.n	800534e <__ascii_mbtowc+0x16>
 8005356:	f06f 0001 	mvn.w	r0, #1
 800535a:	e7f8      	b.n	800534e <__ascii_mbtowc+0x16>

0800535c <memchr>:
 800535c:	b510      	push	{r4, lr}
 800535e:	b2c9      	uxtb	r1, r1
 8005360:	4402      	add	r2, r0
 8005362:	4290      	cmp	r0, r2
 8005364:	4603      	mov	r3, r0
 8005366:	d101      	bne.n	800536c <memchr+0x10>
 8005368:	2000      	movs	r0, #0
 800536a:	bd10      	pop	{r4, pc}
 800536c:	781c      	ldrb	r4, [r3, #0]
 800536e:	3001      	adds	r0, #1
 8005370:	428c      	cmp	r4, r1
 8005372:	d1f6      	bne.n	8005362 <memchr+0x6>
 8005374:	4618      	mov	r0, r3
 8005376:	bd10      	pop	{r4, pc}

08005378 <memmove>:
 8005378:	4288      	cmp	r0, r1
 800537a:	b510      	push	{r4, lr}
 800537c:	eb01 0302 	add.w	r3, r1, r2
 8005380:	d803      	bhi.n	800538a <memmove+0x12>
 8005382:	1e42      	subs	r2, r0, #1
 8005384:	4299      	cmp	r1, r3
 8005386:	d10c      	bne.n	80053a2 <memmove+0x2a>
 8005388:	bd10      	pop	{r4, pc}
 800538a:	4298      	cmp	r0, r3
 800538c:	d2f9      	bcs.n	8005382 <memmove+0xa>
 800538e:	1881      	adds	r1, r0, r2
 8005390:	1ad2      	subs	r2, r2, r3
 8005392:	42d3      	cmn	r3, r2
 8005394:	d100      	bne.n	8005398 <memmove+0x20>
 8005396:	bd10      	pop	{r4, pc}
 8005398:	f813 4d01 	ldrb.w	r4, [r3, #-1]!
 800539c:	f801 4d01 	strb.w	r4, [r1, #-1]!
 80053a0:	e7f7      	b.n	8005392 <memmove+0x1a>
 80053a2:	f811 4b01 	ldrb.w	r4, [r1], #1
 80053a6:	f802 4f01 	strb.w	r4, [r2, #1]!
 80053aa:	e7eb      	b.n	8005384 <memmove+0xc>

080053ac <_free_r>:
 80053ac:	b538      	push	{r3, r4, r5, lr}
 80053ae:	4605      	mov	r5, r0
 80053b0:	2900      	cmp	r1, #0
 80053b2:	d043      	beq.n	800543c <_free_r+0x90>
 80053b4:	f851 3c04 	ldr.w	r3, [r1, #-4]
 80053b8:	1f0c      	subs	r4, r1, #4
 80053ba:	2b00      	cmp	r3, #0
 80053bc:	bfb8      	it	lt
 80053be:	18e4      	addlt	r4, r4, r3
 80053c0:	f000 f8e1 	bl	8005586 <__malloc_lock>
 80053c4:	4a1e      	ldr	r2, [pc, #120]	; (8005440 <_free_r+0x94>)
 80053c6:	6813      	ldr	r3, [r2, #0]
 80053c8:	4610      	mov	r0, r2
 80053ca:	b933      	cbnz	r3, 80053da <_free_r+0x2e>
 80053cc:	6063      	str	r3, [r4, #4]
 80053ce:	6014      	str	r4, [r2, #0]
 80053d0:	4628      	mov	r0, r5
 80053d2:	e8bd 4038 	ldmia.w	sp!, {r3, r4, r5, lr}
 80053d6:	f000 b8d7 	b.w	8005588 <__malloc_unlock>
 80053da:	42a3      	cmp	r3, r4
 80053dc:	d90b      	bls.n	80053f6 <_free_r+0x4a>
 80053de:	6821      	ldr	r1, [r4, #0]
 80053e0:	1862      	adds	r2, r4, r1
 80053e2:	4293      	cmp	r3, r2
 80053e4:	bf01      	itttt	eq
 80053e6:	681a      	ldreq	r2, [r3, #0]
 80053e8:	685b      	ldreq	r3, [r3, #4]
 80053ea:	1852      	addeq	r2, r2, r1
 80053ec:	6022      	streq	r2, [r4, #0]
 80053ee:	6063      	str	r3, [r4, #4]
 80053f0:	6004      	str	r4, [r0, #0]
 80053f2:	e7ed      	b.n	80053d0 <_free_r+0x24>
 80053f4:	4613      	mov	r3, r2
 80053f6:	685a      	ldr	r2, [r3, #4]
 80053f8:	b10a      	cbz	r2, 80053fe <_free_r+0x52>
 80053fa:	42a2      	cmp	r2, r4
 80053fc:	d9fa      	bls.n	80053f4 <_free_r+0x48>
 80053fe:	6819      	ldr	r1, [r3, #0]
 8005400:	1858      	adds	r0, r3, r1
 8005402:	42a0      	cmp	r0, r4
 8005404:	d10b      	bne.n	800541e <_free_r+0x72>
 8005406:	6820      	ldr	r0, [r4, #0]
 8005408:	4401      	add	r1, r0
 800540a:	1858      	adds	r0, r3, r1
 800540c:	4282      	cmp	r2, r0
 800540e:	6019      	str	r1, [r3, #0]
 8005410:	d1de      	bne.n	80053d0 <_free_r+0x24>
 8005412:	6810      	ldr	r0, [r2, #0]
 8005414:	6852      	ldr	r2, [r2, #4]
 8005416:	4401      	add	r1, r0
 8005418:	6019      	str	r1, [r3, #0]
 800541a:	605a      	str	r2, [r3, #4]
 800541c:	e7d8      	b.n	80053d0 <_free_r+0x24>
 800541e:	d902      	bls.n	8005426 <_free_r+0x7a>
 8005420:	230c      	movs	r3, #12
 8005422:	602b      	str	r3, [r5, #0]
 8005424:	e7d4      	b.n	80053d0 <_free_r+0x24>
 8005426:	6820      	ldr	r0, [r4, #0]
 8005428:	1821      	adds	r1, r4, r0
 800542a:	428a      	cmp	r2, r1
 800542c:	bf01      	itttt	eq
 800542e:	6811      	ldreq	r1, [r2, #0]
 8005430:	6852      	ldreq	r2, [r2, #4]
 8005432:	1809      	addeq	r1, r1, r0
 8005434:	6021      	streq	r1, [r4, #0]
 8005436:	6062      	str	r2, [r4, #4]
 8005438:	605c      	str	r4, [r3, #4]
 800543a:	e7c9      	b.n	80053d0 <_free_r+0x24>
 800543c:	bd38      	pop	{r3, r4, r5, pc}
 800543e:	bf00      	nop
 8005440:	20005238 	.word	0x20005238

08005444 <_malloc_r>:
 8005444:	b570      	push	{r4, r5, r6, lr}
 8005446:	1ccd      	adds	r5, r1, #3
 8005448:	f025 0503 	bic.w	r5, r5, #3
 800544c:	3508      	adds	r5, #8
 800544e:	2d0c      	cmp	r5, #12
 8005450:	bf38      	it	cc
 8005452:	250c      	movcc	r5, #12
 8005454:	2d00      	cmp	r5, #0
 8005456:	4606      	mov	r6, r0
 8005458:	db01      	blt.n	800545e <_malloc_r+0x1a>
 800545a:	42a9      	cmp	r1, r5
 800545c:	d903      	bls.n	8005466 <_malloc_r+0x22>
 800545e:	230c      	movs	r3, #12
 8005460:	6033      	str	r3, [r6, #0]
 8005462:	2000      	movs	r0, #0
 8005464:	bd70      	pop	{r4, r5, r6, pc}
 8005466:	f000 f88e 	bl	8005586 <__malloc_lock>
 800546a:	4a23      	ldr	r2, [pc, #140]	; (80054f8 <_malloc_r+0xb4>)
 800546c:	6814      	ldr	r4, [r2, #0]
 800546e:	4621      	mov	r1, r4
 8005470:	b991      	cbnz	r1, 8005498 <_malloc_r+0x54>
 8005472:	4c22      	ldr	r4, [pc, #136]	; (80054fc <_malloc_r+0xb8>)
 8005474:	6823      	ldr	r3, [r4, #0]
 8005476:	b91b      	cbnz	r3, 8005480 <_malloc_r+0x3c>
 8005478:	4630      	mov	r0, r6
 800547a:	f000 f867 	bl	800554c <_sbrk_r>
 800547e:	6020      	str	r0, [r4, #0]
 8005480:	4629      	mov	r1, r5
 8005482:	4630      	mov	r0, r6
 8005484:	f000 f862 	bl	800554c <_sbrk_r>
 8005488:	1c43      	adds	r3, r0, #1
 800548a:	d126      	bne.n	80054da <_malloc_r+0x96>
 800548c:	230c      	movs	r3, #12
 800548e:	4630      	mov	r0, r6
 8005490:	6033      	str	r3, [r6, #0]
 8005492:	f000 f879 	bl	8005588 <__malloc_unlock>
 8005496:	e7e4      	b.n	8005462 <_malloc_r+0x1e>
 8005498:	680b      	ldr	r3, [r1, #0]
 800549a:	1b5b      	subs	r3, r3, r5
 800549c:	d41a      	bmi.n	80054d4 <_malloc_r+0x90>
 800549e:	2b0b      	cmp	r3, #11
 80054a0:	d90f      	bls.n	80054c2 <_malloc_r+0x7e>
 80054a2:	600b      	str	r3, [r1, #0]
 80054a4:	18cc      	adds	r4, r1, r3
 80054a6:	50cd      	str	r5, [r1, r3]
 80054a8:	4630      	mov	r0, r6
 80054aa:	f000 f86d 	bl	8005588 <__malloc_unlock>
 80054ae:	f104 000b 	add.w	r0, r4, #11
 80054b2:	1d23      	adds	r3, r4, #4
 80054b4:	f020 0007 	bic.w	r0, r0, #7
 80054b8:	1ac3      	subs	r3, r0, r3
 80054ba:	d01b      	beq.n	80054f4 <_malloc_r+0xb0>
 80054bc:	425a      	negs	r2, r3
 80054be:	50e2      	str	r2, [r4, r3]
 80054c0:	bd70      	pop	{r4, r5, r6, pc}
 80054c2:	428c      	cmp	r4, r1
 80054c4:	bf0b      	itete	eq
 80054c6:	6863      	ldreq	r3, [r4, #4]
 80054c8:	684b      	ldrne	r3, [r1, #4]
 80054ca:	6013      	streq	r3, [r2, #0]
 80054cc:	6063      	strne	r3, [r4, #4]
 80054ce:	bf18      	it	ne
 80054d0:	460c      	movne	r4, r1
 80054d2:	e7e9      	b.n	80054a8 <_malloc_r+0x64>
 80054d4:	460c      	mov	r4, r1
 80054d6:	6849      	ldr	r1, [r1, #4]
 80054d8:	e7ca      	b.n	8005470 <_malloc_r+0x2c>
 80054da:	1cc4      	adds	r4, r0, #3
 80054dc:	f024 0403 	bic.w	r4, r4, #3
 80054e0:	42a0      	cmp	r0, r4
 80054e2:	d005      	beq.n	80054f0 <_malloc_r+0xac>
 80054e4:	1a21      	subs	r1, r4, r0
 80054e6:	4630      	mov	r0, r6
 80054e8:	f000 f830 	bl	800554c <_sbrk_r>
 80054ec:	3001      	adds	r0, #1
 80054ee:	d0cd      	beq.n	800548c <_malloc_r+0x48>
 80054f0:	6025      	str	r5, [r4, #0]
 80054f2:	e7d9      	b.n	80054a8 <_malloc_r+0x64>
 80054f4:	bd70      	pop	{r4, r5, r6, pc}
 80054f6:	bf00      	nop
 80054f8:	20005238 	.word	0x20005238
 80054fc:	2000523c 	.word	0x2000523c

08005500 <_realloc_r>:
 8005500:	b5f8      	push	{r3, r4, r5, r6, r7, lr}
 8005502:	4607      	mov	r7, r0
 8005504:	4614      	mov	r4, r2
 8005506:	460e      	mov	r6, r1
 8005508:	b921      	cbnz	r1, 8005514 <_realloc_r+0x14>
 800550a:	4611      	mov	r1, r2
 800550c:	e8bd 40f8 	ldmia.w	sp!, {r3, r4, r5, r6, r7, lr}
 8005510:	f7ff bf98 	b.w	8005444 <_malloc_r>
 8005514:	b922      	cbnz	r2, 8005520 <_realloc_r+0x20>
 8005516:	f7ff ff49 	bl	80053ac <_free_r>
 800551a:	4625      	mov	r5, r4
 800551c:	4628      	mov	r0, r5
 800551e:	bdf8      	pop	{r3, r4, r5, r6, r7, pc}
 8005520:	f000 f833 	bl	800558a <_malloc_usable_size_r>
 8005524:	4284      	cmp	r4, r0
 8005526:	d90f      	bls.n	8005548 <_realloc_r+0x48>
 8005528:	4621      	mov	r1, r4
 800552a:	4638      	mov	r0, r7
 800552c:	f7ff ff8a 	bl	8005444 <_malloc_r>
 8005530:	4605      	mov	r5, r0
 8005532:	2800      	cmp	r0, #0
 8005534:	d0f2      	beq.n	800551c <_realloc_r+0x1c>
 8005536:	4631      	mov	r1, r6
 8005538:	4622      	mov	r2, r4
 800553a:	f7fe ff0d 	bl	8004358 <memcpy>
 800553e:	4631      	mov	r1, r6
 8005540:	4638      	mov	r0, r7
 8005542:	f7ff ff33 	bl	80053ac <_free_r>
 8005546:	e7e9      	b.n	800551c <_realloc_r+0x1c>
 8005548:	4635      	mov	r5, r6
 800554a:	e7e7      	b.n	800551c <_realloc_r+0x1c>

0800554c <_sbrk_r>:
 800554c:	b538      	push	{r3, r4, r5, lr}
 800554e:	2300      	movs	r3, #0
 8005550:	4c05      	ldr	r4, [pc, #20]	; (8005568 <_sbrk_r+0x1c>)
 8005552:	4605      	mov	r5, r0
 8005554:	4608      	mov	r0, r1
 8005556:	6023      	str	r3, [r4, #0]
 8005558:	f7fe fe8e 	bl	8004278 <_sbrk>
 800555c:	1c43      	adds	r3, r0, #1
 800555e:	d102      	bne.n	8005566 <_sbrk_r+0x1a>
 8005560:	6823      	ldr	r3, [r4, #0]
 8005562:	b103      	cbz	r3, 8005566 <_sbrk_r+0x1a>
 8005564:	602b      	str	r3, [r5, #0]
 8005566:	bd38      	pop	{r3, r4, r5, pc}
 8005568:	200053c0 	.word	0x200053c0

0800556c <__ascii_wctomb>:
 800556c:	b149      	cbz	r1, 8005582 <__ascii_wctomb+0x16>
 800556e:	2aff      	cmp	r2, #255	; 0xff
 8005570:	bf8b      	itete	hi
 8005572:	238a      	movhi	r3, #138	; 0x8a
 8005574:	700a      	strbls	r2, [r1, #0]
 8005576:	6003      	strhi	r3, [r0, #0]
 8005578:	2001      	movls	r0, #1
 800557a:	bf88      	it	hi
 800557c:	f04f 30ff 	movhi.w	r0, #4294967295
 8005580:	4770      	bx	lr
 8005582:	4608      	mov	r0, r1
 8005584:	4770      	bx	lr

08005586 <__malloc_lock>:
 8005586:	4770      	bx	lr

08005588 <__malloc_unlock>:
 8005588:	4770      	bx	lr

0800558a <_malloc_usable_size_r>:
 800558a:	f851 0c04 	ldr.w	r0, [r1, #-4]
 800558e:	2800      	cmp	r0, #0
 8005590:	f1a0 0004 	sub.w	r0, r0, #4
 8005594:	bfbc      	itt	lt
 8005596:	580b      	ldrlt	r3, [r1, r0]
 8005598:	18c0      	addlt	r0, r0, r3
 800559a:	4770      	bx	lr

0800559c <_init>:
 800559c:	b5f8      	push	{r3, r4, r5, r6, r7, lr}
 800559e:	bf00      	nop
 80055a0:	bcf8      	pop	{r3, r4, r5, r6, r7}
 80055a2:	bc08      	pop	{r3}
 80055a4:	469e      	mov	lr, r3
 80055a6:	4770      	bx	lr

080055a8 <_fini>:
 80055a8:	b5f8      	push	{r3, r4, r5, r6, r7, lr}
 80055aa:	bf00      	nop
 80055ac:	bcf8      	pop	{r3, r4, r5, r6, r7}
 80055ae:	bc08      	pop	{r3}
 80055b0:	469e      	mov	lr, r3
 80055b2:	4770      	bx	lr
